
ScarlettA1Firmware.elf:     file format elf32-littlearm

Sections:
Idx Name          Size      VMA       LMA       File off  Algn
  0 .isr_vector   000001f8  08000000  08000000  00010000  2**0
                  CONTENTS, ALLOC, LOAD, READONLY, DATA
  1 .text         00007f88  08000200  08000200  00010200  2**4
                  CONTENTS, ALLOC, LOAD, READONLY, CODE
  2 .rodata       00001a08  08008188  08008188  00018188  2**2
                  CONTENTS, ALLOC, LOAD, READONLY, DATA
  3 .ARM.extab    00000000  08009b90  08009b90  000200b8  2**0
                  CONTENTS
  4 .ARM          00000008  08009b90  08009b90  00019b90  2**2
                  CONTENTS, ALLOC, LOAD, READONLY, DATA
  5 .preinit_array 00000000  08009b98  08009b98  000200b8  2**0
                  CONTENTS, ALLOC, LOAD, DATA
  6 .init_array   00000004  08009b98  08009b98  00019b98  2**2
                  CONTENTS, ALLOC, LOAD, DATA
  7 .fini_array   00000004  08009b9c  08009b9c  00019b9c  2**2
                  CONTENTS, ALLOC, LOAD, DATA
  8 .data         000000b8  20000000  08009ba0  00020000  2**2
                  CONTENTS, ALLOC, LOAD, DATA
  9 .bss          00005254  200000b8  08009c58  000200b8  2**2
                  ALLOC
 10 ._user_heap_stack 00000604  2000530c  08009c58  0002530c  2**0
                  ALLOC
 11 .ARM.attributes 0000002e  00000000  00000000  000200b8  2**0
                  CONTENTS, READONLY
 12 .comment      00000043  00000000  00000000  000200e6  2**0
                  CONTENTS, READONLY
 13 .debug_frame  0000087c  00000000  00000000  0002012c  2**2
                  CONTENTS, READONLY, DEBUGGING, OCTETS

Disassembly of section .text:

08000200 <__do_global_dtors_aux>:
 8000200:	b510      	push	{r4, lr}
 8000202:	4c05      	ldr	r4, [pc, #20]	; (8000218 <__do_global_dtors_aux+0x18>)
 8000204:	7823      	ldrb	r3, [r4, #0]
 8000206:	b933      	cbnz	r3, 8000216 <__do_global_dtors_aux+0x16>
 8000208:	4b04      	ldr	r3, [pc, #16]	; (800021c <__do_global_dtors_aux+0x1c>)
 800020a:	b113      	cbz	r3, 8000212 <__do_global_dtors_aux+0x12>
 800020c:	4804      	ldr	r0, [pc, #16]	; (8000220 <__do_global_dtors_aux+0x20>)
 800020e:	f3af 8000 	nop.w
 8000212:	2301      	movs	r3, #1
 8000214:	7023      	strb	r3, [r4, #0]
 8000216:	bd10      	pop	{r4, pc}
 8000218:	200000b8 	.word	0x200000b8
 800021c:	00000000 	.word	0x00000000
 8000220:	08008170 	.word	0x08008170

08000224 <frame_dummy>:
 8000224:	b508      	push	{r3, lr}
 8000226:	4b03      	ldr	r3, [pc, #12]	; (8000234 <frame_dummy+0x10>)
 8000228:	b11b      	cbz	r3, 8000232 <frame_dummy+0xe>
 800022a:	4903      	ldr	r1, [pc, #12]	; (8000238 <frame_dummy+0x14>)
 800022c:	4803      	ldr	r0, [pc, #12]	; (800023c <frame_dummy+0x18>)
 800022e:	f3af 8000 	nop.w
 8000232:	bd08      	pop	{r3, pc}
 8000234:	00000000 	.word	0x00000000
 8000238:	200000bc 	.word	0x200000bc
 800023c:	08008170 	.word	0x08008170

08000240 <memchr>:
 8000240:	f001 01ff 	and.w	r1, r1, #255	; 0xff
 8000244:	2a10      	cmp	r2, #16
 8000246:	db2b      	blt.n	80002a0 <memchr+0x60>
 8000248:	f010 0f07 	tst.w	r0, #7
 800024c:	d008      	beq.n	8000260 <memchr+0x20>
 800024e:	f810 3b01 	ldrb.w	r3, [r0], #1
 8000252:	3a01      	subs	r2, #1
 8000254:	428b      	cmp	r3, r1
 8000256:	d02d      	beq.n	80002b4 <memchr+0x74>
 8000258:	f010 0f07 	tst.w	r0, #7
 800025c:	b342      	cbz	r2, 80002b0 <memchr+0x70>
 800025e:	d1f6      	bne.n	800024e <memchr+0xe>
 8000260:	b4f0      	push	{r4, r5, r6, r7}
 8000262:	ea41 2101 	orr.w	r1, r1, r1, lsl #8
 8000266:	ea41 4101 	orr.w	r1, r1, r1, lsl #16
 800026a:	f022 0407 	bic.w	r4, r2, #7
 800026e:	f07f 0700 	mvns.w	r7, #0
 8000272:	2300      	movs	r3, #0
 8000274:	e8f0 5602 	ldrd	r5, r6, [r0], #8
 8000278:	3c08      	subs	r4, #8
 800027a:	ea85 0501 	eor.w	r5, r5, r1
 800027e:	ea86 0601 	eor.w	r6, r6, r1
 8000282:	fa85 f547 	uadd8	r5, r5, r7
 8000286:	faa3 f587 	sel	r5, r3, r7
 800028a:	fa86 f647 	uadd8	r6, r6, r7
 800028e:	faa5 f687 	sel	r6, r5, r7
 8000292:	b98e      	cbnz	r6, 80002b8 <memchr+0x78>
 8000294:	d1ee      	bne.n	8000274 <memchr+0x34>
 8000296:	bcf0      	pop	{r4, r5, r6, r7}
 8000298:	f001 01ff 	and.w	r1, r1, #255	; 0xff
 800029c:	f002 0207 	and.w	r2, r2, #7
 80002a0:	b132      	cbz	r2, 80002b0 <memchr+0x70>
 80002a2:	f810 3b01 	ldrb.w	r3, [r0], #1
 80002a6:	3a01      	subs	r2, #1
 80002a8:	ea83 0301 	eor.w	r3, r3, r1
 80002ac:	b113      	cbz	r3, 80002b4 <memchr+0x74>
 80002ae:	d1f8      	bne.n	80002a2 <memchr+0x62>
 80002b0:	2000      	movs	r0, #0
 80002b2:	4770      	bx	lr
 80002b4:	3801      	subs	r0, #1
 80002b6:	4770      	bx	lr
 80002b8:	2d00      	cmp	r5, #0
 80002ba:	bf06      	itte	eq
 80002bc:	4635      	moveq	r5, r6
 80002be:	3803      	subeq	r0, #3
 80002c0:	3807      	subne	r0, #7
 80002c2:	f015 0f01 	tst.w	r5, #1
 80002c6:	d107      	bne.n	80002d8 <memchr+0x98>
 80002c8:	3001      	adds	r0, #1
 80002ca:	f415 7f80 	tst.w	r5, #256	; 0x100
 80002ce:	bf02      	ittt	eq
 80002d0:	3001      	addeq	r0, #1
 80002d2:	f415 3fc0 	tsteq.w	r5, #98304	; 0x18000
 80002d6:	3001      	addeq	r0, #1
 80002d8:	bcf0      	pop	{r4, r5, r6, r7}
 80002da:	3801      	subs	r0, #1
 80002dc:	4770      	bx	lr
 80002de:	bf00      	nop

080002e0 <__aeabi_uldivmod>:
 80002e0:	b953      	cbnz	r3, 80002f8 <__aeabi_uldivmod+0x18>
 80002e2:	b94a      	cbnz	r2, 80002f8 <__aeabi_uldivmod+0x18>
 80002e4:	2900      	cmp	r1, #0
 80002e6:	bf08      	it	eq
 80002e8:	2800      	cmpeq	r0, #0
 80002ea:	bf1c      	itt	ne
 80002ec:	f04f 31ff 	movne.w	r1, #4294967295
 80002f0:	f04f 30ff 	movne.w	r0, #4294967295
 80002f4:	f000 b970 	b.w	80005d8 <__aeabi_idiv0>
 80002f8:	f1ad 0c08 	sub.w	ip, sp, #8
 80002fc:	e96d ce04 	strd	ip, lr, [sp, #-16]!
 8000300:	f000 f806 	bl	8000310 <__udivmoddi4>
 8000304:	f8dd e004 	ldr.w	lr, [sp, #4]
 8000308:	e9dd 2302 	ldrd	r2, r3, [sp, #8]
 800030c:	b004      	add	sp, #16
 800030e:	4770      	bx	lr

08000310 <__udivmoddi4>:
 8000310:	e92d 47f0 	stmdb	sp!, {r4, r5, r6, r7, r8, r9, sl, lr}
 8000314:	9e08      	ldr	r6, [sp, #32]
 8000316:	460d      	mov	r5, r1
 8000318:	4604      	mov	r4, r0
 800031a:	460f      	mov	r7, r1
 800031c:	2b00      	cmp	r3, #0
 800031e:	d14a      	bne.n	80003b6 <__udivmoddi4+0xa6>
 8000320:	428a      	cmp	r2, r1
 8000322:	4694      	mov	ip, r2
 8000324:	d965      	bls.n	80003f2 <__udivmoddi4+0xe2>
 8000326:	fab2 f382 	clz	r3, r2
 800032a:	b143      	cbz	r3, 800033e <__udivmoddi4+0x2e>
 800032c:	fa02 fc03 	lsl.w	ip, r2, r3
 8000330:	f1c3 0220 	rsb	r2, r3, #32
 8000334:	409f      	lsls	r7, r3
 8000336:	fa20 f202 	lsr.w	r2, r0, r2
 800033a:	4317      	orrs	r7, r2
 800033c:	409c      	lsls	r4, r3
 800033e:	ea4f 4e1c 	mov.w	lr, ip, lsr #16
 8000342:	fa1f f58c 	uxth.w	r5, ip
 8000346:	fbb7 f1fe 	udiv	r1, r7, lr
 800034a:	0c22      	lsrs	r2, r4, #16
 800034c:	fb0e 7711 	mls	r7, lr, r1, r7
 8000350:	ea42 4207 	orr.w	r2, r2, r7, lsl #16
 8000354:	fb01 f005 	mul.w	r0, r1, r5
 8000358:	4290      	cmp	r0, r2
 800035a:	d90a      	bls.n	8000372 <__udivmoddi4+0x62>
 800035c:	eb1c 0202 	adds.w	r2, ip, r2
 8000360:	f101 37ff 	add.w	r7, r1, #4294967295
 8000364:	f080 811c 	bcs.w	80005a0 <__udivmoddi4+0x290>
 8000368:	4290      	cmp	r0, r2
 800036a:	f240 8119 	bls.w	80005a0 <__udivmoddi4+0x290>
 800036e:	3902      	subs	r1, #2
 8000370:	4462      	add	r2, ip
 8000372:	1a12      	subs	r2, r2, r0
 8000374:	b2a4      	uxth	r4, r4
 8000376:	fbb2 f0fe 	udiv	r0, r2, lr
 800037a:	fb0e 2210 	mls	r2, lr, r0, r2
 800037e:	ea44 4402 	orr.w	r4, r4, r2, lsl #16
 8000382:	fb00 f505 	mul.w	r5, r0, r5
 8000386:	42a5      	cmp	r5, r4
 8000388:	d90a      	bls.n	80003a0 <__udivmoddi4+0x90>
 800038a:	eb1c 0404 	adds.w	r4, ip, r4
 800038e:	f100 32ff 	add.w	r2, r0, #4294967295
 8000392:	f080 8107 	bcs.w	80005a4 <__udivmoddi4+0x294>
 8000396:	42a5      	cmp	r5, r4
 8000398:	f240 8104 	bls.w	80005a4 <__udivmoddi4+0x294>
 800039c:	4464      	add	r4, ip
 800039e:	3802      	subs	r0, #2
 80003a0:	ea40 4001 	orr.w	r0, r0, r1, lsl #16
 80003a4:	1b64      	subs	r4, r4, r5
 80003a6:	2100      	movs	r1, #0
 80003a8:	b11e      	cbz	r6, 80003b2 <__udivmoddi4+0xa2>
 80003aa:	40dc      	lsrs	r4, r3
 80003ac:	2300      	movs	r3, #0
 80003ae:	e9c6 4300 	strd	r4, r3, [r6]
 80003b2:	e8bd 87f0 	ldmia.w	sp!, {r4, r5, r6, r7, r8, r9, sl, pc}
 80003b6:	428b      	cmp	r3, r1
 80003b8:	d908      	bls.n	80003cc <__udivmoddi4+0xbc>
 80003ba:	2e00      	cmp	r6, #0
 80003bc:	f000 80ed 	beq.w	800059a <__udivmoddi4+0x28a>
 80003c0:	2100      	movs	r1, #0
 80003c2:	e9c6 0500 	strd	r0, r5, [r6]
 80003c6:	4608      	mov	r0, r1
 80003c8:	e8bd 87f0 	ldmia.w	sp!, {r4, r5, r6, r7, r8, r9, sl, pc}
 80003cc:	fab3 f183 	clz	r1, r3
 80003d0:	2900      	cmp	r1, #0
 80003d2:	d149      	bne.n	8000468 <__udivmoddi4+0x158>
 80003d4:	42ab      	cmp	r3, r5
 80003d6:	d302      	bcc.n	80003de <__udivmoddi4+0xce>
 80003d8:	4282      	cmp	r2, r0
 80003da:	f200 80f8 	bhi.w	80005ce <__udivmoddi4+0x2be>
 80003de:	1a84      	subs	r4, r0, r2
 80003e0:	eb65 0203 	sbc.w	r2, r5, r3
 80003e4:	2001      	movs	r0, #1
 80003e6:	4617      	mov	r7, r2
 80003e8:	2e00      	cmp	r6, #0
 80003ea:	d0e2      	beq.n	80003b2 <__udivmoddi4+0xa2>
 80003ec:	e9c6 4700 	strd	r4, r7, [r6]
 80003f0:	e7df      	b.n	80003b2 <__udivmoddi4+0xa2>
 80003f2:	b902      	cbnz	r2, 80003f6 <__udivmoddi4+0xe6>
 80003f4:	deff      	udf	#255	; 0xff
 80003f6:	fab2 f382 	clz	r3, r2
 80003fa:	2b00      	cmp	r3, #0
 80003fc:	f040 8090 	bne.w	8000520 <__udivmoddi4+0x210>
 8000400:	1a8a      	subs	r2, r1, r2
 8000402:	ea4f 471c 	mov.w	r7, ip, lsr #16
 8000406:	fa1f fe8c 	uxth.w	lr, ip
 800040a:	2101      	movs	r1, #1
 800040c:	fbb2 f5f7 	udiv	r5, r2, r7
 8000410:	fb07 2015 	mls	r0, r7, r5, r2
 8000414:	0c22      	lsrs	r2, r4, #16
 8000416:	ea42 4200 	orr.w	r2, r2, r0, lsl #16
 800041a:	fb0e f005 	mul.w	r0, lr, r5
 800041e:	4290      	cmp	r0, r2
 8000420:	d908      	bls.n	8000434 <__udivmoddi4+0x124>
 8000422:	eb1c 0202 	adds.w	r2, ip, r2
 8000426:	f105 38ff 	add.w	r8, r5, #4294967295
 800042a:	d202      	bcs.n	8000432 <__udivmoddi4+0x122>
 800042c:	4290      	cmp	r0, r2
 800042e:	f200 80cb 	bhi.w	80005c8 <__udivmoddi4+0x2b8>
 8000432:	4645      	mov	r5, r8
 8000434:	1a12      	subs	r2, r2, r0
 8000436:	b2a4      	uxth	r4, r4
 8000438:	fbb2 f0f7 	udiv	r0, r2, r7
 800043c:	fb07 2210 	mls	r2, r7, r0, r2
 8000440:	ea44 4402 	orr.w	r4, r4, r2, lsl #16
 8000444:	fb0e fe00 	mul.w	lr, lr, r0
 8000448:	45a6      	cmp	lr, r4
 800044a:	d908      	bls.n	800045e <__udivmoddi4+0x14e>
 800044c:	eb1c 0404 	adds.w	r4, ip, r4
 8000450:	f100 32ff 	add.w	r2, r0, #4294967295
 8000454:	d202      	bcs.n	800045c <__udivmoddi4+0x14c>
 8000456:	45a6      	cmp	lr, r4
 8000458:	f200 80bb 	bhi.w	80005d2 <__udivmoddi4+0x2c2>
 800045c:	4610      	mov	r0, r2
 800045e:	eba4 040e 	sub.w	r4, r4, lr
 8000462:	ea40 4005 	orr.w	r0, r0, r5, lsl #16
 8000466:	e79f      	b.n	80003a8 <__udivmoddi4+0x98>
 8000468:	f1c1 0720 	rsb	r7, r1, #32
 800046c:	408b      	lsls	r3, r1
 800046e:	fa22 fc07 	lsr.w	ip, r2, r7
 8000472:	ea4c 0c03 	orr.w	ip, ip, r3
 8000476:	fa05 f401 	lsl.w	r4, r5, r1
 800047a:	fa20 f307 	lsr.w	r3, r0, r7
 800047e:	40fd      	lsrs	r5, r7
 8000480:	ea4f 491c 	mov.w	r9, ip, lsr #16
 8000484:	4323      	orrs	r3, r4
 8000486:	fbb5 f8f9 	udiv	r8, r5, r9
 800048a:	fa1f fe8c 	uxth.w	lr, ip
 800048e:	fb09 5518 	mls	r5, r9, r8, r5
 8000492:	0c1c      	lsrs	r4, r3, #16
 8000494:	ea44 4405 	orr.w	r4, r4, r5, lsl #16
 8000498:	fb08 f50e 	mul.w	r5, r8, lr
 800049c:	42a5      	cmp	r5, r4
 800049e:	fa02 f201 	lsl.w	r2, r2, r1
 80004a2:	fa00 f001 	lsl.w	r0, r0, r1
 80004a6:	d90b      	bls.n	80004c0 <__udivmoddi4+0x1b0>
 80004a8:	eb1c 0404 	adds.w	r4, ip, r4
 80004ac:	f108 3aff 	add.w	sl, r8, #4294967295
 80004b0:	f080 8088 	bcs.w	80005c4 <__udivmoddi4+0x2b4>
 80004b4:	42a5      	cmp	r5, r4
 80004b6:	f240 8085 	bls.w	80005c4 <__udivmoddi4+0x2b4>
 80004ba:	f1a8 0802 	sub.w	r8, r8, #2
 80004be:	4464      	add	r4, ip
 80004c0:	1b64      	subs	r4, r4, r5
 80004c2:	b29d      	uxth	r5, r3
 80004c4:	fbb4 f3f9 	udiv	r3, r4, r9
 80004c8:	fb09 4413 	mls	r4, r9, r3, r4
 80004cc:	ea45 4404 	orr.w	r4, r5, r4, lsl #16
 80004d0:	fb03 fe0e 	mul.w	lr, r3, lr
 80004d4:	45a6      	cmp	lr, r4
 80004d6:	d908      	bls.n	80004ea <__udivmoddi4+0x1da>
 80004d8:	eb1c 0404 	adds.w	r4, ip, r4
 80004dc:	f103 35ff 	add.w	r5, r3, #4294967295
 80004e0:	d26c      	bcs.n	80005bc <__udivmoddi4+0x2ac>
 80004e2:	45a6      	cmp	lr, r4
 80004e4:	d96a      	bls.n	80005bc <__udivmoddi4+0x2ac>
 80004e6:	3b02      	subs	r3, #2
 80004e8:	4464      	add	r4, ip
 80004ea:	ea43 4308 	orr.w	r3, r3, r8, lsl #16
 80004ee:	fba3 9502 	umull	r9, r5, r3, r2
 80004f2:	eba4 040e 	sub.w	r4, r4, lr
 80004f6:	42ac      	cmp	r4, r5
 80004f8:	46c8      	mov	r8, r9
 80004fa:	46ae      	mov	lr, r5
 80004fc:	d356      	bcc.n	80005ac <__udivmoddi4+0x29c>
 80004fe:	d053      	beq.n	80005a8 <__udivmoddi4+0x298>
 8000500:	b156      	cbz	r6, 8000518 <__udivmoddi4+0x208>
 8000502:	ebb0 0208 	subs.w	r2, r0, r8
 8000506:	eb64 040e 	sbc.w	r4, r4, lr
 800050a:	fa04 f707 	lsl.w	r7, r4, r7
 800050e:	40ca      	lsrs	r2, r1
 8000510:	40cc      	lsrs	r4, r1
 8000512:	4317      	orrs	r7, r2
 8000514:	e9c6 7400 	strd	r7, r4, [r6]
 8000518:	4618      	mov	r0, r3
 800051a:	2100      	movs	r1, #0
 800051c:	e8bd 87f0 	ldmia.w	sp!, {r4, r5, r6, r7, r8, r9, sl, pc}
 8000520:	f1c3 0120 	rsb	r1, r3, #32
 8000524:	fa02 fc03 	lsl.w	ip, r2, r3
 8000528:	fa20 f201 	lsr.w	r2, r0, r1
 800052c:	fa25 f101 	lsr.w	r1, r5, r1
 8000530:	409d      	lsls	r5, r3
 8000532:	432a      	orrs	r2, r5
 8000534:	ea4f 471c 	mov.w	r7, ip, lsr #16
 8000538:	fa1f fe8c 	uxth.w	lr, ip
 800053c:	fbb1 f0f7 	udiv	r0, r1, r7
 8000540:	fb07 1510 	mls	r5, r7, r0, r1
 8000544:	0c11      	lsrs	r1, r2, #16
 8000546:	ea41 4105 	orr.w	r1, r1, r5, lsl #16
 800054a:	fb00 f50e 	mul.w	r5, r0, lr
 800054e:	428d      	cmp	r5, r1
 8000550:	fa04 f403 	lsl.w	r4, r4, r3
 8000554:	d908      	bls.n	8000568 <__udivmoddi4+0x258>
 8000556:	eb1c 0101 	adds.w	r1, ip, r1
 800055a:	f100 38ff 	add.w	r8, r0, #4294967295
 800055e:	d22f      	bcs.n	80005c0 <__udivmoddi4+0x2b0>
 8000560:	428d      	cmp	r5, r1
 8000562:	d92d      	bls.n	80005c0 <__udivmoddi4+0x2b0>
 8000564:	3802      	subs	r0, #2
 8000566:	4461      	add	r1, ip
 8000568:	1b49      	subs	r1, r1, r5
 800056a:	b292      	uxth	r2, r2
 800056c:	fbb1 f5f7 	udiv	r5, r1, r7
 8000570:	fb07 1115 	mls	r1, r7, r5, r1
 8000574:	ea42 4201 	orr.w	r2, r2, r1, lsl #16
 8000578:	fb05 f10e 	mul.w	r1, r5, lr
 800057c:	4291      	cmp	r1, r2
 800057e:	d908      	bls.n	8000592 <__udivmoddi4+0x282>
 8000580:	eb1c 0202 	adds.w	r2, ip, r2
 8000584:	f105 38ff 	add.w	r8, r5, #4294967295
 8000588:	d216      	bcs.n	80005b8 <__udivmoddi4+0x2a8>
 800058a:	4291      	cmp	r1, r2
 800058c:	d914      	bls.n	80005b8 <__udivmoddi4+0x2a8>
 800058e:	3d02      	subs	r5, #2
 8000590:	4462      	add	r2, ip
 8000592:	1a52      	subs	r2, r2, r1
 8000594:	ea45 4100 	orr.w	r1, r5, r0, lsl #16
 8000598:	e738      	b.n	800040c <__udivmoddi4+0xfc>
 800059a:	4631      	mov	r1, r6
 800059c:	4630      	mov	r0, r6
 800059e:	e708      	b.n	80003b2 <__udivmoddi4+0xa2>
 80005a0:	4639      	mov	r1, r7
 80005a2:	e6e6      	b.n	8000372 <__udivmoddi4+0x62>
 80005a4:	4610      	mov	r0, r2
 80005a6:	e6fb      	b.n	80003a0 <__udivmoddi4+0x90>
 80005a8:	4548      	cmp	r0, r9
 80005aa:	d2a9      	bcs.n	8000500 <__udivmoddi4+0x1f0>
 80005ac:	ebb9 0802 	subs.w	r8, r9, r2
 80005b0:	eb65 0e0c 	sbc.w	lr, r5, ip
 80005b4:	3b01      	subs	r3, #1
 80005b6:	e7a3      	b.n	8000500 <__udivmoddi4+0x1f0>
 80005b8:	4645      	mov	r5, r8
 80005ba:	e7ea      	b.n	8000592 <__udivmoddi4+0x282>
 80005bc:	462b      	mov	r3, r5
 80005be:	e794      	b.n	80004ea <__udivmoddi4+0x1da>
 80005c0:	4640      	mov	r0, r8
 80005c2:	e7d1      	b.n	8000568 <__udivmoddi4+0x258>
 80005c4:	46d0      	mov	r8, sl
 80005c6:	e77b      	b.n	80004c0 <__udivmoddi4+0x1b0>
 80005c8:	3d02      	subs	r5, #2
 80005ca:	4462      	add	r2, ip
 80005cc:	e732      	b.n	8000434 <__udivmoddi4+0x124>
 80005ce:	4608      	mov	r0, r1
 80005d0:	e70a      	b.n	80003e8 <__udivmoddi4+0xd8>
 80005d2:	4464      	add	r4, ip
 80005d4:	3802      	subs	r0, #2
 80005d6:	e742      	b.n	800045e <__udivmoddi4+0x14e>

080005d8 <__aeabi_idiv0>:
 80005d8:	4770      	bx	lr
 80005da:	bf00      	nop

080005dc <setLEDStripesEffect>:
 80005dc:	2803      	cmp	r0, #3
 80005de:	d80d      	bhi.n	80005fc <setLEDStripesEffect+0x20>
 80005e0:	e8df f000 	tbb	[pc, r0]
 80005e4:	0f0d0602 	.word	0x0f0d0602
 80005e8:	2300      	movs	r3, #0
 80005ea:	700b      	strb	r3, [r1, #0]
 80005ec:	704b      	strb	r3, [r1, #1]
 80005ee:	e004      	b.n	80005fa <setLEDStripesEffect+0x1e>
 80005f0:	2340      	movs	r3, #64	; 0x40
 80005f2:	700b      	strb	r3, [r1, #0]
 80005f4:	2320      	movs	r3, #32
 80005f6:	704b      	strb	r3, [r1, #1]
 80005f8:	2300      	movs	r3, #0
 80005fa:	708b      	strb	r3, [r1, #2]
 80005fc:	4770      	bx	lr
 80005fe:	2340      	movs	r3, #64	; 0x40
 8000600:	e7f3      	b.n	80005ea <setLEDStripesEffect+0xe>
 8000602:	2300      	movs	r3, #0
 8000604:	700b      	strb	r3, [r1, #0]
 8000606:	704b      	strb	r3, [r1, #1]
 8000608:	2340      	movs	r3, #64	; 0x40
 800060a:	e7f6      	b.n	80005fa <setLEDStripesEffect+0x1e>
 800060c:	0000      	movs	r0, r0
	...

08000610 <setBLDCMotorSpeed>:
 8000610:	4b21      	ldr	r3, [pc, #132]	; (8000698 <setBLDCMotorSpeed+0x88>)
 8000612:	681b      	ldr	r3, [r3, #0]
 8000614:	3302      	adds	r3, #2
 8000616:	b510      	push	{r4, lr}
 8000618:	4c20      	ldr	r4, [pc, #128]	; (800069c <setBLDCMotorSpeed+0x8c>)
 800061a:	2b06      	cmp	r3, #6
 800061c:	d812      	bhi.n	8000644 <setBLDCMotorSpeed+0x34>
 800061e:	e8df f003 	tbb	[pc, r3]
 8000622:	0d04      	.short	0x0d04
 8000624:	312e2a0f 	.word	0x312e2a0f
 8000628:	33          	.byte	0x33
 8000629:	00          	.byte	0x00
 800062a:	f04f 537c 	mov.w	r3, #1056964608	; 0x3f000000
 800062e:	2201      	movs	r2, #1
 8000630:	6023      	str	r3, [r4, #0]
 8000632:	2110      	movs	r1, #16
 8000634:	481a      	ldr	r0, [pc, #104]	; (80006a0 <setBLDCMotorSpeed+0x90>)
 8000636:	f002 f97f 	bl	8002938 <HAL_GPIO_WritePin>
 800063a:	e003      	b.n	8000644 <setBLDCMotorSpeed+0x34>
 800063c:	4b19      	ldr	r3, [pc, #100]	; (80006a4 <setBLDCMotorSpeed+0x94>)
 800063e:	e7f6      	b.n	800062e <setBLDCMotorSpeed+0x1e>
 8000640:	2300      	movs	r3, #0
 8000642:	6023      	str	r3, [r4, #0]
 8000644:	ed94 7a00 	vldr	s14, [r4]
 8000648:	2200      	movs	r2, #0
 800064a:	eddf 7a17 	vldr	s15, [pc, #92]	; 80006a8 <setBLDCMotorSpeed+0x98>
 800064e:	4b17      	ldr	r3, [pc, #92]	; (80006ac <setBLDCMotorSpeed+0x9c>)
 8000650:	4611      	mov	r1, r2
 8000652:	ee27 7a27 	vmul.f32	s14, s14, s15
 8000656:	4816      	ldr	r0, [pc, #88]	; (80006b0 <setBLDCMotorSpeed+0xa0>)
 8000658:	ed9f 5b0d 	vldr	d5, [pc, #52]	; 8000690 <setBLDCMotorSpeed+0x80>
 800065c:	eeb7 7ac7 	vcvt.f64.f32	d7, s14
 8000660:	e8bd 4010 	ldmia.w	sp!, {r4, lr}
 8000664:	ee87 6b05 	vdiv.f64	d6, d7, d5
 8000668:	eebc 6bc6 	vcvt.u32.f64	s12, d6
 800066c:	ed83 6a00 	vstr	s12, [r3]
 8000670:	681b      	ldr	r3, [r3, #0]
 8000672:	f001 be36 	b.w	80022e2 <HAL_DAC_SetValue>
 8000676:	4b0b      	ldr	r3, [pc, #44]	; (80006a4 <setBLDCMotorSpeed+0x94>)
 8000678:	2200      	movs	r2, #0
 800067a:	6023      	str	r3, [r4, #0]
 800067c:	e7d9      	b.n	8000632 <setBLDCMotorSpeed+0x22>
 800067e:	f04f 537c 	mov.w	r3, #1056964608	; 0x3f000000
 8000682:	e7f9      	b.n	8000678 <setBLDCMotorSpeed+0x68>
 8000684:	4b0b      	ldr	r3, [pc, #44]	; (80006b4 <setBLDCMotorSpeed+0xa4>)
 8000686:	e7f7      	b.n	8000678 <setBLDCMotorSpeed+0x68>
 8000688:	4b0b      	ldr	r3, [pc, #44]	; (80006b8 <setBLDCMotorSpeed+0xa8>)
 800068a:	e7f5      	b.n	8000678 <setBLDCMotorSpeed+0x68>
 800068c:	f3af 8000 	nop.w
 8000690:	66666666 	.word	0x66666666
 8000694:	400a6666 	.word	0x400a6666
 8000698:	200000ec 	.word	0x200000ec
 800069c:	200000d8 	.word	0x200000d8
 80006a0:	40020400 	.word	0x40020400
 80006a4:	3ecccccd 	.word	0x3ecccccd
 80006a8:	45800000 	.word	0x45800000
 80006ac:	200000d4 	.word	0x200000d4
 80006b0:	20000100 	.word	0x20000100
 80006b4:	3f19999a 	.word	0x3f19999a
 80006b8:	3f333333 	.word	0x3f333333

080006bc <moveStepperMotor>:
 80006bc:	b510      	push	{r4, lr}
 80006be:	b978      	cbnz	r0, 80006e0 <moveStepperMotor+0x24>
 80006c0:	2201      	movs	r2, #1
 80006c2:	f44f 4100 	mov.w	r1, #32768	; 0x8000
 80006c6:	4807      	ldr	r0, [pc, #28]	; (80006e4 <moveStepperMotor+0x28>)
 80006c8:	f002 f936 	bl	8002938 <HAL_GPIO_WritePin>
 80006cc:	4c06      	ldr	r4, [pc, #24]	; (80006e8 <moveStepperMotor+0x2c>)
 80006ce:	f44f 73fa 	mov.w	r3, #500	; 0x1f4
 80006d2:	2023      	movs	r0, #35	; 0x23
 80006d4:	63e3      	str	r3, [r4, #60]	; 0x3c
 80006d6:	f004 fe4f 	bl	8005378 <osDelay>
 80006da:	2300      	movs	r3, #0
 80006dc:	63e3      	str	r3, [r4, #60]	; 0x3c
 80006de:	bd10      	pop	{r4, pc}
 80006e0:	2200      	movs	r2, #0
 80006e2:	e7ee      	b.n	80006c2 <moveStepperMotor+0x6>
 80006e4:	40020c00 	.word	0x40020c00
 80006e8:	40000800 	.word	0x40000800

080006ec <moveStepperMotorUntil>:
 80006ec:	b570      	push	{r4, r5, r6, lr}
 80006ee:	4c13      	ldr	r4, [pc, #76]	; (800073c <moveStepperMotorUntil+0x50>)
 80006f0:	4605      	mov	r5, r0
 80006f2:	6823      	ldr	r3, [r4, #0]
 80006f4:	4283      	cmp	r3, r0
 80006f6:	d007      	beq.n	8000708 <moveStepperMotorUntil+0x1c>
 80006f8:	6823      	ldr	r3, [r4, #0]
 80006fa:	4e11      	ldr	r6, [pc, #68]	; (8000740 <moveStepperMotorUntil+0x54>)
 80006fc:	4283      	cmp	r3, r0
 80006fe:	6823      	ldr	r3, [r4, #0]
 8000700:	dd18      	ble.n	8000734 <moveStepperMotorUntil+0x48>
 8000702:	6823      	ldr	r3, [r4, #0]
 8000704:	429d      	cmp	r5, r3
 8000706:	d100      	bne.n	800070a <moveStepperMotorUntil+0x1e>
 8000708:	bd70      	pop	{r4, r5, r6, pc}
 800070a:	2000      	movs	r0, #0
 800070c:	f7ff ffd6 	bl	80006bc <moveStepperMotor>
 8000710:	2032      	movs	r0, #50	; 0x32
 8000712:	f004 fe31 	bl	8005378 <osDelay>
 8000716:	6823      	ldr	r3, [r4, #0]
 8000718:	1e5a      	subs	r2, r3, #1
 800071a:	6022      	str	r2, [r4, #0]
 800071c:	6033      	str	r3, [r6, #0]
 800071e:	e7f0      	b.n	8000702 <moveStepperMotorUntil+0x16>
 8000720:	2001      	movs	r0, #1
 8000722:	f7ff ffcb 	bl	80006bc <moveStepperMotor>
 8000726:	2032      	movs	r0, #50	; 0x32
 8000728:	f004 fe26 	bl	8005378 <osDelay>
 800072c:	6823      	ldr	r3, [r4, #0]
 800072e:	1c5a      	adds	r2, r3, #1
 8000730:	6022      	str	r2, [r4, #0]
 8000732:	6033      	str	r3, [r6, #0]
 8000734:	6823      	ldr	r3, [r4, #0]
 8000736:	42ab      	cmp	r3, r5
 8000738:	d1f2      	bne.n	8000720 <moveStepperMotorUntil+0x34>
 800073a:	e7e5      	b.n	8000708 <moveStepperMotorUntil+0x1c>
 800073c:	200000f4 	.word	0x200000f4
 8000740:	200000f8 	.word	0x200000f8

08000744 <park>:
 8000744:	4b2f      	ldr	r3, [pc, #188]	; (8000804 <park+0xc0>)
 8000746:	4a30      	ldr	r2, [pc, #192]	; (8000808 <park+0xc4>)
 8000748:	6819      	ldr	r1, [r3, #0]
 800074a:	e92d 47f0 	stmdb	sp!, {r4, r5, r6, r7, r8, r9, sl, lr}
 800074e:	6011      	str	r1, [r2, #0]
 8000750:	2200      	movs	r2, #0
 8000752:	f8df 80d0 	ldr.w	r8, [pc, #208]	; 8000824 <park+0xe0>
 8000756:	2601      	movs	r6, #1
 8000758:	4682      	mov	sl, r0
 800075a:	4c2c      	ldr	r4, [pc, #176]	; (800080c <park+0xc8>)
 800075c:	4f2c      	ldr	r7, [pc, #176]	; (8000810 <park+0xcc>)
 800075e:	2503      	movs	r5, #3
 8000760:	f8df 90c4 	ldr.w	r9, [pc, #196]	; 8000828 <park+0xe4>
 8000764:	601a      	str	r2, [r3, #0]
 8000766:	f7ff ff53 	bl	8000610 <setBLDCMotorSpeed>
 800076a:	f8d8 0000 	ldr.w	r0, [r8]
 800076e:	703d      	strb	r5, [r7, #0]
 8000770:	f889 6000 	strb.w	r6, [r9]
 8000774:	7026      	strb	r6, [r4, #0]
 8000776:	f005 fc5d 	bl	8006034 <vTaskResume>
 800077a:	7026      	strb	r6, [r4, #0]
 800077c:	f1ba 0f00 	cmp.w	sl, #0
 8000780:	d137      	bne.n	80007f2 <park+0xae>
 8000782:	4b24      	ldr	r3, [pc, #144]	; (8000814 <park+0xd0>)
 8000784:	6818      	ldr	r0, [r3, #0]
 8000786:	f005 fc55 	bl	8006034 <vTaskResume>
 800078a:	f06f 0002 	mvn.w	r0, #2
 800078e:	4e22      	ldr	r6, [pc, #136]	; (8000818 <park+0xd4>)
 8000790:	2501      	movs	r5, #1
 8000792:	f7ff ffab 	bl	80006ec <moveStepperMotorUntil>
 8000796:	f8df a094 	ldr.w	sl, [pc, #148]	; 800082c <park+0xe8>
 800079a:	6830      	ldr	r0, [r6, #0]
 800079c:	7025      	strb	r5, [r4, #0]
 800079e:	f005 fc49 	bl	8006034 <vTaskResume>
 80007a2:	f44f 707a 	mov.w	r0, #1000	; 0x3e8
 80007a6:	f004 fde7 	bl	8005378 <osDelay>
 80007aa:	f8da 0000 	ldr.w	r0, [sl]
 80007ae:	7025      	strb	r5, [r4, #0]
 80007b0:	f005 fc40 	bl	8006034 <vTaskResume>
 80007b4:	2000      	movs	r0, #0
 80007b6:	f7ff ff99 	bl	80006ec <moveStepperMotorUntil>
 80007ba:	f8da 0000 	ldr.w	r0, [sl]
 80007be:	7025      	strb	r5, [r4, #0]
 80007c0:	f005 fc38 	bl	8006034 <vTaskResume>
 80007c4:	f44f 70fa 	mov.w	r0, #500	; 0x1f4
 80007c8:	f004 fdd6 	bl	8005378 <osDelay>
 80007cc:	6830      	ldr	r0, [r6, #0]
 80007ce:	7025      	strb	r5, [r4, #0]
 80007d0:	f005 fc30 	bl	8006034 <vTaskResume>
 80007d4:	4b11      	ldr	r3, [pc, #68]	; (800081c <park+0xd8>)
 80007d6:	781b      	ldrb	r3, [r3, #0]
 80007d8:	f003 02ff 	and.w	r2, r3, #255	; 0xff
 80007dc:	b17b      	cbz	r3, 80007fe <park+0xba>
 80007de:	703d      	strb	r5, [r7, #0]
 80007e0:	f889 5000 	strb.w	r5, [r9]
 80007e4:	f8d8 0000 	ldr.w	r0, [r8]
 80007e8:	7025      	strb	r5, [r4, #0]
 80007ea:	e8bd 47f0 	ldmia.w	sp!, {r4, r5, r6, r7, r8, r9, sl, lr}
 80007ee:	f005 bc21 	b.w	8006034 <vTaskResume>
 80007f2:	4b0b      	ldr	r3, [pc, #44]	; (8000820 <park+0xdc>)
 80007f4:	6818      	ldr	r0, [r3, #0]
 80007f6:	f005 fc1d 	bl	8006034 <vTaskResume>
 80007fa:	4628      	mov	r0, r5
 80007fc:	e7c7      	b.n	800078e <park+0x4a>
 80007fe:	703a      	strb	r2, [r7, #0]
 8000800:	e7ee      	b.n	80007e0 <park+0x9c>
 8000802:	bf00      	nop
 8000804:	200000ec 	.word	0x200000ec
 8000808:	200000f0 	.word	0x200000f0
 800080c:	200000e4 	.word	0x200000e4
 8000810:	200000fc 	.word	0x200000fc
 8000814:	20000134 	.word	0x20000134
 8000818:	20000124 	.word	0x20000124
 800081c:	200000e6 	.word	0x200000e6
 8000820:	20000148 	.word	0x20000148
 8000824:	20000130 	.word	0x20000130
 8000828:	200000ea 	.word	0x200000ea
 800082c:	20000114 	.word	0x20000114

08000830 <MX_DAC_Init>:
 8000830:	b513      	push	{r0, r1, r4, lr}
 8000832:	4b0b      	ldr	r3, [pc, #44]	; (8000860 <MX_DAC_Init+0x30>)
 8000834:	2400      	movs	r4, #0
 8000836:	480b      	ldr	r0, [pc, #44]	; (8000864 <MX_DAC_Init+0x34>)
 8000838:	e9cd 4400 	strd	r4, r4, [sp]
 800083c:	6003      	str	r3, [r0, #0]
 800083e:	f001 fd13 	bl	8002268 <HAL_DAC_Init>
 8000842:	b108      	cbz	r0, 8000848 <MX_DAC_Init+0x18>
 8000844:	f000 ff48 	bl	80016d8 <Error_Handler>
 8000848:	2200      	movs	r2, #0
 800084a:	4669      	mov	r1, sp
 800084c:	4805      	ldr	r0, [pc, #20]	; (8000864 <MX_DAC_Init+0x34>)
 800084e:	e9cd 4400 	strd	r4, r4, [sp]
 8000852:	f001 fd8b 	bl	800236c <HAL_DAC_ConfigChannel>
 8000856:	b108      	cbz	r0, 800085c <MX_DAC_Init+0x2c>
 8000858:	f000 ff3e 	bl	80016d8 <Error_Handler>
 800085c:	b002      	add	sp, #8
 800085e:	bd10      	pop	{r4, pc}
 8000860:	40007400 	.word	0x40007400
 8000864:	20000100 	.word	0x20000100

08000868 <HAL_DAC_MspInit>:
 8000868:	b510      	push	{r4, lr}
 800086a:	b088      	sub	sp, #32
 800086c:	4604      	mov	r4, r0
 800086e:	2214      	movs	r2, #20
 8000870:	2100      	movs	r1, #0
 8000872:	a803      	add	r0, sp, #12
 8000874:	f006 fdeb 	bl	800744e <memset>
 8000878:	6822      	ldr	r2, [r4, #0]
 800087a:	4b14      	ldr	r3, [pc, #80]	; (80008cc <HAL_DAC_MspInit+0x64>)
 800087c:	429a      	cmp	r2, r3
 800087e:	d123      	bne.n	80008c8 <HAL_DAC_MspInit+0x60>
 8000880:	f503 33e2 	add.w	r3, r3, #115712	; 0x1c400
 8000884:	a903      	add	r1, sp, #12
 8000886:	4812      	ldr	r0, [pc, #72]	; (80008d0 <HAL_DAC_MspInit+0x68>)
 8000888:	6c1a      	ldr	r2, [r3, #64]	; 0x40
 800088a:	f042 5200 	orr.w	r2, r2, #536870912	; 0x20000000
 800088e:	641a      	str	r2, [r3, #64]	; 0x40
 8000890:	6c1a      	ldr	r2, [r3, #64]	; 0x40
 8000892:	f002 5200 	and.w	r2, r2, #536870912	; 0x20000000
 8000896:	9201      	str	r2, [sp, #4]
 8000898:	9a01      	ldr	r2, [sp, #4]
 800089a:	6b1a      	ldr	r2, [r3, #48]	; 0x30
 800089c:	f042 0201 	orr.w	r2, r2, #1
 80008a0:	631a      	str	r2, [r3, #48]	; 0x30
 80008a2:	2210      	movs	r2, #16
 80008a4:	6b1b      	ldr	r3, [r3, #48]	; 0x30
 80008a6:	f003 0301 	and.w	r3, r3, #1
 80008aa:	9302      	str	r3, [sp, #8]
 80008ac:	9b02      	ldr	r3, [sp, #8]
 80008ae:	2303      	movs	r3, #3
 80008b0:	e9cd 2303 	strd	r2, r3, [sp, #12]
 80008b4:	f001 ff5e 	bl	8002774 <HAL_GPIO_Init>
 80008b8:	2036      	movs	r0, #54	; 0x36
 80008ba:	2200      	movs	r2, #0
 80008bc:	2105      	movs	r1, #5
 80008be:	f001 fc93 	bl	80021e8 <HAL_NVIC_SetPriority>
 80008c2:	2036      	movs	r0, #54	; 0x36
 80008c4:	f001 fcc2 	bl	800224c <HAL_NVIC_EnableIRQ>
 80008c8:	b008      	add	sp, #32
 80008ca:	bd10      	pop	{r4, pc}
 80008cc:	40007400 	.word	0x40007400
 80008d0:	40020000 	.word	0x40020000

080008d4 <MX_DMA_Init>:
 80008d4:	4b0a      	ldr	r3, [pc, #40]	; (8000900 <MX_DMA_Init+0x2c>)
 80008d6:	b507      	push	{r0, r1, r2, lr}
 80008d8:	6b1a      	ldr	r2, [r3, #48]	; 0x30
 80008da:	2105      	movs	r1, #5
 80008dc:	203b      	movs	r0, #59	; 0x3b
 80008de:	f442 0280 	orr.w	r2, r2, #4194304	; 0x400000
 80008e2:	631a      	str	r2, [r3, #48]	; 0x30
 80008e4:	2200      	movs	r2, #0
 80008e6:	6b1b      	ldr	r3, [r3, #48]	; 0x30
 80008e8:	f403 0380 	and.w	r3, r3, #4194304	; 0x400000
 80008ec:	9301      	str	r3, [sp, #4]
 80008ee:	9b01      	ldr	r3, [sp, #4]
 80008f0:	f001 fc7a 	bl	80021e8 <HAL_NVIC_SetPriority>
 80008f4:	203b      	movs	r0, #59	; 0x3b
 80008f6:	b003      	add	sp, #12
 80008f8:	f85d eb04 	ldr.w	lr, [sp], #4
 80008fc:	f001 bca6 	b.w	800224c <HAL_NVIC_EnableIRQ>
 8000900:	40023800 	.word	0x40023800

08000904 <StartOLEDTask>:
 8000904:	b5f8      	push	{r3, r4, r5, r6, r7, lr}
 8000906:	4928      	ldr	r1, [pc, #160]	; (80009a8 <StartOLEDTask+0xa4>)
 8000908:	4828      	ldr	r0, [pc, #160]	; (80009ac <StartOLEDTask+0xa8>)
 800090a:	f006 fda8 	bl	800745e <strcat>
 800090e:	4c28      	ldr	r4, [pc, #160]	; (80009b0 <StartOLEDTask+0xac>)
 8000910:	f001 f860 	bl	80019d4 <ssd1306_Init>
 8000914:	2000      	movs	r0, #0
 8000916:	f000 ff99 	bl	800184c <ssd1306_Fill>
 800091a:	2100      	movs	r1, #0
 800091c:	2002      	movs	r0, #2
 800091e:	4d25      	ldr	r5, [pc, #148]	; (80009b4 <StartOLEDTask+0xb0>)
 8000920:	f001 f838 	bl	8001994 <ssd1306_SetCursor>
 8000924:	2301      	movs	r3, #1
 8000926:	4824      	ldr	r0, [pc, #144]	; (80009b8 <StartOLEDTask+0xb4>)
 8000928:	4e24      	ldr	r6, [pc, #144]	; (80009bc <StartOLEDTask+0xb8>)
 800092a:	4f25      	ldr	r7, [pc, #148]	; (80009c0 <StartOLEDTask+0xbc>)
 800092c:	e894 0006 	ldmia.w	r4, {r1, r2}
 8000930:	f001 f81a 	bl	8001968 <ssd1306_WriteString>
 8000934:	211e      	movs	r1, #30
 8000936:	2002      	movs	r0, #2
 8000938:	f001 f82c 	bl	8001994 <ssd1306_SetCursor>
 800093c:	2301      	movs	r3, #1
 800093e:	481b      	ldr	r0, [pc, #108]	; (80009ac <StartOLEDTask+0xa8>)
 8000940:	e895 0006 	ldmia.w	r5, {r1, r2}
 8000944:	f001 f810 	bl	8001968 <ssd1306_WriteString>
 8000948:	f000 ff8c 	bl	8001864 <ssd1306_UpdateScreen>
 800094c:	f640 30b8 	movw	r0, #3000	; 0xbb8
 8000950:	f004 fd12 	bl	8005378 <osDelay>
 8000954:	2000      	movs	r0, #0
 8000956:	f000 ff79 	bl	800184c <ssd1306_Fill>
 800095a:	7833      	ldrb	r3, [r6, #0]
 800095c:	f003 01ff 	and.w	r1, r3, #255	; 0xff
 8000960:	b1cb      	cbz	r3, 8000996 <StartOLEDTask+0x92>
 8000962:	2100      	movs	r1, #0
 8000964:	2002      	movs	r0, #2
 8000966:	f001 f815 	bl	8001994 <ssd1306_SetCursor>
 800096a:	2301      	movs	r3, #1
 800096c:	4815      	ldr	r0, [pc, #84]	; (80009c4 <StartOLEDTask+0xc0>)
 800096e:	e894 0006 	ldmia.w	r4, {r1, r2}
 8000972:	f000 fff9 	bl	8001968 <ssd1306_WriteString>
 8000976:	211e      	movs	r1, #30
 8000978:	2002      	movs	r0, #2
 800097a:	f001 f80b 	bl	8001994 <ssd1306_SetCursor>
 800097e:	2301      	movs	r3, #1
 8000980:	4811      	ldr	r0, [pc, #68]	; (80009c8 <StartOLEDTask+0xc4>)
 8000982:	e895 0006 	ldmia.w	r5, {r1, r2}
 8000986:	f000 ffef 	bl	8001968 <ssd1306_WriteString>
 800098a:	f000 ff6b 	bl	8001864 <ssd1306_UpdateScreen>
 800098e:	2000      	movs	r0, #0
 8000990:	f005 fdc2 	bl	8006518 <vTaskSuspend>
 8000994:	e7de      	b.n	8000954 <StartOLEDTask+0x50>
 8000996:	2002      	movs	r0, #2
 8000998:	f000 fffc 	bl	8001994 <ssd1306_SetCursor>
 800099c:	2301      	movs	r3, #1
 800099e:	4638      	mov	r0, r7
 80009a0:	e894 0006 	ldmia.w	r4, {r1, r2}
 80009a4:	e7e5      	b.n	8000972 <StartOLEDTask+0x6e>
 80009a6:	bf00      	nop
 80009a8:	08008188 	.word	0x08008188
 80009ac:	2000000b 	.word	0x2000000b
 80009b0:	20000044 	.word	0x20000044
 80009b4:	2000003c 	.word	0x2000003c
 80009b8:	20000014 	.word	0x20000014
 80009bc:	200000e5 	.word	0x200000e5
 80009c0:	2000002c 	.word	0x2000002c
 80009c4:	20000022 	.word	0x20000022
 80009c8:	20000000 	.word	0x20000000

080009cc <StartDispatcherTask>:
 80009cc:	4d17      	ldr	r5, [pc, #92]	; (8000a2c <StartDispatcherTask+0x60>)
 80009ce:	4c18      	ldr	r4, [pc, #96]	; (8000a30 <StartDispatcherTask+0x64>)
 80009d0:	4e18      	ldr	r6, [pc, #96]	; (8000a34 <StartDispatcherTask+0x68>)
 80009d2:	b508      	push	{r3, lr}
 80009d4:	2000      	movs	r0, #0
 80009d6:	f005 fd9f 	bl	8006518 <vTaskSuspend>
 80009da:	782b      	ldrb	r3, [r5, #0]
 80009dc:	3b01      	subs	r3, #1
 80009de:	2b0d      	cmp	r3, #13
 80009e0:	d821      	bhi.n	8000a26 <StartDispatcherTask+0x5a>
 80009e2:	e8df f003 	tbb	[pc, r3]
 80009e6:	0c07      	.short	0x0c07
 80009e8:	1412100e 	.word	0x1412100e
 80009ec:	20202016 	.word	0x20202016
 80009f0:	1e1c1a18 	.word	0x1e1c1a18
 80009f4:	4b10      	ldr	r3, [pc, #64]	; (8000a38 <StartDispatcherTask+0x6c>)
 80009f6:	6818      	ldr	r0, [r3, #0]
 80009f8:	f005 fb1c 	bl	8006034 <vTaskResume>
 80009fc:	e7ea      	b.n	80009d4 <StartDispatcherTask+0x8>
 80009fe:	4b0f      	ldr	r3, [pc, #60]	; (8000a3c <StartDispatcherTask+0x70>)
 8000a00:	e7f9      	b.n	80009f6 <StartDispatcherTask+0x2a>
 8000a02:	4b0f      	ldr	r3, [pc, #60]	; (8000a40 <StartDispatcherTask+0x74>)
 8000a04:	e7f7      	b.n	80009f6 <StartDispatcherTask+0x2a>
 8000a06:	4b0f      	ldr	r3, [pc, #60]	; (8000a44 <StartDispatcherTask+0x78>)
 8000a08:	e7f5      	b.n	80009f6 <StartDispatcherTask+0x2a>
 8000a0a:	4b0f      	ldr	r3, [pc, #60]	; (8000a48 <StartDispatcherTask+0x7c>)
 8000a0c:	e7f3      	b.n	80009f6 <StartDispatcherTask+0x2a>
 8000a0e:	4b0f      	ldr	r3, [pc, #60]	; (8000a4c <StartDispatcherTask+0x80>)
 8000a10:	e7f1      	b.n	80009f6 <StartDispatcherTask+0x2a>
 8000a12:	4b0f      	ldr	r3, [pc, #60]	; (8000a50 <StartDispatcherTask+0x84>)
 8000a14:	e7ef      	b.n	80009f6 <StartDispatcherTask+0x2a>
 8000a16:	4b0f      	ldr	r3, [pc, #60]	; (8000a54 <StartDispatcherTask+0x88>)
 8000a18:	e7ed      	b.n	80009f6 <StartDispatcherTask+0x2a>
 8000a1a:	4b0f      	ldr	r3, [pc, #60]	; (8000a58 <StartDispatcherTask+0x8c>)
 8000a1c:	e7eb      	b.n	80009f6 <StartDispatcherTask+0x2a>
 8000a1e:	4b0f      	ldr	r3, [pc, #60]	; (8000a5c <StartDispatcherTask+0x90>)
 8000a20:	e7e9      	b.n	80009f6 <StartDispatcherTask+0x2a>
 8000a22:	6830      	ldr	r0, [r6, #0]
 8000a24:	e7e8      	b.n	80009f8 <StartDispatcherTask+0x2c>
 8000a26:	6820      	ldr	r0, [r4, #0]
 8000a28:	e7e6      	b.n	80009f8 <StartDispatcherTask+0x2c>
 8000a2a:	bf00      	nop
 8000a2c:	200000dc 	.word	0x200000dc
 8000a30:	2000011c 	.word	0x2000011c
 8000a34:	20000154 	.word	0x20000154
 8000a38:	2000014c 	.word	0x2000014c
 8000a3c:	2000012c 	.word	0x2000012c
 8000a40:	20000130 	.word	0x20000130
 8000a44:	20000134 	.word	0x20000134
 8000a48:	20000148 	.word	0x20000148
 8000a4c:	2000013c 	.word	0x2000013c
 8000a50:	20000140 	.word	0x20000140
 8000a54:	20000114 	.word	0x20000114
 8000a58:	20000124 	.word	0x20000124
 8000a5c:	20000150 	.word	0x20000150

08000a60 <StartResumeFromStopTask>:
 8000a60:	2600      	movs	r6, #0
 8000a62:	4c0d      	ldr	r4, [pc, #52]	; (8000a98 <StartResumeFromStopTask+0x38>)
 8000a64:	4d0d      	ldr	r5, [pc, #52]	; (8000a9c <StartResumeFromStopTask+0x3c>)
 8000a66:	b508      	push	{r3, lr}
 8000a68:	2000      	movs	r0, #0
 8000a6a:	f005 fd55 	bl	8006518 <vTaskSuspend>
 8000a6e:	7823      	ldrb	r3, [r4, #0]
 8000a70:	2b00      	cmp	r3, #0
 8000a72:	d0f9      	beq.n	8000a68 <StartResumeFromStopTask+0x8>
 8000a74:	7026      	strb	r6, [r4, #0]
 8000a76:	782a      	ldrb	r2, [r5, #0]
 8000a78:	4b09      	ldr	r3, [pc, #36]	; (8000aa0 <StartResumeFromStopTask+0x40>)
 8000a7a:	f002 01ff 	and.w	r1, r2, #255	; 0xff
 8000a7e:	b14a      	cbz	r2, 8000a94 <StartResumeFromStopTask+0x34>
 8000a80:	2201      	movs	r2, #1
 8000a82:	701a      	strb	r2, [r3, #0]
 8000a84:	4b07      	ldr	r3, [pc, #28]	; (8000aa4 <StartResumeFromStopTask+0x44>)
 8000a86:	2201      	movs	r2, #1
 8000a88:	701a      	strb	r2, [r3, #0]
 8000a8a:	4b07      	ldr	r3, [pc, #28]	; (8000aa8 <StartResumeFromStopTask+0x48>)
 8000a8c:	6818      	ldr	r0, [r3, #0]
 8000a8e:	f005 fad1 	bl	8006034 <vTaskResume>
 8000a92:	e7e9      	b.n	8000a68 <StartResumeFromStopTask+0x8>
 8000a94:	7019      	strb	r1, [r3, #0]
 8000a96:	e7f5      	b.n	8000a84 <StartResumeFromStopTask+0x24>
 8000a98:	200000e8 	.word	0x200000e8
 8000a9c:	200000e6 	.word	0x200000e6
 8000aa0:	200000fc 	.word	0x200000fc
 8000aa4:	200000ea 	.word	0x200000ea
 8000aa8:	20000130 	.word	0x20000130

08000aac <CallbackConnectionTaskTimer>:
 8000aac:	b508      	push	{r3, lr}
 8000aae:	4b06      	ldr	r3, [pc, #24]	; (8000ac8 <CallbackConnectionTaskTimer+0x1c>)
 8000ab0:	6818      	ldr	r0, [r3, #0]
 8000ab2:	f005 fabf 	bl	8006034 <vTaskResume>
 8000ab6:	4b05      	ldr	r3, [pc, #20]	; (8000acc <CallbackConnectionTaskTimer+0x20>)
 8000ab8:	2200      	movs	r2, #0
 8000aba:	701a      	strb	r2, [r3, #0]
 8000abc:	4b04      	ldr	r3, [pc, #16]	; (8000ad0 <CallbackConnectionTaskTimer+0x24>)
 8000abe:	6818      	ldr	r0, [r3, #0]
 8000ac0:	e8bd 4008 	ldmia.w	sp!, {r3, lr}
 8000ac4:	f005 bab6 	b.w	8006034 <vTaskResume>
 8000ac8:	2000014c 	.word	0x2000014c
 8000acc:	200000e5 	.word	0x200000e5
 8000ad0:	20000138 	.word	0x20000138

08000ad4 <StartStopTask>:
 8000ad4:	b580      	push	{r7, lr}
 8000ad6:	4e26      	ldr	r6, [pc, #152]	; (8000b70 <StartStopTask+0x9c>)
 8000ad8:	2700      	movs	r7, #0
 8000ada:	4c26      	ldr	r4, [pc, #152]	; (8000b74 <StartStopTask+0xa0>)
 8000adc:	4d26      	ldr	r5, [pc, #152]	; (8000b78 <StartStopTask+0xa4>)
 8000ade:	2000      	movs	r0, #0
 8000ae0:	f005 fd1a 	bl	8006518 <vTaskSuspend>
 8000ae4:	6830      	ldr	r0, [r6, #0]
 8000ae6:	f005 fd17 	bl	8006518 <vTaskSuspend>
 8000aea:	6828      	ldr	r0, [r5, #0]
 8000aec:	f005 fd14 	bl	8006518 <vTaskSuspend>
 8000af0:	4b22      	ldr	r3, [pc, #136]	; (8000b7c <StartStopTask+0xa8>)
 8000af2:	4a23      	ldr	r2, [pc, #140]	; (8000b80 <StartStopTask+0xac>)
 8000af4:	6819      	ldr	r1, [r3, #0]
 8000af6:	6011      	str	r1, [r2, #0]
 8000af8:	601f      	str	r7, [r3, #0]
 8000afa:	f7ff fd89 	bl	8000610 <setBLDCMotorSpeed>
 8000afe:	2301      	movs	r3, #1
 8000b00:	4a20      	ldr	r2, [pc, #128]	; (8000b84 <StartStopTask+0xb0>)
 8000b02:	2102      	movs	r1, #2
 8000b04:	7013      	strb	r3, [r2, #0]
 8000b06:	4a20      	ldr	r2, [pc, #128]	; (8000b88 <StartStopTask+0xb4>)
 8000b08:	7011      	strb	r1, [r2, #0]
 8000b0a:	4a20      	ldr	r2, [pc, #128]	; (8000b8c <StartStopTask+0xb8>)
 8000b0c:	7013      	strb	r3, [r2, #0]
 8000b0e:	4a20      	ldr	r2, [pc, #128]	; (8000b90 <StartStopTask+0xbc>)
 8000b10:	7013      	strb	r3, [r2, #0]
 8000b12:	4b20      	ldr	r3, [pc, #128]	; (8000b94 <StartStopTask+0xc0>)
 8000b14:	6818      	ldr	r0, [r3, #0]
 8000b16:	f005 fa8d 	bl	8006034 <vTaskResume>
 8000b1a:	2000      	movs	r0, #0
 8000b1c:	f7ff fde6 	bl	80006ec <moveStepperMotorUntil>
 8000b20:	4b1d      	ldr	r3, [pc, #116]	; (8000b98 <StartStopTask+0xc4>)
 8000b22:	6830      	ldr	r0, [r6, #0]
 8000b24:	701f      	strb	r7, [r3, #0]
 8000b26:	f005 fa2b 	bl	8005f80 <vTaskDelete>
 8000b2a:	6828      	ldr	r0, [r5, #0]
 8000b2c:	f005 fa28 	bl	8005f80 <vTaskDelete>
 8000b30:	4a1a      	ldr	r2, [pc, #104]	; (8000b9c <StartStopTask+0xc8>)
 8000b32:	2100      	movs	r1, #0
 8000b34:	481a      	ldr	r0, [pc, #104]	; (8000ba0 <StartStopTask+0xcc>)
 8000b36:	f004 fbcb 	bl	80052d0 <osThreadNew>
 8000b3a:	4a1a      	ldr	r2, [pc, #104]	; (8000ba4 <StartStopTask+0xd0>)
 8000b3c:	6030      	str	r0, [r6, #0]
 8000b3e:	2100      	movs	r1, #0
 8000b40:	4819      	ldr	r0, [pc, #100]	; (8000ba8 <StartStopTask+0xd4>)
 8000b42:	f004 fbc5 	bl	80052d0 <osThreadNew>
 8000b46:	2200      	movs	r2, #0
 8000b48:	6028      	str	r0, [r5, #0]
 8000b4a:	f44f 7180 	mov.w	r1, #256	; 0x100
 8000b4e:	4620      	mov	r0, r4
 8000b50:	f001 fef2 	bl	8002938 <HAL_GPIO_WritePin>
 8000b54:	4620      	mov	r0, r4
 8000b56:	2200      	movs	r2, #0
 8000b58:	f44f 6100 	mov.w	r1, #2048	; 0x800
 8000b5c:	f001 feec 	bl	8002938 <HAL_GPIO_WritePin>
 8000b60:	2200      	movs	r2, #0
 8000b62:	f44f 5180 	mov.w	r1, #4096	; 0x1000
 8000b66:	4620      	mov	r0, r4
 8000b68:	f001 fee6 	bl	8002938 <HAL_GPIO_WritePin>
 8000b6c:	e7b6      	b.n	8000adc <StartStopTask+0x8>
 8000b6e:	bf00      	nop
 8000b70:	2000013c 	.word	0x2000013c
 8000b74:	40020800 	.word	0x40020800
 8000b78:	20000140 	.word	0x20000140
 8000b7c:	200000ec 	.word	0x200000ec
 8000b80:	200000f0 	.word	0x200000f0
 8000b84:	200000e8 	.word	0x200000e8
 8000b88:	200000fc 	.word	0x200000fc
 8000b8c:	200000ea 	.word	0x200000ea
 8000b90:	200000e4 	.word	0x200000e4
 8000b94:	20000130 	.word	0x20000130
 8000b98:	200000e7 	.word	0x200000e7
 8000b9c:	08008408 	.word	0x08008408
 8000ba0:	08000e4d 	.word	0x08000e4d
 8000ba4:	0800842c 	.word	0x0800842c
 8000ba8:	08000e89 	.word	0x08000e89

08000bac <StartWithdrawLightsTask>:
 8000bac:	4d08      	ldr	r5, [pc, #32]	; (8000bd0 <StartWithdrawLightsTask+0x24>)
 8000bae:	4c09      	ldr	r4, [pc, #36]	; (8000bd4 <StartWithdrawLightsTask+0x28>)
 8000bb0:	b508      	push	{r3, lr}
 8000bb2:	2000      	movs	r0, #0
 8000bb4:	f005 fcb0 	bl	8006518 <vTaskSuspend>
 8000bb8:	782b      	ldrb	r3, [r5, #0]
 8000bba:	f003 02ff 	and.w	r2, r3, #255	; 0xff
 8000bbe:	b103      	cbz	r3, 8000bc2 <StartWithdrawLightsTask+0x16>
 8000bc0:	2201      	movs	r2, #1
 8000bc2:	f44f 5180 	mov.w	r1, #4096	; 0x1000
 8000bc6:	4620      	mov	r0, r4
 8000bc8:	f001 feb6 	bl	8002938 <HAL_GPIO_WritePin>
 8000bcc:	e7f1      	b.n	8000bb2 <StartWithdrawLightsTask+0x6>
 8000bce:	bf00      	nop
 8000bd0:	200000e9 	.word	0x200000e9
 8000bd4:	40020800 	.word	0x40020800

08000bd8 <StartDrivingLightsTask>:
 8000bd8:	4e0d      	ldr	r6, [pc, #52]	; (8000c10 <StartDrivingLightsTask+0x38>)
 8000bda:	4c0e      	ldr	r4, [pc, #56]	; (8000c14 <StartDrivingLightsTask+0x3c>)
 8000bdc:	4d0e      	ldr	r5, [pc, #56]	; (8000c18 <StartDrivingLightsTask+0x40>)
 8000bde:	b508      	push	{r3, lr}
 8000be0:	2000      	movs	r0, #0
 8000be2:	f005 fc99 	bl	8006518 <vTaskSuspend>
 8000be6:	7833      	ldrb	r3, [r6, #0]
 8000be8:	b113      	cbz	r3, 8000bf0 <StartDrivingLightsTask+0x18>
 8000bea:	7823      	ldrb	r3, [r4, #0]
 8000bec:	2b00      	cmp	r3, #0
 8000bee:	d0f7      	beq.n	8000be0 <StartDrivingLightsTask+0x8>
 8000bf0:	2300      	movs	r3, #0
 8000bf2:	7023      	strb	r3, [r4, #0]
 8000bf4:	4b09      	ldr	r3, [pc, #36]	; (8000c1c <StartDrivingLightsTask+0x44>)
 8000bf6:	781b      	ldrb	r3, [r3, #0]
 8000bf8:	b11b      	cbz	r3, 8000c02 <StartDrivingLightsTask+0x2a>
 8000bfa:	4b09      	ldr	r3, [pc, #36]	; (8000c20 <StartDrivingLightsTask+0x48>)
 8000bfc:	6818      	ldr	r0, [r3, #0]
 8000bfe:	f005 fa19 	bl	8006034 <vTaskResume>
 8000c02:	f44f 7180 	mov.w	r1, #256	; 0x100
 8000c06:	4628      	mov	r0, r5
 8000c08:	f001 fe9b 	bl	8002942 <HAL_GPIO_TogglePin>
 8000c0c:	e7e8      	b.n	8000be0 <StartDrivingLightsTask+0x8>
 8000c0e:	bf00      	nop
 8000c10:	200000e7 	.word	0x200000e7
 8000c14:	200000e4 	.word	0x200000e4
 8000c18:	40020800 	.word	0x40020800
 8000c1c:	200000e8 	.word	0x200000e8
 8000c20:	20000144 	.word	0x20000144

08000c24 <StartLeftBlinkersTask>:
 8000c24:	b5f8      	push	{r3, r4, r5, r6, r7, lr}
 8000c26:	4e10      	ldr	r6, [pc, #64]	; (8000c68 <StartLeftBlinkersTask+0x44>)
 8000c28:	4d10      	ldr	r5, [pc, #64]	; (8000c6c <StartLeftBlinkersTask+0x48>)
 8000c2a:	4f11      	ldr	r7, [pc, #68]	; (8000c70 <StartLeftBlinkersTask+0x4c>)
 8000c2c:	2000      	movs	r0, #0
 8000c2e:	f005 fc73 	bl	8006518 <vTaskSuspend>
 8000c32:	7833      	ldrb	r3, [r6, #0]
 8000c34:	b113      	cbz	r3, 8000c3c <StartLeftBlinkersTask+0x18>
 8000c36:	782b      	ldrb	r3, [r5, #0]
 8000c38:	2b00      	cmp	r3, #0
 8000c3a:	d0f7      	beq.n	8000c2c <StartLeftBlinkersTask+0x8>
 8000c3c:	2300      	movs	r3, #0
 8000c3e:	702b      	strb	r3, [r5, #0]
 8000c40:	4b0c      	ldr	r3, [pc, #48]	; (8000c74 <StartLeftBlinkersTask+0x50>)
 8000c42:	781b      	ldrb	r3, [r3, #0]
 8000c44:	b11b      	cbz	r3, 8000c4e <StartLeftBlinkersTask+0x2a>
 8000c46:	4b0c      	ldr	r3, [pc, #48]	; (8000c78 <StartLeftBlinkersTask+0x54>)
 8000c48:	6818      	ldr	r0, [r3, #0]
 8000c4a:	f005 f9f3 	bl	8006034 <vTaskResume>
 8000c4e:	2406      	movs	r4, #6
 8000c50:	f44f 7100 	mov.w	r1, #512	; 0x200
 8000c54:	4638      	mov	r0, r7
 8000c56:	f001 fe74 	bl	8002942 <HAL_GPIO_TogglePin>
 8000c5a:	f44f 70c8 	mov.w	r0, #400	; 0x190
 8000c5e:	f004 fb8b 	bl	8005378 <osDelay>
 8000c62:	3c01      	subs	r4, #1
 8000c64:	d1f4      	bne.n	8000c50 <StartLeftBlinkersTask+0x2c>
 8000c66:	e7e1      	b.n	8000c2c <StartLeftBlinkersTask+0x8>
 8000c68:	200000e7 	.word	0x200000e7
 8000c6c:	200000e4 	.word	0x200000e4
 8000c70:	40020800 	.word	0x40020800
 8000c74:	200000e8 	.word	0x200000e8
 8000c78:	20000144 	.word	0x20000144

08000c7c <StartRightBlinkersTask>:
 8000c7c:	b5f8      	push	{r3, r4, r5, r6, r7, lr}
 8000c7e:	4e10      	ldr	r6, [pc, #64]	; (8000cc0 <StartRightBlinkersTask+0x44>)
 8000c80:	4d10      	ldr	r5, [pc, #64]	; (8000cc4 <StartRightBlinkersTask+0x48>)
 8000c82:	4f11      	ldr	r7, [pc, #68]	; (8000cc8 <StartRightBlinkersTask+0x4c>)
 8000c84:	2000      	movs	r0, #0
 8000c86:	f005 fc47 	bl	8006518 <vTaskSuspend>
 8000c8a:	7833      	ldrb	r3, [r6, #0]
 8000c8c:	b113      	cbz	r3, 8000c94 <StartRightBlinkersTask+0x18>
 8000c8e:	782b      	ldrb	r3, [r5, #0]
 8000c90:	2b00      	cmp	r3, #0
 8000c92:	d0f7      	beq.n	8000c84 <StartRightBlinkersTask+0x8>
 8000c94:	2300      	movs	r3, #0
 8000c96:	702b      	strb	r3, [r5, #0]
 8000c98:	4b0c      	ldr	r3, [pc, #48]	; (8000ccc <StartRightBlinkersTask+0x50>)
 8000c9a:	781b      	ldrb	r3, [r3, #0]
 8000c9c:	b11b      	cbz	r3, 8000ca6 <StartRightBlinkersTask+0x2a>
 8000c9e:	4b0c      	ldr	r3, [pc, #48]	; (8000cd0 <StartRightBlinkersTask+0x54>)
 8000ca0:	6818      	ldr	r0, [r3, #0]
 8000ca2:	f005 f9c7 	bl	8006034 <vTaskResume>
 8000ca6:	2406      	movs	r4, #6
 8000ca8:	f44f 6180 	mov.w	r1, #1024	; 0x400
 8000cac:	4638      	mov	r0, r7
 8000cae:	f001 fe48 	bl	8002942 <HAL_GPIO_TogglePin>
 8000cb2:	f44f 70c8 	mov.w	r0, #400	; 0x190
 8000cb6:	f004 fb5f 	bl	8005378 <osDelay>
 8000cba:	3c01      	subs	r4, #1
 8000cbc:	d1f4      	bne.n	8000ca8 <StartRightBlinkersTask+0x2c>
 8000cbe:	e7e1      	b.n	8000c84 <StartRightBlinkersTask+0x8>
 8000cc0:	200000e7 	.word	0x200000e7
 8000cc4:	200000e4 	.word	0x200000e4
 8000cc8:	40020800 	.word	0x40020800
 8000ccc:	200000e8 	.word	0x200000e8
 8000cd0:	20000144 	.word	0x20000144

08000cd4 <StartBrakeLightsTask>:
 8000cd4:	4c09      	ldr	r4, [pc, #36]	; (8000cfc <StartBrakeLightsTask+0x28>)
 8000cd6:	b508      	push	{r3, lr}
 8000cd8:	2000      	movs	r0, #0
 8000cda:	f005 fc1d 	bl	8006518 <vTaskSuspend>
 8000cde:	f44f 6100 	mov.w	r1, #2048	; 0x800
 8000ce2:	4620      	mov	r0, r4
 8000ce4:	f001 fe2d 	bl	8002942 <HAL_GPIO_TogglePin>
 8000ce8:	f44f 70fa 	mov.w	r0, #500	; 0x1f4
 8000cec:	f004 fb44 	bl	8005378 <osDelay>
 8000cf0:	f44f 6100 	mov.w	r1, #2048	; 0x800
 8000cf4:	4620      	mov	r0, r4
 8000cf6:	f001 fe24 	bl	8002942 <HAL_GPIO_TogglePin>
 8000cfa:	e7ed      	b.n	8000cd8 <StartBrakeLightsTask+0x4>
 8000cfc:	40020800 	.word	0x40020800

08000d00 <StartLEDStripesTask>:
 8000d00:	e92d 47f0 	stmdb	sp!, {r4, r5, r6, r7, r8, r9, sl, lr}
 8000d04:	b090      	sub	sp, #64	; 0x40
 8000d06:	2204      	movs	r2, #4
 8000d08:	2400      	movs	r4, #0
 8000d0a:	4e47      	ldr	r6, [pc, #284]	; (8000e28 <StartLEDStripesTask+0x128>)
 8000d0c:	af00      	add	r7, sp, #0
 8000d0e:	2364      	movs	r3, #100	; 0x64
 8000d10:	4846      	ldr	r0, [pc, #280]	; (8000e2c <StartLEDStripesTask+0x12c>)
 8000d12:	18b9      	adds	r1, r7, r2
 8000d14:	7034      	strb	r4, [r6, #0]
 8000d16:	607c      	str	r4, [r7, #4]
 8000d18:	f002 ffc6 	bl	8003ca8 <HAL_SPI_Transmit>
 8000d1c:	2201      	movs	r2, #1
 8000d1e:	2304      	movs	r3, #4
 8000d20:	f107 0508 	add.w	r5, r7, #8
 8000d24:	7830      	ldrb	r0, [r6, #0]
 8000d26:	4639      	mov	r1, r7
 8000d28:	f887 4024 	strb.w	r4, [r7, #36]	; 0x24
 8000d2c:	e9c7 230a 	strd	r2, r3, [r7, #40]	; 0x28
 8000d30:	4b3f      	ldr	r3, [pc, #252]	; (8000e30 <StartLEDStripesTask+0x130>)
 8000d32:	623b      	str	r3, [r7, #32]
 8000d34:	f7ff fc52 	bl	80005dc <setLEDStripesEffect>
 8000d38:	7838      	ldrb	r0, [r7, #0]
 8000d3a:	462b      	mov	r3, r5
 8000d3c:	7879      	ldrb	r1, [r7, #1]
 8000d3e:	78ba      	ldrb	r2, [r7, #2]
 8000d40:	3401      	adds	r4, #1
 8000d42:	7018      	strb	r0, [r3, #0]
 8000d44:	7059      	strb	r1, [r3, #1]
 8000d46:	3303      	adds	r3, #3
 8000d48:	2c07      	cmp	r4, #7
 8000d4a:	f803 2c01 	strb.w	r2, [r3, #-1]
 8000d4e:	d1f7      	bne.n	8000d40 <StartLEDStripesTask+0x40>
 8000d50:	f107 0020 	add.w	r0, r7, #32
 8000d54:	e9c7 450c 	strd	r4, r5, [r7, #48]	; 0x30
 8000d58:	f001 f8c8 	bl	8001eec <ws2812b_init>
 8000d5c:	b128      	cbz	r0, 8000d6a <StartLEDStripesTask+0x6a>
 8000d5e:	4b35      	ldr	r3, [pc, #212]	; (8000e34 <StartLEDStripesTask+0x134>)
 8000d60:	4835      	ldr	r0, [pc, #212]	; (8000e38 <StartLEDStripesTask+0x138>)
 8000d62:	6819      	ldr	r1, [r3, #0]
 8000d64:	f006 fb1e 	bl	80073a4 <iprintf>
 8000d68:	e7fe      	b.n	8000d68 <StartLEDStripesTask+0x68>
 8000d6a:	f107 0020 	add.w	r0, r7, #32
 8000d6e:	f8df a0d4 	ldr.w	sl, [pc, #212]	; 8000e44 <StartLEDStripesTask+0x144>
 8000d72:	f001 f98d 	bl	8002090 <ws2812b_required_buffer_len>
 8000d76:	3007      	adds	r0, #7
 8000d78:	f8df 90cc 	ldr.w	r9, [pc, #204]	; 8000e48 <StartLEDStripesTask+0x148>
 8000d7c:	f020 0007 	bic.w	r0, r0, #7
 8000d80:	ebad 0d00 	sub.w	sp, sp, r0
 8000d84:	f107 0020 	add.w	r0, r7, #32
 8000d88:	4669      	mov	r1, sp
 8000d8a:	46e8      	mov	r8, sp
 8000d8c:	f001 f98c 	bl	80020a8 <ws2812b_fill_buffer>
 8000d90:	f107 0020 	add.w	r0, r7, #32
 8000d94:	f001 f97c 	bl	8002090 <ws2812b_required_buffer_len>
 8000d98:	4669      	mov	r1, sp
 8000d9a:	b282      	uxth	r2, r0
 8000d9c:	4823      	ldr	r0, [pc, #140]	; (8000e2c <StartLEDStripesTask+0x12c>)
 8000d9e:	f003 f847 	bl	8003e30 <HAL_SPI_Transmit_DMA>
 8000da2:	200a      	movs	r0, #10
 8000da4:	f001 f9fc 	bl	80021a0 <HAL_Delay>
 8000da8:	2000      	movs	r0, #0
 8000daa:	f005 fbb5 	bl	8006518 <vTaskSuspend>
 8000dae:	f89a 2000 	ldrb.w	r2, [sl]
 8000db2:	4b22      	ldr	r3, [pc, #136]	; (8000e3c <StartLEDStripesTask+0x13c>)
 8000db4:	b112      	cbz	r2, 8000dbc <StartLEDStripesTask+0xbc>
 8000db6:	781a      	ldrb	r2, [r3, #0]
 8000db8:	2a00      	cmp	r2, #0
 8000dba:	d0f5      	beq.n	8000da8 <StartLEDStripesTask+0xa8>
 8000dbc:	2200      	movs	r2, #0
 8000dbe:	701a      	strb	r2, [r3, #0]
 8000dc0:	f899 3000 	ldrb.w	r3, [r9]
 8000dc4:	f003 02ff 	and.w	r2, r3, #255	; 0xff
 8000dc8:	b92b      	cbnz	r3, 8000dd6 <StartLEDStripesTask+0xd6>
 8000dca:	4b1d      	ldr	r3, [pc, #116]	; (8000e40 <StartLEDStripesTask+0x140>)
 8000dcc:	7819      	ldrb	r1, [r3, #0]
 8000dce:	b901      	cbnz	r1, 8000dd2 <StartLEDStripesTask+0xd2>
 8000dd0:	2201      	movs	r2, #1
 8000dd2:	701a      	strb	r2, [r3, #0]
 8000dd4:	7032      	strb	r2, [r6, #0]
 8000dd6:	2400      	movs	r4, #0
 8000dd8:	4639      	mov	r1, r7
 8000dda:	f889 4000 	strb.w	r4, [r9]
 8000dde:	7830      	ldrb	r0, [r6, #0]
 8000de0:	f7ff fbfc 	bl	80005dc <setLEDStripesEffect>
 8000de4:	f897 c000 	ldrb.w	ip, [r7]
 8000de8:	7878      	ldrb	r0, [r7, #1]
 8000dea:	462a      	mov	r2, r5
 8000dec:	78b9      	ldrb	r1, [r7, #2]
 8000dee:	4623      	mov	r3, r4
 8000df0:	3301      	adds	r3, #1
 8000df2:	f882 c000 	strb.w	ip, [r2]
 8000df6:	7050      	strb	r0, [r2, #1]
 8000df8:	3203      	adds	r2, #3
 8000dfa:	2b07      	cmp	r3, #7
 8000dfc:	f802 1c01 	strb.w	r1, [r2, #-1]
 8000e00:	d1f6      	bne.n	8000df0 <StartLEDStripesTask+0xf0>
 8000e02:	4641      	mov	r1, r8
 8000e04:	f107 0020 	add.w	r0, r7, #32
 8000e08:	637d      	str	r5, [r7, #52]	; 0x34
 8000e0a:	f001 f94d 	bl	80020a8 <ws2812b_fill_buffer>
 8000e0e:	f107 0020 	add.w	r0, r7, #32
 8000e12:	f001 f93d 	bl	8002090 <ws2812b_required_buffer_len>
 8000e16:	4641      	mov	r1, r8
 8000e18:	b282      	uxth	r2, r0
 8000e1a:	4804      	ldr	r0, [pc, #16]	; (8000e2c <StartLEDStripesTask+0x12c>)
 8000e1c:	f003 f808 	bl	8003e30 <HAL_SPI_Transmit_DMA>
 8000e20:	200a      	movs	r0, #10
 8000e22:	f001 f9bd 	bl	80021a0 <HAL_Delay>
 8000e26:	e7bf      	b.n	8000da8 <StartLEDStripesTask+0xa8>
 8000e28:	200000fc 	.word	0x200000fc
 8000e2c:	20000210 	.word	0x20000210
 8000e30:	013f0301 	.word	0x013f0301
 8000e34:	200007dc 	.word	0x200007dc
 8000e38:	0800818c 	.word	0x0800818c
 8000e3c:	200000e4 	.word	0x200000e4
 8000e40:	200000e6 	.word	0x200000e6
 8000e44:	200000e7 	.word	0x200000e7
 8000e48:	200000ea 	.word	0x200000ea

08000e4c <StartParkLeftTask>:
 8000e4c:	2500      	movs	r5, #0
 8000e4e:	4c0b      	ldr	r4, [pc, #44]	; (8000e7c <StartParkLeftTask+0x30>)
 8000e50:	b508      	push	{r3, lr}
 8000e52:	2000      	movs	r0, #0
 8000e54:	f005 fb60 	bl	8006518 <vTaskSuspend>
 8000e58:	7823      	ldrb	r3, [r4, #0]
 8000e5a:	2b00      	cmp	r3, #0
 8000e5c:	d1f9      	bne.n	8000e52 <StartParkLeftTask+0x6>
 8000e5e:	4b08      	ldr	r3, [pc, #32]	; (8000e80 <StartParkLeftTask+0x34>)
 8000e60:	781b      	ldrb	r3, [r3, #0]
 8000e62:	b11b      	cbz	r3, 8000e6c <StartParkLeftTask+0x20>
 8000e64:	4b07      	ldr	r3, [pc, #28]	; (8000e84 <StartParkLeftTask+0x38>)
 8000e66:	6818      	ldr	r0, [r3, #0]
 8000e68:	f005 f8e4 	bl	8006034 <vTaskResume>
 8000e6c:	2301      	movs	r3, #1
 8000e6e:	2000      	movs	r0, #0
 8000e70:	7023      	strb	r3, [r4, #0]
 8000e72:	f7ff fc67 	bl	8000744 <park>
 8000e76:	7025      	strb	r5, [r4, #0]
 8000e78:	e7eb      	b.n	8000e52 <StartParkLeftTask+0x6>
 8000e7a:	bf00      	nop
 8000e7c:	200000e7 	.word	0x200000e7
 8000e80:	200000e8 	.word	0x200000e8
 8000e84:	20000144 	.word	0x20000144

08000e88 <StartParkRightTask>:
 8000e88:	2500      	movs	r5, #0
 8000e8a:	4c0a      	ldr	r4, [pc, #40]	; (8000eb4 <StartParkRightTask+0x2c>)
 8000e8c:	b508      	push	{r3, lr}
 8000e8e:	2000      	movs	r0, #0
 8000e90:	f005 fb42 	bl	8006518 <vTaskSuspend>
 8000e94:	7823      	ldrb	r3, [r4, #0]
 8000e96:	2b00      	cmp	r3, #0
 8000e98:	d1f9      	bne.n	8000e8e <StartParkRightTask+0x6>
 8000e9a:	4b07      	ldr	r3, [pc, #28]	; (8000eb8 <StartParkRightTask+0x30>)
 8000e9c:	781b      	ldrb	r3, [r3, #0]
 8000e9e:	b11b      	cbz	r3, 8000ea8 <StartParkRightTask+0x20>
 8000ea0:	4b06      	ldr	r3, [pc, #24]	; (8000ebc <StartParkRightTask+0x34>)
 8000ea2:	6818      	ldr	r0, [r3, #0]
 8000ea4:	f005 f8c6 	bl	8006034 <vTaskResume>
 8000ea8:	2001      	movs	r0, #1
 8000eaa:	7020      	strb	r0, [r4, #0]
 8000eac:	f7ff fc4a 	bl	8000744 <park>
 8000eb0:	7025      	strb	r5, [r4, #0]
 8000eb2:	e7ec      	b.n	8000e8e <StartParkRightTask+0x6>
 8000eb4:	200000e7 	.word	0x200000e7
 8000eb8:	200000e8 	.word	0x200000e8
 8000ebc:	20000144 	.word	0x20000144

08000ec0 <StartAccelerateTask>:
 8000ec0:	b508      	push	{r3, lr}
 8000ec2:	2300      	movs	r3, #0
 8000ec4:	4d17      	ldr	r5, [pc, #92]	; (8000f24 <StartAccelerateTask+0x64>)
 8000ec6:	4c18      	ldr	r4, [pc, #96]	; (8000f28 <StartAccelerateTask+0x68>)
 8000ec8:	461a      	mov	r2, r3
 8000eca:	4619      	mov	r1, r3
 8000ecc:	4817      	ldr	r0, [pc, #92]	; (8000f2c <StartAccelerateTask+0x6c>)
 8000ece:	f001 fa08 	bl	80022e2 <HAL_DAC_SetValue>
 8000ed2:	2000      	movs	r0, #0
 8000ed4:	f005 fb20 	bl	8006518 <vTaskSuspend>
 8000ed8:	782a      	ldrb	r2, [r5, #0]
 8000eda:	4b15      	ldr	r3, [pc, #84]	; (8000f30 <StartAccelerateTask+0x70>)
 8000edc:	b112      	cbz	r2, 8000ee4 <StartAccelerateTask+0x24>
 8000ede:	781a      	ldrb	r2, [r3, #0]
 8000ee0:	2a00      	cmp	r2, #0
 8000ee2:	d0f6      	beq.n	8000ed2 <StartAccelerateTask+0x12>
 8000ee4:	2200      	movs	r2, #0
 8000ee6:	701a      	strb	r2, [r3, #0]
 8000ee8:	4b12      	ldr	r3, [pc, #72]	; (8000f34 <StartAccelerateTask+0x74>)
 8000eea:	781b      	ldrb	r3, [r3, #0]
 8000eec:	b11b      	cbz	r3, 8000ef6 <StartAccelerateTask+0x36>
 8000eee:	4b12      	ldr	r3, [pc, #72]	; (8000f38 <StartAccelerateTask+0x78>)
 8000ef0:	6818      	ldr	r0, [r3, #0]
 8000ef2:	f005 f89f 	bl	8006034 <vTaskResume>
 8000ef6:	6823      	ldr	r3, [r4, #0]
 8000ef8:	2b03      	cmp	r3, #3
 8000efa:	dc05      	bgt.n	8000f08 <StartAccelerateTask+0x48>
 8000efc:	6822      	ldr	r2, [r4, #0]
 8000efe:	4b0f      	ldr	r3, [pc, #60]	; (8000f3c <StartAccelerateTask+0x7c>)
 8000f00:	601a      	str	r2, [r3, #0]
 8000f02:	6823      	ldr	r3, [r4, #0]
 8000f04:	3301      	adds	r3, #1
 8000f06:	6023      	str	r3, [r4, #0]
 8000f08:	f7ff fb82 	bl	8000610 <setBLDCMotorSpeed>
 8000f0c:	6823      	ldr	r3, [r4, #0]
 8000f0e:	2b00      	cmp	r3, #0
 8000f10:	dbdf      	blt.n	8000ed2 <StartAccelerateTask+0x12>
 8000f12:	4b0b      	ldr	r3, [pc, #44]	; (8000f40 <StartAccelerateTask+0x80>)
 8000f14:	2200      	movs	r2, #0
 8000f16:	701a      	strb	r2, [r3, #0]
 8000f18:	4b0a      	ldr	r3, [pc, #40]	; (8000f44 <StartAccelerateTask+0x84>)
 8000f1a:	6818      	ldr	r0, [r3, #0]
 8000f1c:	f005 f88a 	bl	8006034 <vTaskResume>
 8000f20:	e7d7      	b.n	8000ed2 <StartAccelerateTask+0x12>
 8000f22:	bf00      	nop
 8000f24:	200000e7 	.word	0x200000e7
 8000f28:	200000ec 	.word	0x200000ec
 8000f2c:	20000100 	.word	0x20000100
 8000f30:	200000e4 	.word	0x200000e4
 8000f34:	200000e8 	.word	0x200000e8
 8000f38:	20000144 	.word	0x20000144
 8000f3c:	200000f0 	.word	0x200000f0
 8000f40:	200000e9 	.word	0x200000e9
 8000f44:	20000158 	.word	0x20000158

08000f48 <StartDecelerateTask>:
 8000f48:	b508      	push	{r3, lr}
 8000f4a:	2300      	movs	r3, #0
 8000f4c:	4d18      	ldr	r5, [pc, #96]	; (8000fb0 <StartDecelerateTask+0x68>)
 8000f4e:	4c19      	ldr	r4, [pc, #100]	; (8000fb4 <StartDecelerateTask+0x6c>)
 8000f50:	461a      	mov	r2, r3
 8000f52:	4619      	mov	r1, r3
 8000f54:	4818      	ldr	r0, [pc, #96]	; (8000fb8 <StartDecelerateTask+0x70>)
 8000f56:	f001 f9c4 	bl	80022e2 <HAL_DAC_SetValue>
 8000f5a:	2000      	movs	r0, #0
 8000f5c:	f005 fadc 	bl	8006518 <vTaskSuspend>
 8000f60:	782a      	ldrb	r2, [r5, #0]
 8000f62:	4b16      	ldr	r3, [pc, #88]	; (8000fbc <StartDecelerateTask+0x74>)
 8000f64:	b112      	cbz	r2, 8000f6c <StartDecelerateTask+0x24>
 8000f66:	781a      	ldrb	r2, [r3, #0]
 8000f68:	2a00      	cmp	r2, #0
 8000f6a:	d0f6      	beq.n	8000f5a <StartDecelerateTask+0x12>
 8000f6c:	2200      	movs	r2, #0
 8000f6e:	701a      	strb	r2, [r3, #0]
 8000f70:	4b13      	ldr	r3, [pc, #76]	; (8000fc0 <StartDecelerateTask+0x78>)
 8000f72:	781b      	ldrb	r3, [r3, #0]
 8000f74:	b11b      	cbz	r3, 8000f7e <StartDecelerateTask+0x36>
 8000f76:	4b13      	ldr	r3, [pc, #76]	; (8000fc4 <StartDecelerateTask+0x7c>)
 8000f78:	6818      	ldr	r0, [r3, #0]
 8000f7a:	f005 f85b 	bl	8006034 <vTaskResume>
 8000f7e:	6823      	ldr	r3, [r4, #0]
 8000f80:	3301      	adds	r3, #1
 8000f82:	db05      	blt.n	8000f90 <StartDecelerateTask+0x48>
 8000f84:	6822      	ldr	r2, [r4, #0]
 8000f86:	4b10      	ldr	r3, [pc, #64]	; (8000fc8 <StartDecelerateTask+0x80>)
 8000f88:	601a      	str	r2, [r3, #0]
 8000f8a:	6823      	ldr	r3, [r4, #0]
 8000f8c:	3b01      	subs	r3, #1
 8000f8e:	6023      	str	r3, [r4, #0]
 8000f90:	f7ff fb3e 	bl	8000610 <setBLDCMotorSpeed>
 8000f94:	6823      	ldr	r3, [r4, #0]
 8000f96:	2b00      	cmp	r3, #0
 8000f98:	db04      	blt.n	8000fa4 <StartDecelerateTask+0x5c>
 8000f9a:	4b0c      	ldr	r3, [pc, #48]	; (8000fcc <StartDecelerateTask+0x84>)
 8000f9c:	6818      	ldr	r0, [r3, #0]
 8000f9e:	f005 f849 	bl	8006034 <vTaskResume>
 8000fa2:	e7da      	b.n	8000f5a <StartDecelerateTask+0x12>
 8000fa4:	4b0a      	ldr	r3, [pc, #40]	; (8000fd0 <StartDecelerateTask+0x88>)
 8000fa6:	2201      	movs	r2, #1
 8000fa8:	701a      	strb	r2, [r3, #0]
 8000faa:	4b0a      	ldr	r3, [pc, #40]	; (8000fd4 <StartDecelerateTask+0x8c>)
 8000fac:	e7f6      	b.n	8000f9c <StartDecelerateTask+0x54>
 8000fae:	bf00      	nop
 8000fb0:	200000e7 	.word	0x200000e7
 8000fb4:	200000ec 	.word	0x200000ec
 8000fb8:	20000100 	.word	0x20000100
 8000fbc:	200000e4 	.word	0x200000e4
 8000fc0:	200000e8 	.word	0x200000e8
 8000fc4:	20000144 	.word	0x20000144
 8000fc8:	200000f0 	.word	0x200000f0
 8000fcc:	20000118 	.word	0x20000118
 8000fd0:	200000e9 	.word	0x200000e9
 8000fd4:	20000158 	.word	0x20000158

08000fd8 <StartTurnLeftTask>:
 8000fd8:	4d10      	ldr	r5, [pc, #64]	; (800101c <StartTurnLeftTask+0x44>)
 8000fda:	4c11      	ldr	r4, [pc, #68]	; (8001020 <StartTurnLeftTask+0x48>)
 8000fdc:	4e11      	ldr	r6, [pc, #68]	; (8001024 <StartTurnLeftTask+0x4c>)
 8000fde:	b508      	push	{r3, lr}
 8000fe0:	2000      	movs	r0, #0
 8000fe2:	f005 fa99 	bl	8006518 <vTaskSuspend>
 8000fe6:	782b      	ldrb	r3, [r5, #0]
 8000fe8:	b113      	cbz	r3, 8000ff0 <StartTurnLeftTask+0x18>
 8000fea:	7823      	ldrb	r3, [r4, #0]
 8000fec:	2b00      	cmp	r3, #0
 8000fee:	d0f7      	beq.n	8000fe0 <StartTurnLeftTask+0x8>
 8000ff0:	2300      	movs	r3, #0
 8000ff2:	7023      	strb	r3, [r4, #0]
 8000ff4:	7833      	ldrb	r3, [r6, #0]
 8000ff6:	b11b      	cbz	r3, 8001000 <StartTurnLeftTask+0x28>
 8000ff8:	4b0b      	ldr	r3, [pc, #44]	; (8001028 <StartTurnLeftTask+0x50>)
 8000ffa:	6818      	ldr	r0, [r3, #0]
 8000ffc:	f005 f81a 	bl	8006034 <vTaskResume>
 8001000:	4b0a      	ldr	r3, [pc, #40]	; (800102c <StartTurnLeftTask+0x54>)
 8001002:	681a      	ldr	r2, [r3, #0]
 8001004:	3202      	adds	r2, #2
 8001006:	dbeb      	blt.n	8000fe0 <StartTurnLeftTask+0x8>
 8001008:	6819      	ldr	r1, [r3, #0]
 800100a:	2000      	movs	r0, #0
 800100c:	4a08      	ldr	r2, [pc, #32]	; (8001030 <StartTurnLeftTask+0x58>)
 800100e:	6011      	str	r1, [r2, #0]
 8001010:	681a      	ldr	r2, [r3, #0]
 8001012:	3a01      	subs	r2, #1
 8001014:	601a      	str	r2, [r3, #0]
 8001016:	f7ff fb51 	bl	80006bc <moveStepperMotor>
 800101a:	e7e1      	b.n	8000fe0 <StartTurnLeftTask+0x8>
 800101c:	200000e7 	.word	0x200000e7
 8001020:	200000e4 	.word	0x200000e4
 8001024:	200000e8 	.word	0x200000e8
 8001028:	20000144 	.word	0x20000144
 800102c:	200000f4 	.word	0x200000f4
 8001030:	200000f8 	.word	0x200000f8

08001034 <StartTurnRightTask>:
 8001034:	4d10      	ldr	r5, [pc, #64]	; (8001078 <StartTurnRightTask+0x44>)
 8001036:	4c11      	ldr	r4, [pc, #68]	; (800107c <StartTurnRightTask+0x48>)
 8001038:	4e11      	ldr	r6, [pc, #68]	; (8001080 <StartTurnRightTask+0x4c>)
 800103a:	b508      	push	{r3, lr}
 800103c:	2000      	movs	r0, #0
 800103e:	f005 fa6b 	bl	8006518 <vTaskSuspend>
 8001042:	782b      	ldrb	r3, [r5, #0]
 8001044:	b113      	cbz	r3, 800104c <StartTurnRightTask+0x18>
 8001046:	7823      	ldrb	r3, [r4, #0]
 8001048:	2b00      	cmp	r3, #0
 800104a:	d0f7      	beq.n	800103c <StartTurnRightTask+0x8>
 800104c:	2300      	movs	r3, #0
 800104e:	7023      	strb	r3, [r4, #0]
 8001050:	7833      	ldrb	r3, [r6, #0]
 8001052:	b11b      	cbz	r3, 800105c <StartTurnRightTask+0x28>
 8001054:	4b0b      	ldr	r3, [pc, #44]	; (8001084 <StartTurnRightTask+0x50>)
 8001056:	6818      	ldr	r0, [r3, #0]
 8001058:	f004 ffec 	bl	8006034 <vTaskResume>
 800105c:	4b0a      	ldr	r3, [pc, #40]	; (8001088 <StartTurnRightTask+0x54>)
 800105e:	681a      	ldr	r2, [r3, #0]
 8001060:	2a02      	cmp	r2, #2
 8001062:	dceb      	bgt.n	800103c <StartTurnRightTask+0x8>
 8001064:	6819      	ldr	r1, [r3, #0]
 8001066:	2001      	movs	r0, #1
 8001068:	4a08      	ldr	r2, [pc, #32]	; (800108c <StartTurnRightTask+0x58>)
 800106a:	6011      	str	r1, [r2, #0]
 800106c:	681a      	ldr	r2, [r3, #0]
 800106e:	3201      	adds	r2, #1
 8001070:	601a      	str	r2, [r3, #0]
 8001072:	f7ff fb23 	bl	80006bc <moveStepperMotor>
 8001076:	e7e1      	b.n	800103c <StartTurnRightTask+0x8>
 8001078:	200000e7 	.word	0x200000e7
 800107c:	200000e4 	.word	0x200000e4
 8001080:	200000e8 	.word	0x200000e8
 8001084:	20000144 	.word	0x20000144
 8001088:	200000f4 	.word	0x200000f4
 800108c:	200000f8 	.word	0x200000f8

08001090 <StartConnectionTask>:
 8001090:	4e08      	ldr	r6, [pc, #32]	; (80010b4 <StartConnectionTask+0x24>)
 8001092:	4d09      	ldr	r5, [pc, #36]	; (80010b8 <StartConnectionTask+0x28>)
 8001094:	4c09      	ldr	r4, [pc, #36]	; (80010bc <StartConnectionTask+0x2c>)
 8001096:	b508      	push	{r3, lr}
 8001098:	2000      	movs	r0, #0
 800109a:	f005 fa3d 	bl	8006518 <vTaskSuspend>
 800109e:	f241 517c 	movw	r1, #5500	; 0x157c
 80010a2:	6830      	ldr	r0, [r6, #0]
 80010a4:	f004 f9c0 	bl	8005428 <osTimerStart>
 80010a8:	2301      	movs	r3, #1
 80010aa:	6820      	ldr	r0, [r4, #0]
 80010ac:	702b      	strb	r3, [r5, #0]
 80010ae:	f004 ffc1 	bl	8006034 <vTaskResume>
 80010b2:	e7f1      	b.n	8001098 <StartConnectionTask+0x8>
 80010b4:	20000120 	.word	0x20000120
 80010b8:	200000e5 	.word	0x200000e5
 80010bc:	20000138 	.word	0x20000138

080010c0 <MX_FREERTOS_Init>:
 80010c0:	2200      	movs	r2, #0
 80010c2:	4840      	ldr	r0, [pc, #256]	; (80011c4 <MX_FREERTOS_Init+0x104>)
 80010c4:	b508      	push	{r3, lr}
 80010c6:	4611      	mov	r1, r2
 80010c8:	4b3f      	ldr	r3, [pc, #252]	; (80011c8 <MX_FREERTOS_Init+0x108>)
 80010ca:	f004 f96f 	bl	80053ac <osTimerNew>
 80010ce:	4b3f      	ldr	r3, [pc, #252]	; (80011cc <MX_FREERTOS_Init+0x10c>)
 80010d0:	4a3f      	ldr	r2, [pc, #252]	; (80011d0 <MX_FREERTOS_Init+0x110>)
 80010d2:	2100      	movs	r1, #0
 80010d4:	6018      	str	r0, [r3, #0]
 80010d6:	483f      	ldr	r0, [pc, #252]	; (80011d4 <MX_FREERTOS_Init+0x114>)
 80010d8:	f004 f8fa 	bl	80052d0 <osThreadNew>
 80010dc:	4b3e      	ldr	r3, [pc, #248]	; (80011d8 <MX_FREERTOS_Init+0x118>)
 80010de:	4a3f      	ldr	r2, [pc, #252]	; (80011dc <MX_FREERTOS_Init+0x11c>)
 80010e0:	2100      	movs	r1, #0
 80010e2:	6018      	str	r0, [r3, #0]
 80010e4:	483e      	ldr	r0, [pc, #248]	; (80011e0 <MX_FREERTOS_Init+0x120>)
 80010e6:	f004 f8f3 	bl	80052d0 <osThreadNew>
 80010ea:	4b3e      	ldr	r3, [pc, #248]	; (80011e4 <MX_FREERTOS_Init+0x124>)
 80010ec:	4a3e      	ldr	r2, [pc, #248]	; (80011e8 <MX_FREERTOS_Init+0x128>)
 80010ee:	2100      	movs	r1, #0
 80010f0:	6018      	str	r0, [r3, #0]
 80010f2:	483e      	ldr	r0, [pc, #248]	; (80011ec <MX_FREERTOS_Init+0x12c>)
 80010f4:	f004 f8ec 	bl	80052d0 <osThreadNew>
 80010f8:	4b3d      	ldr	r3, [pc, #244]	; (80011f0 <MX_FREERTOS_Init+0x130>)
 80010fa:	4a3e      	ldr	r2, [pc, #248]	; (80011f4 <MX_FREERTOS_Init+0x134>)
 80010fc:	2100      	movs	r1, #0
 80010fe:	6018      	str	r0, [r3, #0]
 8001100:	483d      	ldr	r0, [pc, #244]	; (80011f8 <MX_FREERTOS_Init+0x138>)
 8001102:	f004 f8e5 	bl	80052d0 <osThreadNew>
 8001106:	4b3d      	ldr	r3, [pc, #244]	; (80011fc <MX_FREERTOS_Init+0x13c>)
 8001108:	4a3d      	ldr	r2, [pc, #244]	; (8001200 <MX_FREERTOS_Init+0x140>)
 800110a:	2100      	movs	r1, #0
 800110c:	6018      	str	r0, [r3, #0]
 800110e:	483d      	ldr	r0, [pc, #244]	; (8001204 <MX_FREERTOS_Init+0x144>)
 8001110:	f004 f8de 	bl	80052d0 <osThreadNew>
 8001114:	4b3c      	ldr	r3, [pc, #240]	; (8001208 <MX_FREERTOS_Init+0x148>)
 8001116:	4a3d      	ldr	r2, [pc, #244]	; (800120c <MX_FREERTOS_Init+0x14c>)
 8001118:	2100      	movs	r1, #0
 800111a:	6018      	str	r0, [r3, #0]
 800111c:	483c      	ldr	r0, [pc, #240]	; (8001210 <MX_FREERTOS_Init+0x150>)
 800111e:	f004 f8d7 	bl	80052d0 <osThreadNew>
 8001122:	4b3c      	ldr	r3, [pc, #240]	; (8001214 <MX_FREERTOS_Init+0x154>)
 8001124:	4a3c      	ldr	r2, [pc, #240]	; (8001218 <MX_FREERTOS_Init+0x158>)
 8001126:	2100      	movs	r1, #0
 8001128:	6018      	str	r0, [r3, #0]
 800112a:	483c      	ldr	r0, [pc, #240]	; (800121c <MX_FREERTOS_Init+0x15c>)
 800112c:	f004 f8d0 	bl	80052d0 <osThreadNew>
 8001130:	4b3b      	ldr	r3, [pc, #236]	; (8001220 <MX_FREERTOS_Init+0x160>)
 8001132:	4a3c      	ldr	r2, [pc, #240]	; (8001224 <MX_FREERTOS_Init+0x164>)
 8001134:	2100      	movs	r1, #0
 8001136:	6018      	str	r0, [r3, #0]
 8001138:	483b      	ldr	r0, [pc, #236]	; (8001228 <MX_FREERTOS_Init+0x168>)
 800113a:	f004 f8c9 	bl	80052d0 <osThreadNew>
 800113e:	4b3b      	ldr	r3, [pc, #236]	; (800122c <MX_FREERTOS_Init+0x16c>)
 8001140:	4a3b      	ldr	r2, [pc, #236]	; (8001230 <MX_FREERTOS_Init+0x170>)
 8001142:	2100      	movs	r1, #0
 8001144:	6018      	str	r0, [r3, #0]
 8001146:	483b      	ldr	r0, [pc, #236]	; (8001234 <MX_FREERTOS_Init+0x174>)
 8001148:	f004 f8c2 	bl	80052d0 <osThreadNew>
 800114c:	4b3a      	ldr	r3, [pc, #232]	; (8001238 <MX_FREERTOS_Init+0x178>)
 800114e:	4a3b      	ldr	r2, [pc, #236]	; (800123c <MX_FREERTOS_Init+0x17c>)
 8001150:	2100      	movs	r1, #0
 8001152:	6018      	str	r0, [r3, #0]
 8001154:	483a      	ldr	r0, [pc, #232]	; (8001240 <MX_FREERTOS_Init+0x180>)
 8001156:	f004 f8bb 	bl	80052d0 <osThreadNew>
 800115a:	4b3a      	ldr	r3, [pc, #232]	; (8001244 <MX_FREERTOS_Init+0x184>)
 800115c:	4a3a      	ldr	r2, [pc, #232]	; (8001248 <MX_FREERTOS_Init+0x188>)
 800115e:	2100      	movs	r1, #0
 8001160:	6018      	str	r0, [r3, #0]
 8001162:	483a      	ldr	r0, [pc, #232]	; (800124c <MX_FREERTOS_Init+0x18c>)
 8001164:	f004 f8b4 	bl	80052d0 <osThreadNew>
 8001168:	4b39      	ldr	r3, [pc, #228]	; (8001250 <MX_FREERTOS_Init+0x190>)
 800116a:	4a3a      	ldr	r2, [pc, #232]	; (8001254 <MX_FREERTOS_Init+0x194>)
 800116c:	2100      	movs	r1, #0
 800116e:	6018      	str	r0, [r3, #0]
 8001170:	4839      	ldr	r0, [pc, #228]	; (8001258 <MX_FREERTOS_Init+0x198>)
 8001172:	f004 f8ad 	bl	80052d0 <osThreadNew>
 8001176:	4b39      	ldr	r3, [pc, #228]	; (800125c <MX_FREERTOS_Init+0x19c>)
 8001178:	4a39      	ldr	r2, [pc, #228]	; (8001260 <MX_FREERTOS_Init+0x1a0>)
 800117a:	2100      	movs	r1, #0
 800117c:	6018      	str	r0, [r3, #0]
 800117e:	4839      	ldr	r0, [pc, #228]	; (8001264 <MX_FREERTOS_Init+0x1a4>)
 8001180:	f004 f8a6 	bl	80052d0 <osThreadNew>
 8001184:	4b38      	ldr	r3, [pc, #224]	; (8001268 <MX_FREERTOS_Init+0x1a8>)
 8001186:	4a39      	ldr	r2, [pc, #228]	; (800126c <MX_FREERTOS_Init+0x1ac>)
 8001188:	2100      	movs	r1, #0
 800118a:	6018      	str	r0, [r3, #0]
 800118c:	4838      	ldr	r0, [pc, #224]	; (8001270 <MX_FREERTOS_Init+0x1b0>)
 800118e:	f004 f89f 	bl	80052d0 <osThreadNew>
 8001192:	4b38      	ldr	r3, [pc, #224]	; (8001274 <MX_FREERTOS_Init+0x1b4>)
 8001194:	4a38      	ldr	r2, [pc, #224]	; (8001278 <MX_FREERTOS_Init+0x1b8>)
 8001196:	2100      	movs	r1, #0
 8001198:	6018      	str	r0, [r3, #0]
 800119a:	4838      	ldr	r0, [pc, #224]	; (800127c <MX_FREERTOS_Init+0x1bc>)
 800119c:	f004 f898 	bl	80052d0 <osThreadNew>
 80011a0:	4b37      	ldr	r3, [pc, #220]	; (8001280 <MX_FREERTOS_Init+0x1c0>)
 80011a2:	4a38      	ldr	r2, [pc, #224]	; (8001284 <MX_FREERTOS_Init+0x1c4>)
 80011a4:	2100      	movs	r1, #0
 80011a6:	6018      	str	r0, [r3, #0]
 80011a8:	4837      	ldr	r0, [pc, #220]	; (8001288 <MX_FREERTOS_Init+0x1c8>)
 80011aa:	f004 f891 	bl	80052d0 <osThreadNew>
 80011ae:	4b37      	ldr	r3, [pc, #220]	; (800128c <MX_FREERTOS_Init+0x1cc>)
 80011b0:	4a37      	ldr	r2, [pc, #220]	; (8001290 <MX_FREERTOS_Init+0x1d0>)
 80011b2:	2100      	movs	r1, #0
 80011b4:	6018      	str	r0, [r3, #0]
 80011b6:	4837      	ldr	r0, [pc, #220]	; (8001294 <MX_FREERTOS_Init+0x1d4>)
 80011b8:	f004 f88a 	bl	80052d0 <osThreadNew>
 80011bc:	4b36      	ldr	r3, [pc, #216]	; (8001298 <MX_FREERTOS_Init+0x1d8>)
 80011be:	6018      	str	r0, [r3, #0]
 80011c0:	bd08      	pop	{r3, pc}
 80011c2:	bf00      	nop
 80011c4:	08000aad 	.word	0x08000aad
 80011c8:	080082fc 	.word	0x080082fc
 80011cc:	20000120 	.word	0x20000120
 80011d0:	080083e4 	.word	0x080083e4
 80011d4:	08000905 	.word	0x08000905
 80011d8:	20000138 	.word	0x20000138
 80011dc:	08008354 	.word	0x08008354
 80011e0:	080009cd 	.word	0x080009cd
 80011e4:	20000128 	.word	0x20000128
 80011e8:	08008498 	.word	0x08008498
 80011ec:	08000ad5 	.word	0x08000ad5
 80011f0:	2000014c 	.word	0x2000014c
 80011f4:	08008378 	.word	0x08008378
 80011f8:	08000bd9 	.word	0x08000bd9
 80011fc:	2000012c 	.word	0x2000012c
 8001200:	0800839c 	.word	0x0800839c
 8001204:	08000d01 	.word	0x08000d01
 8001208:	20000130 	.word	0x20000130
 800120c:	080083c0 	.word	0x080083c0
 8001210:	08000c25 	.word	0x08000c25
 8001214:	20000134 	.word	0x20000134
 8001218:	08008474 	.word	0x08008474
 800121c:	08000c7d 	.word	0x08000c7d
 8001220:	20000148 	.word	0x20000148
 8001224:	08008408 	.word	0x08008408
 8001228:	08000e4d 	.word	0x08000e4d
 800122c:	2000013c 	.word	0x2000013c
 8001230:	0800842c 	.word	0x0800842c
 8001234:	08000e89 	.word	0x08000e89
 8001238:	20000140 	.word	0x20000140
 800123c:	080082b4 	.word	0x080082b4
 8001240:	08000ec1 	.word	0x08000ec1
 8001244:	20000114 	.word	0x20000114
 8001248:	08008330 	.word	0x08008330
 800124c:	08000f49 	.word	0x08000f49
 8001250:	20000124 	.word	0x20000124
 8001254:	080084bc 	.word	0x080084bc
 8001258:	08000fd9 	.word	0x08000fd9
 800125c:	20000150 	.word	0x20000150
 8001260:	080084e0 	.word	0x080084e0
 8001264:	08001035 	.word	0x08001035
 8001268:	20000154 	.word	0x20000154
 800126c:	0800830c 	.word	0x0800830c
 8001270:	08001091 	.word	0x08001091
 8001274:	2000011c 	.word	0x2000011c
 8001278:	080082d8 	.word	0x080082d8
 800127c:	08000cd5 	.word	0x08000cd5
 8001280:	20000118 	.word	0x20000118
 8001284:	08008504 	.word	0x08008504
 8001288:	08000bad 	.word	0x08000bad
 800128c:	20000158 	.word	0x20000158
 8001290:	08008450 	.word	0x08008450
 8001294:	08000a61 	.word	0x08000a61
 8001298:	20000144 	.word	0x20000144

0800129c <MX_GPIO_Init>:
 800129c:	e92d 4ff0 	stmdb	sp!, {r4, r5, r6, r7, r8, r9, sl, fp, lr}
 80012a0:	b08d      	sub	sp, #52	; 0x34
 80012a2:	2214      	movs	r2, #20
 80012a4:	2100      	movs	r1, #0
 80012a6:	f8df b1f0 	ldr.w	fp, [pc, #496]	; 8001498 <MX_GPIO_Init+0x1fc>
 80012aa:	a807      	add	r0, sp, #28
 80012ac:	4f76      	ldr	r7, [pc, #472]	; (8001488 <MX_GPIO_Init+0x1ec>)
 80012ae:	f006 f8ce 	bl	800744e <memset>
 80012b2:	4b76      	ldr	r3, [pc, #472]	; (800148c <MX_GPIO_Init+0x1f0>)
 80012b4:	f244 0191 	movw	r1, #16529	; 0x4091
 80012b8:	f8df 91e0 	ldr.w	r9, [pc, #480]	; 800149c <MX_GPIO_Init+0x200>
 80012bc:	6b1a      	ldr	r2, [r3, #48]	; 0x30
 80012be:	2400      	movs	r4, #0
 80012c0:	2602      	movs	r6, #2
 80012c2:	2503      	movs	r5, #3
 80012c4:	f042 0204 	orr.w	r2, r2, #4
 80012c8:	f04f 080b 	mov.w	r8, #11
 80012cc:	f04f 0a01 	mov.w	sl, #1
 80012d0:	631a      	str	r2, [r3, #48]	; 0x30
 80012d2:	6b1a      	ldr	r2, [r3, #48]	; 0x30
 80012d4:	f002 0204 	and.w	r2, r2, #4
 80012d8:	9201      	str	r2, [sp, #4]
 80012da:	9a01      	ldr	r2, [sp, #4]
 80012dc:	6b1a      	ldr	r2, [r3, #48]	; 0x30
 80012de:	f042 0280 	orr.w	r2, r2, #128	; 0x80
 80012e2:	631a      	str	r2, [r3, #48]	; 0x30
 80012e4:	6b1a      	ldr	r2, [r3, #48]	; 0x30
 80012e6:	f002 0280 	and.w	r2, r2, #128	; 0x80
 80012ea:	9202      	str	r2, [sp, #8]
 80012ec:	9a02      	ldr	r2, [sp, #8]
 80012ee:	6b1a      	ldr	r2, [r3, #48]	; 0x30
 80012f0:	f042 0201 	orr.w	r2, r2, #1
 80012f4:	631a      	str	r2, [r3, #48]	; 0x30
 80012f6:	6b1a      	ldr	r2, [r3, #48]	; 0x30
 80012f8:	f002 0201 	and.w	r2, r2, #1
 80012fc:	9203      	str	r2, [sp, #12]
 80012fe:	9a03      	ldr	r2, [sp, #12]
 8001300:	6b1a      	ldr	r2, [r3, #48]	; 0x30
 8001302:	f042 0202 	orr.w	r2, r2, #2
 8001306:	631a      	str	r2, [r3, #48]	; 0x30
 8001308:	6b1a      	ldr	r2, [r3, #48]	; 0x30
 800130a:	f002 0202 	and.w	r2, r2, #2
 800130e:	9204      	str	r2, [sp, #16]
 8001310:	9a04      	ldr	r2, [sp, #16]
 8001312:	6b1a      	ldr	r2, [r3, #48]	; 0x30
 8001314:	f042 0208 	orr.w	r2, r2, #8
 8001318:	631a      	str	r2, [r3, #48]	; 0x30
 800131a:	6b1a      	ldr	r2, [r3, #48]	; 0x30
 800131c:	f002 0208 	and.w	r2, r2, #8
 8001320:	9205      	str	r2, [sp, #20]
 8001322:	9a05      	ldr	r2, [sp, #20]
 8001324:	6b1a      	ldr	r2, [r3, #48]	; 0x30
 8001326:	f042 0240 	orr.w	r2, r2, #64	; 0x40
 800132a:	631a      	str	r2, [r3, #48]	; 0x30
 800132c:	2200      	movs	r2, #0
 800132e:	6b1b      	ldr	r3, [r3, #48]	; 0x30
 8001330:	f003 0340 	and.w	r3, r3, #64	; 0x40
 8001334:	9306      	str	r3, [sp, #24]
 8001336:	9b06      	ldr	r3, [sp, #24]
 8001338:	4b55      	ldr	r3, [pc, #340]	; (8001490 <MX_GPIO_Init+0x1f4>)
 800133a:	4618      	mov	r0, r3
 800133c:	f001 fafc 	bl	8002938 <HAL_GPIO_WritePin>
 8001340:	4658      	mov	r0, fp
 8001342:	2200      	movs	r2, #0
 8001344:	f44f 4100 	mov.w	r1, #32768	; 0x8000
 8001348:	f001 faf6 	bl	8002938 <HAL_GPIO_WritePin>
 800134c:	4638      	mov	r0, r7
 800134e:	2200      	movs	r2, #0
 8001350:	2140      	movs	r1, #64	; 0x40
 8001352:	f001 faf1 	bl	8002938 <HAL_GPIO_WritePin>
 8001356:	4648      	mov	r0, r9
 8001358:	2200      	movs	r2, #0
 800135a:	f44f 51f8 	mov.w	r1, #7936	; 0x1f00
 800135e:	f001 faeb 	bl	8002938 <HAL_GPIO_WritePin>
 8001362:	f44f 5300 	mov.w	r3, #8192	; 0x2000
 8001366:	f44f 1288 	mov.w	r2, #1114112	; 0x110000
 800136a:	a907      	add	r1, sp, #28
 800136c:	4648      	mov	r0, r9
 800136e:	9409      	str	r4, [sp, #36]	; 0x24
 8001370:	e9cd 3207 	strd	r3, r2, [sp, #28]
 8001374:	f001 f9fe 	bl	8002774 <HAL_GPIO_Init>
 8001378:	2232      	movs	r2, #50	; 0x32
 800137a:	a907      	add	r1, sp, #28
 800137c:	4648      	mov	r0, r9
 800137e:	9409      	str	r4, [sp, #36]	; 0x24
 8001380:	e9cd 2607 	strd	r2, r6, [sp, #28]
 8001384:	e9cd 580a 	strd	r5, r8, [sp, #40]	; 0x28
 8001388:	f001 f9f4 	bl	8002774 <HAL_GPIO_Init>
 800138c:	2286      	movs	r2, #134	; 0x86
 800138e:	a907      	add	r1, sp, #28
 8001390:	f8cd 802c 	str.w	r8, [sp, #44]	; 0x2c
 8001394:	e9cd 2607 	strd	r2, r6, [sp, #28]
 8001398:	4a3e      	ldr	r2, [pc, #248]	; (8001494 <MX_GPIO_Init+0x1f8>)
 800139a:	4610      	mov	r0, r2
 800139c:	e9cd 4509 	strd	r4, r5, [sp, #36]	; 0x24
 80013a0:	f001 f9e8 	bl	8002774 <HAL_GPIO_Init>
 80013a4:	4b3a      	ldr	r3, [pc, #232]	; (8001490 <MX_GPIO_Init+0x1f4>)
 80013a6:	f244 0191 	movw	r1, #16529	; 0x4091
 80013aa:	4618      	mov	r0, r3
 80013ac:	e9cd 1a07 	strd	r1, sl, [sp, #28]
 80013b0:	a907      	add	r1, sp, #28
 80013b2:	e9cd 4409 	strd	r4, r4, [sp, #36]	; 0x24
 80013b6:	f001 f9dd 	bl	8002774 <HAL_GPIO_Init>
 80013ba:	f44f 5300 	mov.w	r3, #8192	; 0x2000
 80013be:	a907      	add	r1, sp, #28
 80013c0:	f8cd 802c 	str.w	r8, [sp, #44]	; 0x2c
 80013c4:	e9cd 3607 	strd	r3, r6, [sp, #28]
 80013c8:	f103 4380 	add.w	r3, r3, #1073741824	; 0x40000000
 80013cc:	f503 33f2 	add.w	r3, r3, #123904	; 0x1e400
 80013d0:	4618      	mov	r0, r3
 80013d2:	e9cd 4509 	strd	r4, r5, [sp, #36]	; 0x24
 80013d6:	f001 f9cd 	bl	8002774 <HAL_GPIO_Init>
 80013da:	f44f 7340 	mov.w	r3, #768	; 0x300
 80013de:	a907      	add	r1, sp, #28
 80013e0:	4658      	mov	r0, fp
 80013e2:	e9cd 3607 	strd	r3, r6, [sp, #28]
 80013e6:	2307      	movs	r3, #7
 80013e8:	e9cd 4509 	strd	r4, r5, [sp, #36]	; 0x24
 80013ec:	930b      	str	r3, [sp, #44]	; 0x2c
 80013ee:	f001 f9c1 	bl	8002774 <HAL_GPIO_Init>
 80013f2:	f44f 4300 	mov.w	r3, #32768	; 0x8000
 80013f6:	a907      	add	r1, sp, #28
 80013f8:	4658      	mov	r0, fp
 80013fa:	e9cd 3a07 	strd	r3, sl, [sp, #28]
 80013fe:	e9cd 4409 	strd	r4, r4, [sp, #36]	; 0x24
 8001402:	f001 f9b7 	bl	8002774 <HAL_GPIO_Init>
 8001406:	2340      	movs	r3, #64	; 0x40
 8001408:	a907      	add	r1, sp, #28
 800140a:	4638      	mov	r0, r7
 800140c:	e9cd 3a07 	strd	r3, sl, [sp, #28]
 8001410:	e9cd 4409 	strd	r4, r4, [sp, #36]	; 0x24
 8001414:	f001 f9ae 	bl	8002774 <HAL_GPIO_Init>
 8001418:	2380      	movs	r3, #128	; 0x80
 800141a:	a907      	add	r1, sp, #28
 800141c:	4638      	mov	r0, r7
 800141e:	9409      	str	r4, [sp, #36]	; 0x24
 8001420:	e9cd 3407 	strd	r3, r4, [sp, #28]
 8001424:	f001 f9a6 	bl	8002774 <HAL_GPIO_Init>
 8001428:	f44f 53f8 	mov.w	r3, #7936	; 0x1f00
 800142c:	a907      	add	r1, sp, #28
 800142e:	4648      	mov	r0, r9
 8001430:	e9cd 3a07 	strd	r3, sl, [sp, #28]
 8001434:	e9cd 4409 	strd	r4, r4, [sp, #36]	; 0x24
 8001438:	f001 f99c 	bl	8002774 <HAL_GPIO_Init>
 800143c:	f44f 53e8 	mov.w	r3, #7424	; 0x1d00
 8001440:	4a14      	ldr	r2, [pc, #80]	; (8001494 <MX_GPIO_Init+0x1f8>)
 8001442:	a907      	add	r1, sp, #28
 8001444:	e9cd 3607 	strd	r3, r6, [sp, #28]
 8001448:	230a      	movs	r3, #10
 800144a:	4610      	mov	r0, r2
 800144c:	930b      	str	r3, [sp, #44]	; 0x2c
 800144e:	e9cd 4509 	strd	r4, r5, [sp, #36]	; 0x24
 8001452:	f001 f98f 	bl	8002774 <HAL_GPIO_Init>
 8001456:	4a0f      	ldr	r2, [pc, #60]	; (8001494 <MX_GPIO_Init+0x1f8>)
 8001458:	f44f 7300 	mov.w	r3, #512	; 0x200
 800145c:	a907      	add	r1, sp, #28
 800145e:	4610      	mov	r0, r2
 8001460:	9409      	str	r4, [sp, #36]	; 0x24
 8001462:	e9cd 3407 	strd	r3, r4, [sp, #28]
 8001466:	f001 f985 	bl	8002774 <HAL_GPIO_Init>
 800146a:	f44f 5320 	mov.w	r3, #10240	; 0x2800
 800146e:	a907      	add	r1, sp, #28
 8001470:	4638      	mov	r0, r7
 8001472:	f8cd 802c 	str.w	r8, [sp, #44]	; 0x2c
 8001476:	e9cd 3607 	strd	r3, r6, [sp, #28]
 800147a:	e9cd 4509 	strd	r4, r5, [sp, #36]	; 0x24
 800147e:	f001 f979 	bl	8002774 <HAL_GPIO_Init>
 8001482:	b00d      	add	sp, #52	; 0x34
 8001484:	e8bd 8ff0 	ldmia.w	sp!, {r4, r5, r6, r7, r8, r9, sl, fp, pc}
 8001488:	40021800 	.word	0x40021800
 800148c:	40023800 	.word	0x40023800
 8001490:	40020400 	.word	0x40020400
 8001494:	40020000 	.word	0x40020000
 8001498:	40020c00 	.word	0x40020c00
 800149c:	40020800 	.word	0x40020800

080014a0 <MX_I2C1_Init>:
 80014a0:	b508      	push	{r3, lr}
 80014a2:	4813      	ldr	r0, [pc, #76]	; (80014f0 <MX_I2C1_Init+0x50>)
 80014a4:	2201      	movs	r2, #1
 80014a6:	4b13      	ldr	r3, [pc, #76]	; (80014f4 <MX_I2C1_Init+0x54>)
 80014a8:	6003      	str	r3, [r0, #0]
 80014aa:	f1a3 53fe 	sub.w	r3, r3, #532676608	; 0x1fc00000
 80014ae:	f6a3 4398 	subw	r3, r3, #3224	; 0xc98
 80014b2:	6043      	str	r3, [r0, #4]
 80014b4:	2300      	movs	r3, #0
 80014b6:	e9c0 3202 	strd	r3, r2, [r0, #8]
 80014ba:	e9c0 3304 	strd	r3, r3, [r0, #16]
 80014be:	e9c0 3306 	strd	r3, r3, [r0, #24]
 80014c2:	6203      	str	r3, [r0, #32]
 80014c4:	f001 fb60 	bl	8002b88 <HAL_I2C_Init>
 80014c8:	b108      	cbz	r0, 80014ce <MX_I2C1_Init+0x2e>
 80014ca:	f000 f905 	bl	80016d8 <Error_Handler>
 80014ce:	2100      	movs	r1, #0
 80014d0:	4807      	ldr	r0, [pc, #28]	; (80014f0 <MX_I2C1_Init+0x50>)
 80014d2:	f001 fc85 	bl	8002de0 <HAL_I2CEx_ConfigAnalogFilter>
 80014d6:	b108      	cbz	r0, 80014dc <MX_I2C1_Init+0x3c>
 80014d8:	f000 f8fe 	bl	80016d8 <Error_Handler>
 80014dc:	2100      	movs	r1, #0
 80014de:	4804      	ldr	r0, [pc, #16]	; (80014f0 <MX_I2C1_Init+0x50>)
 80014e0:	f001 fca4 	bl	8002e2c <HAL_I2CEx_ConfigDigitalFilter>
 80014e4:	b118      	cbz	r0, 80014ee <MX_I2C1_Init+0x4e>
 80014e6:	e8bd 4008 	ldmia.w	sp!, {r3, lr}
 80014ea:	f000 b8f5 	b.w	80016d8 <Error_Handler>
 80014ee:	bd08      	pop	{r3, pc}
 80014f0:	2000015c 	.word	0x2000015c
 80014f4:	40005400 	.word	0x40005400

080014f8 <HAL_I2C_MspInit>:
 80014f8:	b510      	push	{r4, lr}
 80014fa:	b0ac      	sub	sp, #176	; 0xb0
 80014fc:	4604      	mov	r4, r0
 80014fe:	2214      	movs	r2, #20
 8001500:	2100      	movs	r1, #0
 8001502:	a803      	add	r0, sp, #12
 8001504:	f005 ffa3 	bl	800744e <memset>
 8001508:	2290      	movs	r2, #144	; 0x90
 800150a:	2100      	movs	r1, #0
 800150c:	a808      	add	r0, sp, #32
 800150e:	f005 ff9e 	bl	800744e <memset>
 8001512:	6822      	ldr	r2, [r4, #0]
 8001514:	4b17      	ldr	r3, [pc, #92]	; (8001574 <HAL_I2C_MspInit+0x7c>)
 8001516:	429a      	cmp	r2, r3
 8001518:	d12a      	bne.n	8001570 <HAL_I2C_MspInit+0x78>
 800151a:	f44f 4380 	mov.w	r3, #16384	; 0x4000
 800151e:	a808      	add	r0, sp, #32
 8001520:	9308      	str	r3, [sp, #32]
 8001522:	f001 ffad 	bl	8003480 <HAL_RCCEx_PeriphCLKConfig>
 8001526:	b108      	cbz	r0, 800152c <HAL_I2C_MspInit+0x34>
 8001528:	f000 f8d6 	bl	80016d8 <Error_Handler>
 800152c:	4c12      	ldr	r4, [pc, #72]	; (8001578 <HAL_I2C_MspInit+0x80>)
 800152e:	f44f 7240 	mov.w	r2, #768	; 0x300
 8001532:	2100      	movs	r1, #0
 8001534:	4811      	ldr	r0, [pc, #68]	; (800157c <HAL_I2C_MspInit+0x84>)
 8001536:	6b23      	ldr	r3, [r4, #48]	; 0x30
 8001538:	f043 0302 	orr.w	r3, r3, #2
 800153c:	6323      	str	r3, [r4, #48]	; 0x30
 800153e:	6b23      	ldr	r3, [r4, #48]	; 0x30
 8001540:	f003 0302 	and.w	r3, r3, #2
 8001544:	9301      	str	r3, [sp, #4]
 8001546:	9b01      	ldr	r3, [sp, #4]
 8001548:	2312      	movs	r3, #18
 800154a:	e9cd 2303 	strd	r2, r3, [sp, #12]
 800154e:	2303      	movs	r3, #3
 8001550:	e9cd 1305 	strd	r1, r3, [sp, #20]
 8001554:	2304      	movs	r3, #4
 8001556:	a903      	add	r1, sp, #12
 8001558:	9307      	str	r3, [sp, #28]
 800155a:	f001 f90b 	bl	8002774 <HAL_GPIO_Init>
 800155e:	6c23      	ldr	r3, [r4, #64]	; 0x40
 8001560:	f443 1300 	orr.w	r3, r3, #2097152	; 0x200000
 8001564:	6423      	str	r3, [r4, #64]	; 0x40
 8001566:	6c23      	ldr	r3, [r4, #64]	; 0x40
 8001568:	f403 1300 	and.w	r3, r3, #2097152	; 0x200000
 800156c:	9302      	str	r3, [sp, #8]
 800156e:	9b02      	ldr	r3, [sp, #8]
 8001570:	b02c      	add	sp, #176	; 0xb0
 8001572:	bd10      	pop	{r4, pc}
 8001574:	40005400 	.word	0x40005400
 8001578:	40023800 	.word	0x40023800
 800157c:	40020400 	.word	0x40020400

08001580 <SystemClock_Config>:
 8001580:	b510      	push	{r4, lr}
 8001582:	b094      	sub	sp, #80	; 0x50
 8001584:	2210      	movs	r2, #16
 8001586:	2100      	movs	r1, #0
 8001588:	2402      	movs	r4, #2
 800158a:	a809      	add	r0, sp, #36	; 0x24
 800158c:	f005 ff5f 	bl	800744e <memset>
 8001590:	2214      	movs	r2, #20
 8001592:	2100      	movs	r1, #0
 8001594:	a802      	add	r0, sp, #8
 8001596:	f005 ff5a 	bl	800744e <memset>
 800159a:	4b21      	ldr	r3, [pc, #132]	; (8001620 <SystemClock_Config+0xa0>)
 800159c:	2101      	movs	r1, #1
 800159e:	2004      	movs	r0, #4
 80015a0:	6c1a      	ldr	r2, [r3, #64]	; 0x40
 80015a2:	f042 5280 	orr.w	r2, r2, #268435456	; 0x10000000
 80015a6:	641a      	str	r2, [r3, #64]	; 0x40
 80015a8:	6c1b      	ldr	r3, [r3, #64]	; 0x40
 80015aa:	f003 5380 	and.w	r3, r3, #268435456	; 0x10000000
 80015ae:	9300      	str	r3, [sp, #0]
 80015b0:	9b00      	ldr	r3, [sp, #0]
 80015b2:	4b1c      	ldr	r3, [pc, #112]	; (8001624 <SystemClock_Config+0xa4>)
 80015b4:	681a      	ldr	r2, [r3, #0]
 80015b6:	f442 4240 	orr.w	r2, r2, #49152	; 0xc000
 80015ba:	601a      	str	r2, [r3, #0]
 80015bc:	681b      	ldr	r3, [r3, #0]
 80015be:	9413      	str	r4, [sp, #76]	; 0x4c
 80015c0:	f403 4340 	and.w	r3, r3, #49152	; 0xc000
 80015c4:	9301      	str	r3, [sp, #4]
 80015c6:	9b01      	ldr	r3, [sp, #4]
 80015c8:	f44f 23a0 	mov.w	r3, #327680	; 0x50000
 80015cc:	e9cd 1307 	strd	r1, r3, [sp, #28]
 80015d0:	f44f 0380 	mov.w	r3, #4194304	; 0x400000
 80015d4:	e9cd 430d 	strd	r4, r3, [sp, #52]	; 0x34
 80015d8:	23d8      	movs	r3, #216	; 0xd8
 80015da:	e9cd 030f 	strd	r0, r3, [sp, #60]	; 0x3c
 80015de:	a807      	add	r0, sp, #28
 80015e0:	e9cd 4411 	strd	r4, r4, [sp, #68]	; 0x44
 80015e4:	f001 fc80 	bl	8002ee8 <HAL_RCC_OscConfig>
 80015e8:	b108      	cbz	r0, 80015ee <SystemClock_Config+0x6e>
 80015ea:	b672      	cpsid	i
 80015ec:	e7fe      	b.n	80015ec <SystemClock_Config+0x6c>
 80015ee:	f001 fc43 	bl	8002e78 <HAL_PWREx_EnableOverDrive>
 80015f2:	b108      	cbz	r0, 80015f8 <SystemClock_Config+0x78>
 80015f4:	b672      	cpsid	i
 80015f6:	e7fe      	b.n	80015f6 <SystemClock_Config+0x76>
 80015f8:	230f      	movs	r3, #15
 80015fa:	f44f 52a0 	mov.w	r2, #5120	; 0x1400
 80015fe:	9004      	str	r0, [sp, #16]
 8001600:	2107      	movs	r1, #7
 8001602:	a802      	add	r0, sp, #8
 8001604:	e9cd 3402 	strd	r3, r4, [sp, #8]
 8001608:	f44f 5380 	mov.w	r3, #4096	; 0x1000
 800160c:	e9cd 2305 	strd	r2, r3, [sp, #20]
 8001610:	f001 fe5a 	bl	80032c8 <HAL_RCC_ClockConfig>
 8001614:	b108      	cbz	r0, 800161a <SystemClock_Config+0x9a>
 8001616:	b672      	cpsid	i
 8001618:	e7fe      	b.n	8001618 <SystemClock_Config+0x98>
 800161a:	b014      	add	sp, #80	; 0x50
 800161c:	bd10      	pop	{r4, pc}
 800161e:	bf00      	nop
 8001620:	40023800 	.word	0x40023800
 8001624:	40007000 	.word	0x40007000

08001628 <main>:
 8001628:	b508      	push	{r3, lr}
 800162a:	f000 fd9c 	bl	8002166 <HAL_Init>
 800162e:	f7ff ffa7 	bl	8001580 <SystemClock_Config>
 8001632:	f7ff fe33 	bl	800129c <MX_GPIO_Init>
 8001636:	f7ff f94d 	bl	80008d4 <MX_DMA_Init>
 800163a:	f000 f84f 	bl	80016dc <MX_SPI1_Init>
 800163e:	f7ff f8f7 	bl	8000830 <MX_DAC_Init>
 8001642:	f7ff ff2d 	bl	80014a0 <MX_I2C1_Init>
 8001646:	f000 fb45 	bl	8001cd4 <MX_TIM4_Init>
 800164a:	f000 fb7f 	bl	8001d4c <MX_USART6_UART_Init>
 800164e:	2201      	movs	r2, #1
 8001650:	4909      	ldr	r1, [pc, #36]	; (8001678 <main+0x50>)
 8001652:	480a      	ldr	r0, [pc, #40]	; (800167c <main+0x54>)
 8001654:	f003 fdda 	bl	800520c <HAL_UART_Receive_IT>
 8001658:	2100      	movs	r1, #0
 800165a:	4809      	ldr	r0, [pc, #36]	; (8001680 <main+0x58>)
 800165c:	f000 fe17 	bl	800228e <HAL_DAC_Start>
 8001660:	2108      	movs	r1, #8
 8001662:	4808      	ldr	r0, [pc, #32]	; (8001684 <main+0x5c>)
 8001664:	f003 f8a6 	bl	80047b4 <HAL_TIM_PWM_Start>
 8001668:	f003 fdf8 	bl	800525c <osKernelInitialize>
 800166c:	f7ff fd28 	bl	80010c0 <MX_FREERTOS_Init>
 8001670:	f003 fe0e 	bl	8005290 <osKernelStart>
 8001674:	e7fe      	b.n	8001674 <main+0x4c>
 8001676:	bf00      	nop
 8001678:	200000dc 	.word	0x200000dc
 800167c:	20000718 	.word	0x20000718
 8001680:	20000100 	.word	0x20000100
 8001684:	200006cc 	.word	0x200006cc

08001688 <HAL_UART_RxCpltCallback>:
 8001688:	b508      	push	{r3, lr}
 800168a:	4b0b      	ldr	r3, [pc, #44]	; (80016b8 <HAL_UART_RxCpltCallback+0x30>)
 800168c:	6818      	ldr	r0, [r3, #0]
 800168e:	f004 fd17 	bl	80060c0 <xTaskResumeFromISR>
 8001692:	b148      	cbz	r0, 80016a8 <HAL_UART_RxCpltCallback+0x20>
 8001694:	f04f 23e0 	mov.w	r3, #3758153728	; 0xe000e000
 8001698:	f04f 5280 	mov.w	r2, #268435456	; 0x10000000
 800169c:	f8c3 2d04 	str.w	r2, [r3, #3332]	; 0xd04
 80016a0:	f3bf 8f4f 	dsb	sy
 80016a4:	f3bf 8f6f 	isb	sy
 80016a8:	2201      	movs	r2, #1
 80016aa:	4904      	ldr	r1, [pc, #16]	; (80016bc <HAL_UART_RxCpltCallback+0x34>)
 80016ac:	4804      	ldr	r0, [pc, #16]	; (80016c0 <HAL_UART_RxCpltCallback+0x38>)
 80016ae:	e8bd 4008 	ldmia.w	sp!, {r3, lr}
 80016b2:	f003 bdab 	b.w	800520c <HAL_UART_Receive_IT>
 80016b6:	bf00      	nop
 80016b8:	20000128 	.word	0x20000128
 80016bc:	200000dc 	.word	0x200000dc
 80016c0:	20000718 	.word	0x20000718

080016c4 <HAL_TIM_PeriodElapsedCallback>:
 80016c4:	6802      	ldr	r2, [r0, #0]
 80016c6:	4b03      	ldr	r3, [pc, #12]	; (80016d4 <HAL_TIM_PeriodElapsedCallback+0x10>)
 80016c8:	429a      	cmp	r2, r3
 80016ca:	d101      	bne.n	80016d0 <HAL_TIM_PeriodElapsedCallback+0xc>
 80016cc:	f000 bd56 	b.w	800217c <HAL_IncTick>
 80016d0:	4770      	bx	lr
 80016d2:	bf00      	nop
 80016d4:	40001000 	.word	0x40001000

080016d8 <Error_Handler>:
 80016d8:	b672      	cpsid	i
 80016da:	e7fe      	b.n	80016da <Error_Handler+0x2>

080016dc <MX_SPI1_Init>:
 80016dc:	b508      	push	{r3, lr}
 80016de:	4812      	ldr	r0, [pc, #72]	; (8001728 <MX_SPI1_Init+0x4c>)
 80016e0:	f44f 7382 	mov.w	r3, #260	; 0x104
 80016e4:	4a11      	ldr	r2, [pc, #68]	; (800172c <MX_SPI1_Init+0x50>)
 80016e6:	f44f 4100 	mov.w	r1, #32768	; 0x8000
 80016ea:	f44f 7c00 	mov.w	ip, #512	; 0x200
 80016ee:	e9c0 2300 	strd	r2, r3, [r0]
 80016f2:	f44f 63e0 	mov.w	r3, #1792	; 0x700
 80016f6:	2218      	movs	r2, #24
 80016f8:	e9c0 1302 	strd	r1, r3, [r0, #8]
 80016fc:	e9c0 c206 	strd	ip, r2, [r0, #24]
 8001700:	2300      	movs	r3, #0
 8001702:	2207      	movs	r2, #7
 8001704:	e9c0 3304 	strd	r3, r3, [r0, #16]
 8001708:	e9c0 3308 	strd	r3, r3, [r0, #32]
 800170c:	6283      	str	r3, [r0, #40]	; 0x28
 800170e:	e9c0 230b 	strd	r2, r3, [r0, #44]	; 0x2c
 8001712:	2308      	movs	r3, #8
 8001714:	6343      	str	r3, [r0, #52]	; 0x34
 8001716:	f002 fa59 	bl	8003bcc <HAL_SPI_Init>
 800171a:	b118      	cbz	r0, 8001724 <MX_SPI1_Init+0x48>
 800171c:	e8bd 4008 	ldmia.w	sp!, {r3, lr}
 8001720:	f7ff bfda 	b.w	80016d8 <Error_Handler>
 8001724:	bd08      	pop	{r3, pc}
 8001726:	bf00      	nop
 8001728:	20000210 	.word	0x20000210
 800172c:	40013000 	.word	0x40013000

08001730 <HAL_SPI_MspInit>:
 8001730:	b5f0      	push	{r4, r5, r6, r7, lr}
 8001732:	b089      	sub	sp, #36	; 0x24
 8001734:	4606      	mov	r6, r0
 8001736:	2214      	movs	r2, #20
 8001738:	2100      	movs	r1, #0
 800173a:	a803      	add	r0, sp, #12
 800173c:	f005 fe87 	bl	800744e <memset>
 8001740:	6832      	ldr	r2, [r6, #0]
 8001742:	4b29      	ldr	r3, [pc, #164]	; (80017e8 <HAL_SPI_MspInit+0xb8>)
 8001744:	429a      	cmp	r2, r3
 8001746:	d14c      	bne.n	80017e2 <HAL_SPI_MspInit+0xb2>
 8001748:	f503 3384 	add.w	r3, r3, #67584	; 0x10800
 800174c:	2502      	movs	r5, #2
 800174e:	2405      	movs	r4, #5
 8001750:	2703      	movs	r7, #3
 8001752:	6c5a      	ldr	r2, [r3, #68]	; 0x44
 8001754:	a903      	add	r1, sp, #12
 8001756:	4825      	ldr	r0, [pc, #148]	; (80017ec <HAL_SPI_MspInit+0xbc>)
 8001758:	f442 5280 	orr.w	r2, r2, #4096	; 0x1000
 800175c:	645a      	str	r2, [r3, #68]	; 0x44
 800175e:	6c5a      	ldr	r2, [r3, #68]	; 0x44
 8001760:	f402 5280 	and.w	r2, r2, #4096	; 0x1000
 8001764:	9200      	str	r2, [sp, #0]
 8001766:	9a00      	ldr	r2, [sp, #0]
 8001768:	6b1a      	ldr	r2, [r3, #48]	; 0x30
 800176a:	f042 0201 	orr.w	r2, r2, #1
 800176e:	631a      	str	r2, [r3, #48]	; 0x30
 8001770:	6b1a      	ldr	r2, [r3, #48]	; 0x30
 8001772:	f002 0201 	and.w	r2, r2, #1
 8001776:	9201      	str	r2, [sp, #4]
 8001778:	9a01      	ldr	r2, [sp, #4]
 800177a:	6b1a      	ldr	r2, [r3, #48]	; 0x30
 800177c:	f042 0208 	orr.w	r2, r2, #8
 8001780:	631a      	str	r2, [r3, #48]	; 0x30
 8001782:	6b1b      	ldr	r3, [r3, #48]	; 0x30
 8001784:	f003 0308 	and.w	r3, r3, #8
 8001788:	9302      	str	r3, [sp, #8]
 800178a:	9b02      	ldr	r3, [sp, #8]
 800178c:	2320      	movs	r3, #32
 800178e:	e9cd 7406 	strd	r7, r4, [sp, #24]
 8001792:	e9cd 3503 	strd	r3, r5, [sp, #12]
 8001796:	f000 ffed 	bl	8002774 <HAL_GPIO_Init>
 800179a:	2380      	movs	r3, #128	; 0x80
 800179c:	4814      	ldr	r0, [pc, #80]	; (80017f0 <HAL_SPI_MspInit+0xc0>)
 800179e:	a903      	add	r1, sp, #12
 80017a0:	9407      	str	r4, [sp, #28]
 80017a2:	4c14      	ldr	r4, [pc, #80]	; (80017f4 <HAL_SPI_MspInit+0xc4>)
 80017a4:	e9cd 3503 	strd	r3, r5, [sp, #12]
 80017a8:	2500      	movs	r5, #0
 80017aa:	e9cd 5705 	strd	r5, r7, [sp, #20]
 80017ae:	f000 ffe1 	bl	8002774 <HAL_GPIO_Init>
 80017b2:	f04f 63c0 	mov.w	r3, #100663296	; 0x6000000
 80017b6:	4a10      	ldr	r2, [pc, #64]	; (80017f8 <HAL_SPI_MspInit+0xc8>)
 80017b8:	4620      	mov	r0, r4
 80017ba:	e9c4 2300 	strd	r2, r3, [r4]
 80017be:	2340      	movs	r3, #64	; 0x40
 80017c0:	e9c4 3502 	strd	r3, r5, [r4, #8]
 80017c4:	f44f 6380 	mov.w	r3, #1024	; 0x400
 80017c8:	e9c4 5506 	strd	r5, r5, [r4, #24]
 80017cc:	e9c4 3504 	strd	r3, r5, [r4, #16]
 80017d0:	e9c4 5508 	strd	r5, r5, [r4, #32]
 80017d4:	f000 fe04 	bl	80023e0 <HAL_DMA_Init>
 80017d8:	b108      	cbz	r0, 80017de <HAL_SPI_MspInit+0xae>
 80017da:	f7ff ff7d 	bl	80016d8 <Error_Handler>
 80017de:	6574      	str	r4, [r6, #84]	; 0x54
 80017e0:	63a6      	str	r6, [r4, #56]	; 0x38
 80017e2:	b009      	add	sp, #36	; 0x24
 80017e4:	bdf0      	pop	{r4, r5, r6, r7, pc}
 80017e6:	bf00      	nop
 80017e8:	40013000 	.word	0x40013000
 80017ec:	40020000 	.word	0x40020000
 80017f0:	40020c00 	.word	0x40020c00
 80017f4:	200001b0 	.word	0x200001b0
 80017f8:	40026458 	.word	0x40026458

080017fc <ssd1306_WriteCommand>:
 80017fc:	b57f      	push	{r0, r1, r2, r3, r4, r5, r6, lr}
 80017fe:	2301      	movs	r3, #1
 8001800:	f04f 32ff 	mov.w	r2, #4294967295
 8001804:	2178      	movs	r1, #120	; 0x78
 8001806:	f88d 0017 	strb.w	r0, [sp, #23]
 800180a:	4806      	ldr	r0, [pc, #24]	; (8001824 <ssd1306_WriteCommand+0x28>)
 800180c:	e9cd 3201 	strd	r3, r2, [sp, #4]
 8001810:	f10d 0217 	add.w	r2, sp, #23
 8001814:	9200      	str	r2, [sp, #0]
 8001816:	2200      	movs	r2, #0
 8001818:	f001 fa08 	bl	8002c2c <HAL_I2C_Mem_Write>
 800181c:	b007      	add	sp, #28
 800181e:	f85d fb04 	ldr.w	pc, [sp], #4
 8001822:	bf00      	nop
 8001824:	2000015c 	.word	0x2000015c

08001828 <ssd1306_WriteData>:
 8001828:	b51f      	push	{r0, r1, r2, r3, r4, lr}
 800182a:	f04f 33ff 	mov.w	r3, #4294967295
 800182e:	b289      	uxth	r1, r1
 8001830:	2240      	movs	r2, #64	; 0x40
 8001832:	9302      	str	r3, [sp, #8]
 8001834:	2301      	movs	r3, #1
 8001836:	e9cd 0100 	strd	r0, r1, [sp]
 800183a:	2178      	movs	r1, #120	; 0x78
 800183c:	4802      	ldr	r0, [pc, #8]	; (8001848 <ssd1306_WriteData+0x20>)
 800183e:	f001 f9f5 	bl	8002c2c <HAL_I2C_Mem_Write>
 8001842:	b005      	add	sp, #20
 8001844:	f85d fb04 	ldr.w	pc, [sp], #4
 8001848:	2000015c 	.word	0x2000015c

0800184c <ssd1306_Fill>:
 800184c:	2800      	cmp	r0, #0
 800184e:	f44f 6280 	mov.w	r2, #1024	; 0x400
 8001852:	4803      	ldr	r0, [pc, #12]	; (8001860 <ssd1306_Fill+0x14>)
 8001854:	bf14      	ite	ne
 8001856:	21ff      	movne	r1, #255	; 0xff
 8001858:	2100      	moveq	r1, #0
 800185a:	f005 bdf8 	b.w	800744e <memset>
 800185e:	bf00      	nop
 8001860:	2000027a 	.word	0x2000027a

08001864 <ssd1306_UpdateScreen>:
 8001864:	b538      	push	{r3, r4, r5, lr}
 8001866:	4d0a      	ldr	r5, [pc, #40]	; (8001890 <ssd1306_UpdateScreen+0x2c>)
 8001868:	24b0      	movs	r4, #176	; 0xb0
 800186a:	4620      	mov	r0, r4
 800186c:	3401      	adds	r4, #1
 800186e:	f7ff ffc5 	bl	80017fc <ssd1306_WriteCommand>
 8001872:	2000      	movs	r0, #0
 8001874:	f7ff ffc2 	bl	80017fc <ssd1306_WriteCommand>
 8001878:	2010      	movs	r0, #16
 800187a:	b2e4      	uxtb	r4, r4
 800187c:	f7ff ffbe 	bl	80017fc <ssd1306_WriteCommand>
 8001880:	4628      	mov	r0, r5
 8001882:	2180      	movs	r1, #128	; 0x80
 8001884:	3580      	adds	r5, #128	; 0x80
 8001886:	f7ff ffcf 	bl	8001828 <ssd1306_WriteData>
 800188a:	2cb8      	cmp	r4, #184	; 0xb8
 800188c:	d1ed      	bne.n	800186a <ssd1306_UpdateScreen+0x6>
 800188e:	bd38      	pop	{r3, r4, r5, pc}
 8001890:	2000027a 	.word	0x2000027a

08001894 <ssd1306_DrawPixel>:
 8001894:	0603      	lsls	r3, r0, #24
 8001896:	b530      	push	{r4, r5, lr}
 8001898:	d410      	bmi.n	80018bc <ssd1306_DrawPixel+0x28>
 800189a:	293f      	cmp	r1, #63	; 0x3f
 800189c:	d80e      	bhi.n	80018bc <ssd1306_DrawPixel+0x28>
 800189e:	08cb      	lsrs	r3, r1, #3
 80018a0:	4d07      	ldr	r5, [pc, #28]	; (80018c0 <ssd1306_DrawPixel+0x2c>)
 80018a2:	2401      	movs	r4, #1
 80018a4:	f001 0107 	and.w	r1, r1, #7
 80018a8:	eb00 10c3 	add.w	r0, r0, r3, lsl #7
 80018ac:	fa04 f101 	lsl.w	r1, r4, r1
 80018b0:	42a2      	cmp	r2, r4
 80018b2:	5c2b      	ldrb	r3, [r5, r0]
 80018b4:	bf0c      	ite	eq
 80018b6:	430b      	orreq	r3, r1
 80018b8:	438b      	bicne	r3, r1
 80018ba:	542b      	strb	r3, [r5, r0]
 80018bc:	bd30      	pop	{r4, r5, pc}
 80018be:	bf00      	nop
 80018c0:	2000027a 	.word	0x2000027a

080018c4 <ssd1306_WriteChar>:
 80018c4:	e92d 4ff0 	stmdb	sp!, {r4, r5, r6, r7, r8, r9, sl, fp, lr}
 80018c8:	4605      	mov	r5, r0
 80018ca:	b087      	sub	sp, #28
 80018cc:	f1a5 0420 	sub.w	r4, r5, #32
 80018d0:	9301      	str	r3, [sp, #4]
 80018d2:	a806      	add	r0, sp, #24
 80018d4:	b2e3      	uxtb	r3, r4
 80018d6:	2b5e      	cmp	r3, #94	; 0x5e
 80018d8:	e900 0006 	stmdb	r0, {r1, r2}
 80018dc:	d840      	bhi.n	8001960 <ssd1306_WriteChar+0x9c>
 80018de:	f8df a084 	ldr.w	sl, [pc, #132]	; 8001964 <ssd1306_WriteChar+0xa0>
 80018e2:	f89d b010 	ldrb.w	fp, [sp, #16]
 80018e6:	f8ba 6000 	ldrh.w	r6, [sl]
 80018ea:	eb06 030b 	add.w	r3, r6, fp
 80018ee:	2b80      	cmp	r3, #128	; 0x80
 80018f0:	dc36      	bgt.n	8001960 <ssd1306_WriteChar+0x9c>
 80018f2:	f8ba 3002 	ldrh.w	r3, [sl, #2]
 80018f6:	f89d 9011 	ldrb.w	r9, [sp, #17]
 80018fa:	9300      	str	r3, [sp, #0]
 80018fc:	eb03 0209 	add.w	r2, r3, r9
 8001900:	2a40      	cmp	r2, #64	; 0x40
 8001902:	dc2d      	bgt.n	8001960 <ssd1306_WriteChar+0x9c>
 8001904:	fb09 f404 	mul.w	r4, r9, r4
 8001908:	f04f 0800 	mov.w	r8, #0
 800190c:	0064      	lsls	r4, r4, #1
 800190e:	45c1      	cmp	r9, r8
 8001910:	d806      	bhi.n	8001920 <ssd1306_WriteChar+0x5c>
 8001912:	445e      	add	r6, fp
 8001914:	f8aa 6000 	strh.w	r6, [sl]
 8001918:	4628      	mov	r0, r5
 800191a:	b007      	add	sp, #28
 800191c:	e8bd 8ff0 	ldmia.w	sp!, {r4, r5, r6, r7, r8, r9, sl, fp, pc}
 8001920:	9a05      	ldr	r2, [sp, #20]
 8001922:	2700      	movs	r7, #0
 8001924:	5b13      	ldrh	r3, [r2, r4]
 8001926:	9302      	str	r3, [sp, #8]
 8001928:	9b00      	ldr	r3, [sp, #0]
 800192a:	eb08 0103 	add.w	r1, r8, r3
 800192e:	b2c9      	uxtb	r1, r1
 8001930:	45bb      	cmp	fp, r7
 8001932:	d803      	bhi.n	800193c <ssd1306_WriteChar+0x78>
 8001934:	f108 0801 	add.w	r8, r8, #1
 8001938:	3402      	adds	r4, #2
 800193a:	e7e8      	b.n	800190e <ssd1306_WriteChar+0x4a>
 800193c:	9b02      	ldr	r3, [sp, #8]
 800193e:	19b8      	adds	r0, r7, r6
 8001940:	9103      	str	r1, [sp, #12]
 8001942:	fa03 f207 	lsl.w	r2, r3, r7
 8001946:	b2c0      	uxtb	r0, r0
 8001948:	3701      	adds	r7, #1
 800194a:	0413      	lsls	r3, r2, #16
 800194c:	bf57      	itett	pl
 800194e:	9b01      	ldrpl	r3, [sp, #4]
 8001950:	9a01      	ldrmi	r2, [sp, #4]
 8001952:	fab3 f283 	clzpl	r2, r3
 8001956:	0952      	lsrpl	r2, r2, #5
 8001958:	f7ff ff9c 	bl	8001894 <ssd1306_DrawPixel>
 800195c:	9903      	ldr	r1, [sp, #12]
 800195e:	e7e7      	b.n	8001930 <ssd1306_WriteChar+0x6c>
 8001960:	2500      	movs	r5, #0
 8001962:	e7d9      	b.n	8001918 <ssd1306_WriteChar+0x54>
 8001964:	20000274 	.word	0x20000274

08001968 <ssd1306_WriteString>:
 8001968:	b5f7      	push	{r0, r1, r2, r4, r5, r6, r7, lr}
 800196a:	461f      	mov	r7, r3
 800196c:	466e      	mov	r6, sp
 800196e:	1e45      	subs	r5, r0, #1
 8001970:	e886 0006 	stmia.w	r6, {r1, r2}
 8001974:	f815 4f01 	ldrb.w	r4, [r5, #1]!
 8001978:	b144      	cbz	r4, 800198c <ssd1306_WriteString+0x24>
 800197a:	4620      	mov	r0, r4
 800197c:	463b      	mov	r3, r7
 800197e:	e896 0006 	ldmia.w	r6, {r1, r2}
 8001982:	f7ff ff9f 	bl	80018c4 <ssd1306_WriteChar>
 8001986:	782c      	ldrb	r4, [r5, #0]
 8001988:	42a0      	cmp	r0, r4
 800198a:	d0f3      	beq.n	8001974 <ssd1306_WriteString+0xc>
 800198c:	4620      	mov	r0, r4
 800198e:	b003      	add	sp, #12
 8001990:	bdf0      	pop	{r4, r5, r6, r7, pc}
	...

08001994 <ssd1306_SetCursor>:
 8001994:	4b01      	ldr	r3, [pc, #4]	; (800199c <ssd1306_SetCursor+0x8>)
 8001996:	8018      	strh	r0, [r3, #0]
 8001998:	8059      	strh	r1, [r3, #2]
 800199a:	4770      	bx	lr
 800199c:	20000274 	.word	0x20000274

080019a0 <ssd1306_SetContrast>:
 80019a0:	b510      	push	{r4, lr}
 80019a2:	4604      	mov	r4, r0
 80019a4:	2081      	movs	r0, #129	; 0x81
 80019a6:	f7ff ff29 	bl	80017fc <ssd1306_WriteCommand>
 80019aa:	4620      	mov	r0, r4
 80019ac:	e8bd 4010 	ldmia.w	sp!, {r4, lr}
 80019b0:	f7ff bf24 	b.w	80017fc <ssd1306_WriteCommand>

080019b4 <ssd1306_SetDisplayOn>:
 80019b4:	4602      	mov	r2, r0
 80019b6:	2800      	cmp	r0, #0
 80019b8:	4603      	mov	r3, r0
 80019ba:	bf0c      	ite	eq
 80019bc:	4613      	moveq	r3, r2
 80019be:	2301      	movne	r3, #1
 80019c0:	4a03      	ldr	r2, [pc, #12]	; (80019d0 <ssd1306_SetDisplayOn+0x1c>)
 80019c2:	bf14      	ite	ne
 80019c4:	20af      	movne	r0, #175	; 0xaf
 80019c6:	20ae      	moveq	r0, #174	; 0xae
 80019c8:	7153      	strb	r3, [r2, #5]
 80019ca:	f7ff bf17 	b.w	80017fc <ssd1306_WriteCommand>
 80019ce:	bf00      	nop
 80019d0:	20000274 	.word	0x20000274

080019d4 <ssd1306_Init>:
 80019d4:	b508      	push	{r3, lr}
 80019d6:	2064      	movs	r0, #100	; 0x64
 80019d8:	f000 fbe2 	bl	80021a0 <HAL_Delay>
 80019dc:	2000      	movs	r0, #0
 80019de:	f7ff ffe9 	bl	80019b4 <ssd1306_SetDisplayOn>
 80019e2:	2020      	movs	r0, #32
 80019e4:	f7ff ff0a 	bl	80017fc <ssd1306_WriteCommand>
 80019e8:	2000      	movs	r0, #0
 80019ea:	f7ff ff07 	bl	80017fc <ssd1306_WriteCommand>
 80019ee:	20b0      	movs	r0, #176	; 0xb0
 80019f0:	f7ff ff04 	bl	80017fc <ssd1306_WriteCommand>
 80019f4:	20c8      	movs	r0, #200	; 0xc8
 80019f6:	f7ff ff01 	bl	80017fc <ssd1306_WriteCommand>
 80019fa:	2000      	movs	r0, #0
 80019fc:	f7ff fefe 	bl	80017fc <ssd1306_WriteCommand>
 8001a00:	2010      	movs	r0, #16
 8001a02:	f7ff fefb 	bl	80017fc <ssd1306_WriteCommand>
 8001a06:	2040      	movs	r0, #64	; 0x40
 8001a08:	f7ff fef8 	bl	80017fc <ssd1306_WriteCommand>
 8001a0c:	20ff      	movs	r0, #255	; 0xff
 8001a0e:	f7ff ffc7 	bl	80019a0 <ssd1306_SetContrast>
 8001a12:	20a1      	movs	r0, #161	; 0xa1
 8001a14:	f7ff fef2 	bl	80017fc <ssd1306_WriteCommand>
 8001a18:	20a6      	movs	r0, #166	; 0xa6
 8001a1a:	f7ff feef 	bl	80017fc <ssd1306_WriteCommand>
 8001a1e:	20a8      	movs	r0, #168	; 0xa8
 8001a20:	f7ff feec 	bl	80017fc <ssd1306_WriteCommand>
 8001a24:	203f      	movs	r0, #63	; 0x3f
 8001a26:	f7ff fee9 	bl	80017fc <ssd1306_WriteCommand>
 8001a2a:	20a4      	movs	r0, #164	; 0xa4
 8001a2c:	f7ff fee6 	bl	80017fc <ssd1306_WriteCommand>
 8001a30:	20d3      	movs	r0, #211	; 0xd3
 8001a32:	f7ff fee3 	bl	80017fc <ssd1306_WriteCommand>
 8001a36:	2000      	movs	r0, #0
 8001a38:	f7ff fee0 	bl	80017fc <ssd1306_WriteCommand>
 8001a3c:	20d5      	movs	r0, #213	; 0xd5
 8001a3e:	f7ff fedd 	bl	80017fc <ssd1306_WriteCommand>
 8001a42:	20f0      	movs	r0, #240	; 0xf0
 8001a44:	f7ff feda 	bl	80017fc <ssd1306_WriteCommand>
 8001a48:	20d9      	movs	r0, #217	; 0xd9
 8001a4a:	f7ff fed7 	bl	80017fc <ssd1306_WriteCommand>
 8001a4e:	2022      	movs	r0, #34	; 0x22
 8001a50:	f7ff fed4 	bl	80017fc <ssd1306_WriteCommand>
 8001a54:	20da      	movs	r0, #218	; 0xda
 8001a56:	f7ff fed1 	bl	80017fc <ssd1306_WriteCommand>
 8001a5a:	2012      	movs	r0, #18
 8001a5c:	f7ff fece 	bl	80017fc <ssd1306_WriteCommand>
 8001a60:	20db      	movs	r0, #219	; 0xdb
 8001a62:	f7ff fecb 	bl	80017fc <ssd1306_WriteCommand>
 8001a66:	2020      	movs	r0, #32
 8001a68:	f7ff fec8 	bl	80017fc <ssd1306_WriteCommand>
 8001a6c:	208d      	movs	r0, #141	; 0x8d
 8001a6e:	f7ff fec5 	bl	80017fc <ssd1306_WriteCommand>
 8001a72:	2014      	movs	r0, #20
 8001a74:	f7ff fec2 	bl	80017fc <ssd1306_WriteCommand>
 8001a78:	2001      	movs	r0, #1
 8001a7a:	f7ff ff9b 	bl	80019b4 <ssd1306_SetDisplayOn>
 8001a7e:	2000      	movs	r0, #0
 8001a80:	f7ff fee4 	bl	800184c <ssd1306_Fill>
 8001a84:	f7ff feee 	bl	8001864 <ssd1306_UpdateScreen>
 8001a88:	4b03      	ldr	r3, [pc, #12]	; (8001a98 <ssd1306_Init+0xc4>)
 8001a8a:	2200      	movs	r2, #0
 8001a8c:	801a      	strh	r2, [r3, #0]
 8001a8e:	805a      	strh	r2, [r3, #2]
 8001a90:	2201      	movs	r2, #1
 8001a92:	711a      	strb	r2, [r3, #4]
 8001a94:	bd08      	pop	{r3, pc}
 8001a96:	bf00      	nop
 8001a98:	20000274 	.word	0x20000274

08001a9c <HAL_MspInit>:
 8001a9c:	4b0d      	ldr	r3, [pc, #52]	; (8001ad4 <HAL_MspInit+0x38>)
 8001a9e:	b082      	sub	sp, #8
 8001aa0:	210f      	movs	r1, #15
 8001aa2:	f06f 0001 	mvn.w	r0, #1
 8001aa6:	6c1a      	ldr	r2, [r3, #64]	; 0x40
 8001aa8:	f042 5280 	orr.w	r2, r2, #268435456	; 0x10000000
 8001aac:	641a      	str	r2, [r3, #64]	; 0x40
 8001aae:	6c1a      	ldr	r2, [r3, #64]	; 0x40
 8001ab0:	f002 5280 	and.w	r2, r2, #268435456	; 0x10000000
 8001ab4:	9200      	str	r2, [sp, #0]
 8001ab6:	9a00      	ldr	r2, [sp, #0]
 8001ab8:	6c5a      	ldr	r2, [r3, #68]	; 0x44
 8001aba:	f442 4280 	orr.w	r2, r2, #16384	; 0x4000
 8001abe:	645a      	str	r2, [r3, #68]	; 0x44
 8001ac0:	2200      	movs	r2, #0
 8001ac2:	6c5b      	ldr	r3, [r3, #68]	; 0x44
 8001ac4:	f403 4380 	and.w	r3, r3, #16384	; 0x4000
 8001ac8:	9301      	str	r3, [sp, #4]
 8001aca:	9b01      	ldr	r3, [sp, #4]
 8001acc:	b002      	add	sp, #8
 8001ace:	f000 bb8b 	b.w	80021e8 <HAL_NVIC_SetPriority>
 8001ad2:	bf00      	nop
 8001ad4:	40023800 	.word	0x40023800

08001ad8 <HAL_InitTick>:
 8001ad8:	4b21      	ldr	r3, [pc, #132]	; (8001b60 <HAL_InitTick+0x88>)
 8001ada:	6c1a      	ldr	r2, [r3, #64]	; 0x40
 8001adc:	f042 0210 	orr.w	r2, r2, #16
 8001ae0:	b570      	push	{r4, r5, r6, lr}
 8001ae2:	641a      	str	r2, [r3, #64]	; 0x40
 8001ae4:	b088      	sub	sp, #32
 8001ae6:	6c1b      	ldr	r3, [r3, #64]	; 0x40
 8001ae8:	4605      	mov	r5, r0
 8001aea:	a901      	add	r1, sp, #4
 8001aec:	a803      	add	r0, sp, #12
 8001aee:	f003 0310 	and.w	r3, r3, #16
 8001af2:	9302      	str	r3, [sp, #8]
 8001af4:	9b02      	ldr	r3, [sp, #8]
 8001af6:	f001 fca5 	bl	8003444 <HAL_RCC_GetClockConfig>
 8001afa:	9b06      	ldr	r3, [sp, #24]
 8001afc:	bb4b      	cbnz	r3, 8001b52 <HAL_InitTick+0x7a>
 8001afe:	f001 fc81 	bl	8003404 <HAL_RCC_GetPCLK1Freq>
 8001b02:	4e18      	ldr	r6, [pc, #96]	; (8001b64 <HAL_InitTick+0x8c>)
 8001b04:	4b18      	ldr	r3, [pc, #96]	; (8001b68 <HAL_InitTick+0x90>)
 8001b06:	6033      	str	r3, [r6, #0]
 8001b08:	f240 33e7 	movw	r3, #999	; 0x3e7
 8001b0c:	60f3      	str	r3, [r6, #12]
 8001b0e:	4b17      	ldr	r3, [pc, #92]	; (8001b6c <HAL_InitTick+0x94>)
 8001b10:	fbb0 f3f3 	udiv	r3, r0, r3
 8001b14:	3b01      	subs	r3, #1
 8001b16:	4630      	mov	r0, r6
 8001b18:	6073      	str	r3, [r6, #4]
 8001b1a:	2300      	movs	r3, #0
 8001b1c:	6133      	str	r3, [r6, #16]
 8001b1e:	60b3      	str	r3, [r6, #8]
 8001b20:	61b3      	str	r3, [r6, #24]
 8001b22:	f002 fc97 	bl	8004454 <HAL_TIM_Base_Init>
 8001b26:	4604      	mov	r4, r0
 8001b28:	b980      	cbnz	r0, 8001b4c <HAL_InitTick+0x74>
 8001b2a:	4630      	mov	r0, r6
 8001b2c:	f002 fb3a 	bl	80041a4 <HAL_TIM_Base_Start_IT>
 8001b30:	4604      	mov	r4, r0
 8001b32:	b958      	cbnz	r0, 8001b4c <HAL_InitTick+0x74>
 8001b34:	2036      	movs	r0, #54	; 0x36
 8001b36:	f000 fb89 	bl	800224c <HAL_NVIC_EnableIRQ>
 8001b3a:	2d0f      	cmp	r5, #15
 8001b3c:	d80d      	bhi.n	8001b5a <HAL_InitTick+0x82>
 8001b3e:	4622      	mov	r2, r4
 8001b40:	4629      	mov	r1, r5
 8001b42:	2036      	movs	r0, #54	; 0x36
 8001b44:	f000 fb50 	bl	80021e8 <HAL_NVIC_SetPriority>
 8001b48:	4b09      	ldr	r3, [pc, #36]	; (8001b70 <HAL_InitTick+0x98>)
 8001b4a:	601d      	str	r5, [r3, #0]
 8001b4c:	4620      	mov	r0, r4
 8001b4e:	b008      	add	sp, #32
 8001b50:	bd70      	pop	{r4, r5, r6, pc}
 8001b52:	f001 fc57 	bl	8003404 <HAL_RCC_GetPCLK1Freq>
 8001b56:	0040      	lsls	r0, r0, #1
 8001b58:	e7d3      	b.n	8001b02 <HAL_InitTick+0x2a>
 8001b5a:	2401      	movs	r4, #1
 8001b5c:	e7f6      	b.n	8001b4c <HAL_InitTick+0x74>
 8001b5e:	bf00      	nop
 8001b60:	40023800 	.word	0x40023800
 8001b64:	2000067c 	.word	0x2000067c
 8001b68:	40001000 	.word	0x40001000
 8001b6c:	000f4240 	.word	0x000f4240
 8001b70:	20000054 	.word	0x20000054

08001b74 <NMI_Handler>:
 8001b74:	e7fe      	b.n	8001b74 <NMI_Handler>

08001b76 <HardFault_Handler>:
 8001b76:	e7fe      	b.n	8001b76 <HardFault_Handler>

08001b78 <MemManage_Handler>:
 8001b78:	e7fe      	b.n	8001b78 <MemManage_Handler>

08001b7a <BusFault_Handler>:
 8001b7a:	e7fe      	b.n	8001b7a <BusFault_Handler>

08001b7c <UsageFault_Handler>:
 8001b7c:	e7fe      	b.n	8001b7c <UsageFault_Handler>

08001b7e <DebugMon_Handler>:
 8001b7e:	4770      	bx	lr

08001b80 <TIM6_DAC_IRQHandler>:
 8001b80:	4805      	ldr	r0, [pc, #20]	; (8001b98 <TIM6_DAC_IRQHandler+0x18>)
 8001b82:	b508      	push	{r3, lr}
 8001b84:	7903      	ldrb	r3, [r0, #4]
 8001b86:	b10b      	cbz	r3, 8001b8c <TIM6_DAC_IRQHandler+0xc>
 8001b88:	f000 fbbe 	bl	8002308 <HAL_DAC_IRQHandler>
 8001b8c:	4803      	ldr	r0, [pc, #12]	; (8001b9c <TIM6_DAC_IRQHandler+0x1c>)
 8001b8e:	e8bd 4008 	ldmia.w	sp!, {r3, lr}
 8001b92:	f002 bb49 	b.w	8004228 <HAL_TIM_IRQHandler>
 8001b96:	bf00      	nop
 8001b98:	20000100 	.word	0x20000100
 8001b9c:	2000067c 	.word	0x2000067c

08001ba0 <DMA2_Stream3_IRQHandler>:
 8001ba0:	4801      	ldr	r0, [pc, #4]	; (8001ba8 <DMA2_Stream3_IRQHandler+0x8>)
 8001ba2:	f000 bd29 	b.w	80025f8 <HAL_DMA_IRQHandler>
 8001ba6:	bf00      	nop
 8001ba8:	200001b0 	.word	0x200001b0

08001bac <USART6_IRQHandler>:
 8001bac:	4801      	ldr	r0, [pc, #4]	; (8001bb4 <USART6_IRQHandler+0x8>)
 8001bae:	f002 bf27 	b.w	8004a00 <HAL_UART_IRQHandler>
 8001bb2:	bf00      	nop
 8001bb4:	20000718 	.word	0x20000718

08001bb8 <_read>:
 8001bb8:	b570      	push	{r4, r5, r6, lr}
 8001bba:	460d      	mov	r5, r1
 8001bbc:	4614      	mov	r4, r2
 8001bbe:	460e      	mov	r6, r1
 8001bc0:	1b73      	subs	r3, r6, r5
 8001bc2:	429c      	cmp	r4, r3
 8001bc4:	dc01      	bgt.n	8001bca <_read+0x12>
 8001bc6:	4620      	mov	r0, r4
 8001bc8:	bd70      	pop	{r4, r5, r6, pc}
 8001bca:	f3af 8000 	nop.w
 8001bce:	f806 0b01 	strb.w	r0, [r6], #1
 8001bd2:	e7f5      	b.n	8001bc0 <_read+0x8>

08001bd4 <_write>:
 8001bd4:	b570      	push	{r4, r5, r6, lr}
 8001bd6:	460d      	mov	r5, r1
 8001bd8:	4614      	mov	r4, r2
 8001bda:	460e      	mov	r6, r1
 8001bdc:	1b73      	subs	r3, r6, r5
 8001bde:	429c      	cmp	r4, r3
 8001be0:	dc01      	bgt.n	8001be6 <_write+0x12>
 8001be2:	4620      	mov	r0, r4
 8001be4:	bd70      	pop	{r4, r5, r6, pc}
 8001be6:	f816 0b01 	ldrb.w	r0, [r6], #1
 8001bea:	f3af 8000 	nop.w
 8001bee:	e7f5      	b.n	8001bdc <_write+0x8>

08001bf0 <_close>:
 8001bf0:	f04f 30ff 	mov.w	r0, #4294967295
 8001bf4:	4770      	bx	lr

08001bf6 <_fstat>:
 8001bf6:	f44f 5300 	mov.w	r3, #8192	; 0x2000
 8001bfa:	2000      	movs	r0, #0
 8001bfc:	604b      	str	r3, [r1, #4]
 8001bfe:	4770      	bx	lr

08001c00 <_isatty>:
 8001c00:	2001      	movs	r0, #1
 8001c02:	4770      	bx	lr

08001c04 <_lseek>:
 8001c04:	2000      	movs	r0, #0
 8001c06:	4770      	bx	lr

08001c08 <_sbrk>:
 8001c08:	4a0b      	ldr	r2, [pc, #44]	; (8001c38 <_sbrk+0x30>)
 8001c0a:	4603      	mov	r3, r0
 8001c0c:	6811      	ldr	r1, [r2, #0]
 8001c0e:	b510      	push	{r4, lr}
 8001c10:	b909      	cbnz	r1, 8001c16 <_sbrk+0xe>
 8001c12:	490a      	ldr	r1, [pc, #40]	; (8001c3c <_sbrk+0x34>)
 8001c14:	6011      	str	r1, [r2, #0]
 8001c16:	6810      	ldr	r0, [r2, #0]
 8001c18:	4909      	ldr	r1, [pc, #36]	; (8001c40 <_sbrk+0x38>)
 8001c1a:	4c0a      	ldr	r4, [pc, #40]	; (8001c44 <_sbrk+0x3c>)
 8001c1c:	4403      	add	r3, r0
 8001c1e:	1b09      	subs	r1, r1, r4
 8001c20:	428b      	cmp	r3, r1
 8001c22:	d906      	bls.n	8001c32 <_sbrk+0x2a>
 8001c24:	f005 fcc6 	bl	80075b4 <__errno>
 8001c28:	230c      	movs	r3, #12
 8001c2a:	6003      	str	r3, [r0, #0]
 8001c2c:	f04f 30ff 	mov.w	r0, #4294967295
 8001c30:	bd10      	pop	{r4, pc}
 8001c32:	6013      	str	r3, [r2, #0]
 8001c34:	e7fc      	b.n	8001c30 <_sbrk+0x28>
 8001c36:	bf00      	nop
 8001c38:	200006c8 	.word	0x200006c8
 8001c3c:	20005310 	.word	0x20005310
 8001c40:	20080000 	.word	0x20080000
 8001c44:	00000400 	.word	0x00000400

08001c48 <SystemInit>:
 8001c48:	4a03      	ldr	r2, [pc, #12]	; (8001c58 <SystemInit+0x10>)
 8001c4a:	f8d2 3088 	ldr.w	r3, [r2, #136]	; 0x88
 8001c4e:	f443 0370 	orr.w	r3, r3, #15728640	; 0xf00000
 8001c52:	f8c2 3088 	str.w	r3, [r2, #136]	; 0x88
 8001c56:	4770      	bx	lr
 8001c58:	e000ed00 	.word	0xe000ed00

08001c5c <HAL_TIM_PWM_MspInit>:
 8001c5c:	6802      	ldr	r2, [r0, #0]
 8001c5e:	b082      	sub	sp, #8
 8001c60:	4b07      	ldr	r3, [pc, #28]	; (8001c80 <HAL_TIM_PWM_MspInit+0x24>)
 8001c62:	429a      	cmp	r2, r3
 8001c64:	d10a      	bne.n	8001c7c <HAL_TIM_PWM_MspInit+0x20>
 8001c66:	f503 330c 	add.w	r3, r3, #143360	; 0x23000
 8001c6a:	6c1a      	ldr	r2, [r3, #64]	; 0x40
 8001c6c:	f042 0204 	orr.w	r2, r2, #4
 8001c70:	641a      	str	r2, [r3, #64]	; 0x40
 8001c72:	6c1b      	ldr	r3, [r3, #64]	; 0x40
 8001c74:	f003 0304 	and.w	r3, r3, #4
 8001c78:	9301      	str	r3, [sp, #4]
 8001c7a:	9b01      	ldr	r3, [sp, #4]
 8001c7c:	b002      	add	sp, #8
 8001c7e:	4770      	bx	lr
 8001c80:	40000800 	.word	0x40000800

08001c84 <HAL_TIM_MspPostInit>:
 8001c84:	b510      	push	{r4, lr}
 8001c86:	b086      	sub	sp, #24
 8001c88:	4604      	mov	r4, r0
 8001c8a:	2214      	movs	r2, #20
 8001c8c:	2100      	movs	r1, #0
 8001c8e:	a801      	add	r0, sp, #4
 8001c90:	f005 fbdd 	bl	800744e <memset>
 8001c94:	6822      	ldr	r2, [r4, #0]
 8001c96:	4b0d      	ldr	r3, [pc, #52]	; (8001ccc <HAL_TIM_MspPostInit+0x48>)
 8001c98:	429a      	cmp	r2, r3
 8001c9a:	d114      	bne.n	8001cc6 <HAL_TIM_MspPostInit+0x42>
 8001c9c:	f503 330c 	add.w	r3, r3, #143360	; 0x23000
 8001ca0:	a901      	add	r1, sp, #4
 8001ca2:	480b      	ldr	r0, [pc, #44]	; (8001cd0 <HAL_TIM_MspPostInit+0x4c>)
 8001ca4:	6b1a      	ldr	r2, [r3, #48]	; 0x30
 8001ca6:	f042 0208 	orr.w	r2, r2, #8
 8001caa:	631a      	str	r2, [r3, #48]	; 0x30
 8001cac:	f44f 4280 	mov.w	r2, #16384	; 0x4000
 8001cb0:	6b1b      	ldr	r3, [r3, #48]	; 0x30
 8001cb2:	f003 0308 	and.w	r3, r3, #8
 8001cb6:	9300      	str	r3, [sp, #0]
 8001cb8:	9b00      	ldr	r3, [sp, #0]
 8001cba:	2302      	movs	r3, #2
 8001cbc:	e9cd 2301 	strd	r2, r3, [sp, #4]
 8001cc0:	9305      	str	r3, [sp, #20]
 8001cc2:	f000 fd57 	bl	8002774 <HAL_GPIO_Init>
 8001cc6:	b006      	add	sp, #24
 8001cc8:	bd10      	pop	{r4, pc}
 8001cca:	bf00      	nop
 8001ccc:	40000800 	.word	0x40000800
 8001cd0:	40020c00 	.word	0x40020c00

08001cd4 <MX_TIM4_Init>:
 8001cd4:	b510      	push	{r4, lr}
 8001cd6:	2400      	movs	r4, #0
 8001cd8:	b08a      	sub	sp, #40	; 0x28
 8001cda:	221c      	movs	r2, #28
 8001cdc:	4621      	mov	r1, r4
 8001cde:	a803      	add	r0, sp, #12
 8001ce0:	9402      	str	r4, [sp, #8]
 8001ce2:	e9cd 4400 	strd	r4, r4, [sp]
 8001ce6:	f005 fbb2 	bl	800744e <memset>
 8001cea:	4816      	ldr	r0, [pc, #88]	; (8001d44 <MX_TIM4_Init+0x70>)
 8001cec:	231f      	movs	r3, #31
 8001cee:	4916      	ldr	r1, [pc, #88]	; (8001d48 <MX_TIM4_Init+0x74>)
 8001cf0:	6084      	str	r4, [r0, #8]
 8001cf2:	6184      	str	r4, [r0, #24]
 8001cf4:	e9c0 1300 	strd	r1, r3, [r0]
 8001cf8:	f240 33e7 	movw	r3, #999	; 0x3e7
 8001cfc:	e9c0 3403 	strd	r3, r4, [r0, #12]
 8001d00:	f002 fbd8 	bl	80044b4 <HAL_TIM_PWM_Init>
 8001d04:	b108      	cbz	r0, 8001d0a <MX_TIM4_Init+0x36>
 8001d06:	f7ff fce7 	bl	80016d8 <Error_Handler>
 8001d0a:	4669      	mov	r1, sp
 8001d0c:	480d      	ldr	r0, [pc, #52]	; (8001d44 <MX_TIM4_Init+0x70>)
 8001d0e:	9400      	str	r4, [sp, #0]
 8001d10:	9402      	str	r4, [sp, #8]
 8001d12:	f002 fd51 	bl	80047b8 <HAL_TIMEx_MasterConfigSynchronization>
 8001d16:	b108      	cbz	r0, 8001d1c <MX_TIM4_Init+0x48>
 8001d18:	f7ff fcde 	bl	80016d8 <Error_Handler>
 8001d1c:	2300      	movs	r3, #0
 8001d1e:	2260      	movs	r2, #96	; 0x60
 8001d20:	a903      	add	r1, sp, #12
 8001d22:	4808      	ldr	r0, [pc, #32]	; (8001d44 <MX_TIM4_Init+0x70>)
 8001d24:	9305      	str	r3, [sp, #20]
 8001d26:	9307      	str	r3, [sp, #28]
 8001d28:	e9cd 2303 	strd	r2, r3, [sp, #12]
 8001d2c:	2208      	movs	r2, #8
 8001d2e:	f002 fc29 	bl	8004584 <HAL_TIM_PWM_ConfigChannel>
 8001d32:	b108      	cbz	r0, 8001d38 <MX_TIM4_Init+0x64>
 8001d34:	f7ff fcd0 	bl	80016d8 <Error_Handler>
 8001d38:	4802      	ldr	r0, [pc, #8]	; (8001d44 <MX_TIM4_Init+0x70>)
 8001d3a:	f7ff ffa3 	bl	8001c84 <HAL_TIM_MspPostInit>
 8001d3e:	b00a      	add	sp, #40	; 0x28
 8001d40:	bd10      	pop	{r4, pc}
 8001d42:	bf00      	nop
 8001d44:	200006cc 	.word	0x200006cc
 8001d48:	40000800 	.word	0x40000800

08001d4c <MX_USART6_UART_Init>:
 8001d4c:	b508      	push	{r3, lr}
 8001d4e:	480c      	ldr	r0, [pc, #48]	; (8001d80 <MX_USART6_UART_Init+0x34>)
 8001d50:	f44f 33e1 	mov.w	r3, #115200	; 0x1c200
 8001d54:	4a0b      	ldr	r2, [pc, #44]	; (8001d84 <MX_USART6_UART_Init+0x38>)
 8001d56:	e9c0 2300 	strd	r2, r3, [r0]
 8001d5a:	2300      	movs	r3, #0
 8001d5c:	220c      	movs	r2, #12
 8001d5e:	e9c0 3302 	strd	r3, r3, [r0, #8]
 8001d62:	6103      	str	r3, [r0, #16]
 8001d64:	6243      	str	r3, [r0, #36]	; 0x24
 8001d66:	e9c0 2305 	strd	r2, r3, [r0, #20]
 8001d6a:	e9c0 3307 	strd	r3, r3, [r0, #28]
 8001d6e:	f003 f9c3 	bl	80050f8 <HAL_UART_Init>
 8001d72:	b118      	cbz	r0, 8001d7c <MX_USART6_UART_Init+0x30>
 8001d74:	e8bd 4008 	ldmia.w	sp!, {r3, lr}
 8001d78:	f7ff bcae 	b.w	80016d8 <Error_Handler>
 8001d7c:	bd08      	pop	{r3, pc}
 8001d7e:	bf00      	nop
 8001d80:	20000718 	.word	0x20000718
 8001d84:	40011400 	.word	0x40011400

08001d88 <HAL_UART_MspInit>:
 8001d88:	b510      	push	{r4, lr}
 8001d8a:	b0ac      	sub	sp, #176	; 0xb0
 8001d8c:	4604      	mov	r4, r0
 8001d8e:	2214      	movs	r2, #20
 8001d90:	2100      	movs	r1, #0
 8001d92:	a803      	add	r0, sp, #12
 8001d94:	f005 fb5b 	bl	800744e <memset>
 8001d98:	2290      	movs	r2, #144	; 0x90
 8001d9a:	2100      	movs	r1, #0
 8001d9c:	a808      	add	r0, sp, #32
 8001d9e:	f005 fb56 	bl	800744e <memset>
 8001da2:	6822      	ldr	r2, [r4, #0]
 8001da4:	4b1b      	ldr	r3, [pc, #108]	; (8001e14 <HAL_UART_MspInit+0x8c>)
 8001da6:	429a      	cmp	r2, r3
 8001da8:	d132      	bne.n	8001e10 <HAL_UART_MspInit+0x88>
 8001daa:	f44f 6300 	mov.w	r3, #2048	; 0x800
 8001dae:	a808      	add	r0, sp, #32
 8001db0:	9308      	str	r3, [sp, #32]
 8001db2:	f001 fb65 	bl	8003480 <HAL_RCCEx_PeriphCLKConfig>
 8001db6:	b108      	cbz	r0, 8001dbc <HAL_UART_MspInit+0x34>
 8001db8:	f7ff fc8e 	bl	80016d8 <Error_Handler>
 8001dbc:	4b16      	ldr	r3, [pc, #88]	; (8001e18 <HAL_UART_MspInit+0x90>)
 8001dbe:	2400      	movs	r4, #0
 8001dc0:	a903      	add	r1, sp, #12
 8001dc2:	4816      	ldr	r0, [pc, #88]	; (8001e1c <HAL_UART_MspInit+0x94>)
 8001dc4:	6c5a      	ldr	r2, [r3, #68]	; 0x44
 8001dc6:	f042 0220 	orr.w	r2, r2, #32
 8001dca:	645a      	str	r2, [r3, #68]	; 0x44
 8001dcc:	6c5a      	ldr	r2, [r3, #68]	; 0x44
 8001dce:	f002 0220 	and.w	r2, r2, #32
 8001dd2:	9201      	str	r2, [sp, #4]
 8001dd4:	9a01      	ldr	r2, [sp, #4]
 8001dd6:	6b1a      	ldr	r2, [r3, #48]	; 0x30
 8001dd8:	f042 0240 	orr.w	r2, r2, #64	; 0x40
 8001ddc:	631a      	str	r2, [r3, #48]	; 0x30
 8001dde:	f44f 4284 	mov.w	r2, #16896	; 0x4200
 8001de2:	6b1b      	ldr	r3, [r3, #48]	; 0x30
 8001de4:	f003 0340 	and.w	r3, r3, #64	; 0x40
 8001de8:	9302      	str	r3, [sp, #8]
 8001dea:	9b02      	ldr	r3, [sp, #8]
 8001dec:	2302      	movs	r3, #2
 8001dee:	e9cd 2303 	strd	r2, r3, [sp, #12]
 8001df2:	2303      	movs	r3, #3
 8001df4:	e9cd 4305 	strd	r4, r3, [sp, #20]
 8001df8:	2308      	movs	r3, #8
 8001dfa:	9307      	str	r3, [sp, #28]
 8001dfc:	f000 fcba 	bl	8002774 <HAL_GPIO_Init>
 8001e00:	2047      	movs	r0, #71	; 0x47
 8001e02:	4622      	mov	r2, r4
 8001e04:	2105      	movs	r1, #5
 8001e06:	f000 f9ef 	bl	80021e8 <HAL_NVIC_SetPriority>
 8001e0a:	2047      	movs	r0, #71	; 0x47
 8001e0c:	f000 fa1e 	bl	800224c <HAL_NVIC_EnableIRQ>
 8001e10:	b02c      	add	sp, #176	; 0xb0
 8001e12:	bd10      	pop	{r4, pc}
 8001e14:	40011400 	.word	0x40011400
 8001e18:	40023800 	.word	0x40023800
 8001e1c:	40021800 	.word	0x40021800

08001e20 <set_init_error_msg>:
 8001e20:	4a06      	ldr	r2, [pc, #24]	; (8001e3c <set_init_error_msg+0x1c>)
 8001e22:	2300      	movs	r3, #0
 8001e24:	b510      	push	{r4, lr}
 8001e26:	4614      	mov	r4, r2
 8001e28:	5cc1      	ldrb	r1, [r0, r3]
 8001e2a:	b121      	cbz	r1, 8001e36 <set_init_error_msg+0x16>
 8001e2c:	3301      	adds	r3, #1
 8001e2e:	f802 1b01 	strb.w	r1, [r2], #1
 8001e32:	2b3b      	cmp	r3, #59	; 0x3b
 8001e34:	d1f8      	bne.n	8001e28 <set_init_error_msg+0x8>
 8001e36:	2200      	movs	r2, #0
 8001e38:	54e2      	strb	r2, [r4, r3]
 8001e3a:	bd10      	pop	{r4, pc}
 8001e3c:	200007a0 	.word	0x200007a0

08001e40 <construct_double_pulse.isra.0>:
 8001e40:	b570      	push	{r4, r5, r6, lr}
 8001e42:	2480      	movs	r4, #128	; 0x80
 8001e44:	f89d 6010 	ldrb.w	r6, [sp, #16]
 8001e48:	fa24 f503 	lsr.w	r5, r4, r3
 8001e4c:	3301      	adds	r3, #1
 8001e4e:	fa24 f303 	lsr.w	r3, r4, r3
 8001e52:	4035      	ands	r5, r6
 8001e54:	4033      	ands	r3, r6
 8001e56:	b960      	cbnz	r0, 8001e72 <construct_double_pulse.isra.0+0x32>
 8001e58:	2b00      	cmp	r3, #0
 8001e5a:	bf0c      	ite	eq
 8001e5c:	4610      	moveq	r0, r2
 8001e5e:	4608      	movne	r0, r1
 8001e60:	b125      	cbz	r5, 8001e6c <construct_double_pulse.isra.0+0x2c>
 8001e62:	0109      	lsls	r1, r1, #4
 8001e64:	b24a      	sxtb	r2, r1
 8001e66:	4310      	orrs	r0, r2
 8001e68:	b2c0      	uxtb	r0, r0
 8001e6a:	bd70      	pop	{r4, r5, r6, pc}
 8001e6c:	0112      	lsls	r2, r2, #4
 8001e6e:	b252      	sxtb	r2, r2
 8001e70:	e7f9      	b.n	8001e66 <construct_double_pulse.isra.0+0x26>
 8001e72:	2d00      	cmp	r5, #0
 8001e74:	bf0c      	ite	eq
 8001e76:	4610      	moveq	r0, r2
 8001e78:	4608      	movne	r0, r1
 8001e7a:	b11b      	cbz	r3, 8001e84 <construct_double_pulse.isra.0+0x44>
 8001e7c:	0109      	lsls	r1, r1, #4
 8001e7e:	b249      	sxtb	r1, r1
 8001e80:	4308      	orrs	r0, r1
 8001e82:	e7f1      	b.n	8001e68 <construct_double_pulse.isra.0+0x28>
 8001e84:	0112      	lsls	r2, r2, #4
 8001e86:	b251      	sxtb	r1, r2
 8001e88:	e7fa      	b.n	8001e80 <construct_double_pulse.isra.0+0x40>

08001e8a <add_byte>:
 8001e8a:	e92d 41f3 	stmdb	sp!, {r0, r1, r4, r5, r6, r7, r8, lr}
 8001e8e:	7803      	ldrb	r3, [r0, #0]
 8001e90:	4605      	mov	r5, r0
 8001e92:	460e      	mov	r6, r1
 8001e94:	4614      	mov	r4, r2
 8001e96:	2b02      	cmp	r3, #2
 8001e98:	d115      	bne.n	8001ec6 <add_byte+0x3c>
 8001e9a:	2700      	movs	r7, #0
 8001e9c:	f8d4 8000 	ldr.w	r8, [r4]
 8001ea0:	463b      	mov	r3, r7
 8001ea2:	7e6a      	ldrb	r2, [r5, #25]
 8001ea4:	3702      	adds	r7, #2
 8001ea6:	7e29      	ldrb	r1, [r5, #24]
 8001ea8:	7928      	ldrb	r0, [r5, #4]
 8001eaa:	9600      	str	r6, [sp, #0]
 8001eac:	f7ff ffc8 	bl	8001e40 <construct_double_pulse.isra.0>
 8001eb0:	f888 0000 	strb.w	r0, [r8]
 8001eb4:	6823      	ldr	r3, [r4, #0]
 8001eb6:	2f08      	cmp	r7, #8
 8001eb8:	f103 0301 	add.w	r3, r3, #1
 8001ebc:	6023      	str	r3, [r4, #0]
 8001ebe:	d1ed      	bne.n	8001e9c <add_byte+0x12>
 8001ec0:	b002      	add	sp, #8
 8001ec2:	e8bd 81f0 	ldmia.w	sp!, {r4, r5, r6, r7, r8, pc}
 8001ec6:	2300      	movs	r3, #0
 8001ec8:	2080      	movs	r0, #128	; 0x80
 8001eca:	fa20 f203 	lsr.w	r2, r0, r3
 8001ece:	6821      	ldr	r1, [r4, #0]
 8001ed0:	3301      	adds	r3, #1
 8001ed2:	4232      	tst	r2, r6
 8001ed4:	bf14      	ite	ne
 8001ed6:	7e2a      	ldrbne	r2, [r5, #24]
 8001ed8:	7e6a      	ldrbeq	r2, [r5, #25]
 8001eda:	2b08      	cmp	r3, #8
 8001edc:	700a      	strb	r2, [r1, #0]
 8001ede:	6822      	ldr	r2, [r4, #0]
 8001ee0:	f102 0201 	add.w	r2, r2, #1
 8001ee4:	6022      	str	r2, [r4, #0]
 8001ee6:	d1f0      	bne.n	8001eca <add_byte+0x40>
 8001ee8:	e7ea      	b.n	8001ec0 <add_byte+0x36>
	...

08001eec <ws2812b_init>:
 8001eec:	e92d 43f8 	stmdb	sp!, {r3, r4, r5, r6, r7, r8, r9, lr}
 8001ef0:	4a5d      	ldr	r2, [pc, #372]	; (8002068 <ws2812b_init+0x17c>)
 8001ef2:	4b5e      	ldr	r3, [pc, #376]	; (800206c <ws2812b_init+0x180>)
 8001ef4:	6013      	str	r3, [r2, #0]
 8001ef6:	2200      	movs	r2, #0
 8001ef8:	701a      	strb	r2, [r3, #0]
 8001efa:	7807      	ldrb	r7, [r0, #0]
 8001efc:	1e7b      	subs	r3, r7, #1
 8001efe:	2b01      	cmp	r3, #1
 8001f00:	d906      	bls.n	8001f10 <ws2812b_init+0x24>
 8001f02:	485b      	ldr	r0, [pc, #364]	; (8002070 <ws2812b_init+0x184>)
 8001f04:	f7ff ff8c 	bl	8001e20 <set_init_error_msg>
 8001f08:	f04f 30ff 	mov.w	r0, #4294967295
 8001f0c:	e8bd 83f8 	ldmia.w	sp!, {r3, r4, r5, r6, r7, r8, r9, pc}
 8001f10:	7883      	ldrb	r3, [r0, #2]
 8001f12:	2b01      	cmp	r3, #1
 8001f14:	d007      	beq.n	8001f26 <ws2812b_init+0x3a>
 8001f16:	2b1f      	cmp	r3, #31
 8001f18:	d815      	bhi.n	8001f46 <ws2812b_init+0x5a>
 8001f1a:	2b02      	cmp	r3, #2
 8001f1c:	d917      	bls.n	8001f4e <ws2812b_init+0x62>
 8001f1e:	4a55      	ldr	r2, [pc, #340]	; (8002074 <ws2812b_init+0x188>)
 8001f20:	40da      	lsrs	r2, r3
 8001f22:	07d4      	lsls	r4, r2, #31
 8001f24:	d513      	bpl.n	8001f4e <ws2812b_init+0x62>
 8001f26:	7842      	ldrb	r2, [r0, #1]
 8001f28:	2a01      	cmp	r2, #1
 8001f2a:	d007      	beq.n	8001f3c <ws2812b_init+0x50>
 8001f2c:	2a1f      	cmp	r2, #31
 8001f2e:	d810      	bhi.n	8001f52 <ws2812b_init+0x66>
 8001f30:	2a02      	cmp	r2, #2
 8001f32:	d912      	bls.n	8001f5a <ws2812b_init+0x6e>
 8001f34:	494f      	ldr	r1, [pc, #316]	; (8002074 <ws2812b_init+0x188>)
 8001f36:	40d1      	lsrs	r1, r2
 8001f38:	07c9      	lsls	r1, r1, #31
 8001f3a:	d50e      	bpl.n	8001f5a <ws2812b_init+0x6e>
 8001f3c:	78c1      	ldrb	r1, [r0, #3]
 8001f3e:	2901      	cmp	r1, #1
 8001f40:	d90d      	bls.n	8001f5e <ws2812b_init+0x72>
 8001f42:	484d      	ldr	r0, [pc, #308]	; (8002078 <ws2812b_init+0x18c>)
 8001f44:	e7de      	b.n	8001f04 <ws2812b_init+0x18>
 8001f46:	f003 02bf 	and.w	r2, r3, #191	; 0xbf
 8001f4a:	2a3f      	cmp	r2, #63	; 0x3f
 8001f4c:	d0eb      	beq.n	8001f26 <ws2812b_init+0x3a>
 8001f4e:	484b      	ldr	r0, [pc, #300]	; (800207c <ws2812b_init+0x190>)
 8001f50:	e7d8      	b.n	8001f04 <ws2812b_init+0x18>
 8001f52:	f002 01bf 	and.w	r1, r2, #191	; 0xbf
 8001f56:	293f      	cmp	r1, #63	; 0x3f
 8001f58:	d0f0      	beq.n	8001f3c <ws2812b_init+0x50>
 8001f5a:	4849      	ldr	r0, [pc, #292]	; (8002080 <ws2812b_init+0x194>)
 8001f5c:	e7d2      	b.n	8001f04 <ws2812b_init+0x18>
 8001f5e:	7904      	ldrb	r4, [r0, #4]
 8001f60:	2c01      	cmp	r4, #1
 8001f62:	d901      	bls.n	8001f68 <ws2812b_init+0x7c>
 8001f64:	4847      	ldr	r0, [pc, #284]	; (8002084 <ws2812b_init+0x198>)
 8001f66:	e7cd      	b.n	8001f04 <ws2812b_init+0x18>
 8001f68:	4293      	cmp	r3, r2
 8001f6a:	d801      	bhi.n	8001f70 <ws2812b_init+0x84>
 8001f6c:	4846      	ldr	r0, [pc, #280]	; (8002088 <ws2812b_init+0x19c>)
 8001f6e:	e7c9      	b.n	8001f04 <ws2812b_init+0x18>
 8001f70:	2f02      	cmp	r7, #2
 8001f72:	d103      	bne.n	8001f7c <ws2812b_init+0x90>
 8001f74:	2b0e      	cmp	r3, #14
 8001f76:	d901      	bls.n	8001f7c <ws2812b_init+0x90>
 8001f78:	4844      	ldr	r0, [pc, #272]	; (800208c <ws2812b_init+0x1a0>)
 8001f7a:	e7c3      	b.n	8001f04 <ws2812b_init+0x18>
 8001f7c:	408b      	lsls	r3, r1
 8001f7e:	408a      	lsls	r2, r1
 8001f80:	b2db      	uxtb	r3, r3
 8001f82:	7642      	strb	r2, [r0, #25]
 8001f84:	7603      	strb	r3, [r0, #24]
 8001f86:	bbac      	cbnz	r4, 8001ff4 <ws2812b_init+0x108>
 8001f88:	fa5f fc82 	uxtb.w	ip, r2
 8001f8c:	2f02      	cmp	r7, #2
 8001f8e:	ea4f 0443 	mov.w	r4, r3, lsl #1
 8001f92:	f3c2 09c4 	ubfx	r9, r2, #3, #5
 8001f96:	ea4f 084c 	mov.w	r8, ip, lsl #1
 8001f9a:	f3c2 0246 	ubfx	r2, r2, #1, #7
 8001f9e:	ea4f 0ecc 	mov.w	lr, ip, lsl #3
 8001fa2:	ea4f 01c3 	mov.w	r1, r3, lsl #3
 8001fa6:	fa4f f888 	sxtb.w	r8, r8
 8001faa:	fa4f fe8e 	sxtb.w	lr, lr
 8001fae:	ea4f 06d3 	mov.w	r6, r3, lsr #3
 8001fb2:	ea4f 0553 	mov.w	r5, r3, lsr #1
 8001fb6:	b264      	sxtb	r4, r4
 8001fb8:	b249      	sxtb	r1, r1
 8001fba:	d11f      	bne.n	8001ffc <ws2812b_init+0x110>
 8001fbc:	f009 0901 	and.w	r9, r9, #1
 8001fc0:	f002 0202 	and.w	r2, r2, #2
 8001fc4:	f006 0601 	and.w	r6, r6, #1
 8001fc8:	f005 0502 	and.w	r5, r5, #2
 8001fcc:	ea49 0902 	orr.w	r9, r9, r2
 8001fd0:	f008 0804 	and.w	r8, r8, #4
 8001fd4:	432e      	orrs	r6, r5
 8001fd6:	f004 0404 	and.w	r4, r4, #4
 8001fda:	ea49 0908 	orr.w	r9, r9, r8
 8001fde:	f00e 0e08 	and.w	lr, lr, #8
 8001fe2:	4326      	orrs	r6, r4
 8001fe4:	f001 0108 	and.w	r1, r1, #8
 8001fe8:	ea49 0e0e 	orr.w	lr, r9, lr
 8001fec:	4331      	orrs	r1, r6
 8001fee:	f880 e019 	strb.w	lr, [r0, #25]
 8001ff2:	7601      	strb	r1, [r0, #24]
 8001ff4:	2300      	movs	r3, #0
 8001ff6:	61c3      	str	r3, [r0, #28]
 8001ff8:	4618      	mov	r0, r3
 8001ffa:	e787      	b.n	8001f0c <ws2812b_init+0x20>
 8001ffc:	ea4f 176c 	mov.w	r7, ip, asr #5
 8002000:	f009 0904 	and.w	r9, r9, #4
 8002004:	f002 0208 	and.w	r2, r2, #8
 8002008:	f008 0810 	and.w	r8, r8, #16
 800200c:	f007 0702 	and.w	r7, r7, #2
 8002010:	f00e 0e20 	and.w	lr, lr, #32
 8002014:	f006 0604 	and.w	r6, r6, #4
 8002018:	f005 0508 	and.w	r5, r5, #8
 800201c:	ea47 0709 	orr.w	r7, r7, r9
 8002020:	f004 0410 	and.w	r4, r4, #16
 8002024:	f001 0120 	and.w	r1, r1, #32
 8002028:	ea47 17cc 	orr.w	r7, r7, ip, lsl #7
 800202c:	ea4f 1c4c 	mov.w	ip, ip, lsl #5
 8002030:	433a      	orrs	r2, r7
 8002032:	115f      	asrs	r7, r3, #5
 8002034:	f00c 0c40 	and.w	ip, ip, #64	; 0x40
 8002038:	ea42 0208 	orr.w	r2, r2, r8
 800203c:	f007 0702 	and.w	r7, r7, #2
 8002040:	ea42 020e 	orr.w	r2, r2, lr
 8002044:	ea42 020c 	orr.w	r2, r2, ip
 8002048:	7642      	strb	r2, [r0, #25]
 800204a:	01da      	lsls	r2, r3, #7
 800204c:	ea42 12d3 	orr.w	r2, r2, r3, lsr #7
 8002050:	015b      	lsls	r3, r3, #5
 8002052:	433a      	orrs	r2, r7
 8002054:	f003 0340 	and.w	r3, r3, #64	; 0x40
 8002058:	4332      	orrs	r2, r6
 800205a:	432a      	orrs	r2, r5
 800205c:	4322      	orrs	r2, r4
 800205e:	430a      	orrs	r2, r1
 8002060:	4313      	orrs	r3, r2
 8002062:	7603      	strb	r3, [r0, #24]
 8002064:	e7c6      	b.n	8001ff4 <ws2812b_init+0x108>
 8002066:	bf00      	nop
 8002068:	200007dc 	.word	0x200007dc
 800206c:	200007a0 	.word	0x200007a0
 8002070:	08009a08 	.word	0x08009a08
 8002074:	80008088 	.word	0x80008088
 8002078:	08009a7c 	.word	0x08009a7c
 800207c:	08009a2c 	.word	0x08009a2c
 8002080:	08009a54 	.word	0x08009a54
 8002084:	08009aa4 	.word	0x08009aa4
 8002088:	08009ace 	.word	0x08009ace
 800208c:	08009b01 	.word	0x08009b01

08002090 <ws2812b_required_buffer_len>:
 8002090:	7803      	ldrb	r3, [r0, #0]
 8002092:	6902      	ldr	r2, [r0, #16]
 8002094:	2b01      	cmp	r3, #1
 8002096:	e9d0 3002 	ldrd	r3, r0, [r0, #8]
 800209a:	bf0c      	ite	eq
 800209c:	2118      	moveq	r1, #24
 800209e:	210c      	movne	r1, #12
 80020a0:	4418      	add	r0, r3
 80020a2:	fb01 0002 	mla	r0, r1, r2, r0
 80020a6:	4770      	bx	lr

080020a8 <ws2812b_fill_buffer>:
 80020a8:	b5f7      	push	{r0, r1, r2, r4, r5, r6, r7, lr}
 80020aa:	2200      	movs	r2, #0
 80020ac:	4604      	mov	r4, r0
 80020ae:	6945      	ldr	r5, [r0, #20]
 80020b0:	460b      	mov	r3, r1
 80020b2:	4617      	mov	r7, r2
 80020b4:	9101      	str	r1, [sp, #4]
 80020b6:	1a58      	subs	r0, r3, r1
 80020b8:	68a6      	ldr	r6, [r4, #8]
 80020ba:	4286      	cmp	r6, r0
 80020bc:	d80e      	bhi.n	80020dc <ws2812b_fill_buffer+0x34>
 80020be:	b102      	cbz	r2, 80020c2 <ws2812b_fill_buffer+0x1a>
 80020c0:	9301      	str	r3, [sp, #4]
 80020c2:	2600      	movs	r6, #0
 80020c4:	6923      	ldr	r3, [r4, #16]
 80020c6:	3503      	adds	r5, #3
 80020c8:	42b3      	cmp	r3, r6
 80020ca:	d80b      	bhi.n	80020e4 <ws2812b_fill_buffer+0x3c>
 80020cc:	2300      	movs	r3, #0
 80020ce:	9901      	ldr	r1, [sp, #4]
 80020d0:	4618      	mov	r0, r3
 80020d2:	68e2      	ldr	r2, [r4, #12]
 80020d4:	429a      	cmp	r2, r3
 80020d6:	d819      	bhi.n	800210c <ws2812b_fill_buffer+0x64>
 80020d8:	b003      	add	sp, #12
 80020da:	bdf0      	pop	{r4, r5, r6, r7, pc}
 80020dc:	2201      	movs	r2, #1
 80020de:	f803 7b01 	strb.w	r7, [r3], #1
 80020e2:	e7e8      	b.n	80020b6 <ws2812b_fill_buffer+0xe>
 80020e4:	aa01      	add	r2, sp, #4
 80020e6:	f815 1c02 	ldrb.w	r1, [r5, #-2]
 80020ea:	4620      	mov	r0, r4
 80020ec:	3601      	adds	r6, #1
 80020ee:	f7ff fecc 	bl	8001e8a <add_byte>
 80020f2:	aa01      	add	r2, sp, #4
 80020f4:	f815 1c03 	ldrb.w	r1, [r5, #-3]
 80020f8:	4620      	mov	r0, r4
 80020fa:	f7ff fec6 	bl	8001e8a <add_byte>
 80020fe:	aa01      	add	r2, sp, #4
 8002100:	f815 1c01 	ldrb.w	r1, [r5, #-1]
 8002104:	4620      	mov	r0, r4
 8002106:	f7ff fec0 	bl	8001e8a <add_byte>
 800210a:	e7db      	b.n	80020c4 <ws2812b_fill_buffer+0x1c>
 800210c:	54c8      	strb	r0, [r1, r3]
 800210e:	3301      	adds	r3, #1
 8002110:	e7df      	b.n	80020d2 <ws2812b_fill_buffer+0x2a>
	...

08002114 <Reset_Handler>:
 8002114:	f8df d034 	ldr.w	sp, [pc, #52]	; 800214c <LoopFillZerobss+0x12>
 8002118:	480d      	ldr	r0, [pc, #52]	; (8002150 <LoopFillZerobss+0x16>)
 800211a:	490e      	ldr	r1, [pc, #56]	; (8002154 <LoopFillZerobss+0x1a>)
 800211c:	4a0e      	ldr	r2, [pc, #56]	; (8002158 <LoopFillZerobss+0x1e>)
 800211e:	2300      	movs	r3, #0
 8002120:	e002      	b.n	8002128 <LoopCopyDataInit>

08002122 <CopyDataInit>:
 8002122:	58d4      	ldr	r4, [r2, r3]
 8002124:	50c4      	str	r4, [r0, r3]
 8002126:	3304      	adds	r3, #4

08002128 <LoopCopyDataInit>:
 8002128:	18c4      	adds	r4, r0, r3
 800212a:	428c      	cmp	r4, r1
 800212c:	d3f9      	bcc.n	8002122 <CopyDataInit>
 800212e:	4a0b      	ldr	r2, [pc, #44]	; (800215c <LoopFillZerobss+0x22>)
 8002130:	4c0b      	ldr	r4, [pc, #44]	; (8002160 <LoopFillZerobss+0x26>)
 8002132:	2300      	movs	r3, #0
 8002134:	e001      	b.n	800213a <LoopFillZerobss>

08002136 <FillZerobss>:
 8002136:	6013      	str	r3, [r2, #0]
 8002138:	3204      	adds	r2, #4

0800213a <LoopFillZerobss>:
 800213a:	42a2      	cmp	r2, r4
 800213c:	d3fb      	bcc.n	8002136 <FillZerobss>
 800213e:	f7ff fd83 	bl	8001c48 <SystemInit>
 8002142:	f005 fa3d 	bl	80075c0 <__libc_init_array>
 8002146:	f7ff fa6f 	bl	8001628 <main>
 800214a:	4770      	bx	lr
 800214c:	20080000 	.word	0x20080000
 8002150:	20000000 	.word	0x20000000
 8002154:	200000b8 	.word	0x200000b8
 8002158:	08009ba0 	.word	0x08009ba0
 800215c:	200000b8 	.word	0x200000b8
 8002160:	2000530c 	.word	0x2000530c

08002164 <ADC_IRQHandler>:
 8002164:	e7fe      	b.n	8002164 <ADC_IRQHandler>

08002166 <HAL_Init>:
 8002166:	b508      	push	{r3, lr}
 8002168:	2003      	movs	r0, #3
 800216a:	f000 f82b 	bl	80021c4 <HAL_NVIC_SetPriorityGrouping>
 800216e:	2005      	movs	r0, #5
 8002170:	f7ff fcb2 	bl	8001ad8 <HAL_InitTick>
 8002174:	f7ff fc92 	bl	8001a9c <HAL_MspInit>
 8002178:	2000      	movs	r0, #0
 800217a:	bd08      	pop	{r3, pc}

0800217c <HAL_IncTick>:
 800217c:	4a03      	ldr	r2, [pc, #12]	; (800218c <HAL_IncTick+0x10>)
 800217e:	4b04      	ldr	r3, [pc, #16]	; (8002190 <HAL_IncTick+0x14>)
 8002180:	6811      	ldr	r1, [r2, #0]
 8002182:	781b      	ldrb	r3, [r3, #0]
 8002184:	440b      	add	r3, r1
 8002186:	6013      	str	r3, [r2, #0]
 8002188:	4770      	bx	lr
 800218a:	bf00      	nop
 800218c:	200007e0 	.word	0x200007e0
 8002190:	20000050 	.word	0x20000050

08002194 <HAL_GetTick>:
 8002194:	4b01      	ldr	r3, [pc, #4]	; (800219c <HAL_GetTick+0x8>)
 8002196:	6818      	ldr	r0, [r3, #0]
 8002198:	4770      	bx	lr
 800219a:	bf00      	nop
 800219c:	200007e0 	.word	0x200007e0

080021a0 <HAL_Delay>:
 80021a0:	b538      	push	{r3, r4, r5, lr}
 80021a2:	4604      	mov	r4, r0
 80021a4:	f7ff fff6 	bl	8002194 <HAL_GetTick>
 80021a8:	4605      	mov	r5, r0
 80021aa:	1c63      	adds	r3, r4, #1
 80021ac:	bf1e      	ittt	ne
 80021ae:	4b04      	ldrne	r3, [pc, #16]	; (80021c0 <HAL_Delay+0x20>)
 80021b0:	781b      	ldrbne	r3, [r3, #0]
 80021b2:	18e4      	addne	r4, r4, r3
 80021b4:	f7ff ffee 	bl	8002194 <HAL_GetTick>
 80021b8:	1b43      	subs	r3, r0, r5
 80021ba:	42a3      	cmp	r3, r4
 80021bc:	d3fa      	bcc.n	80021b4 <HAL_Delay+0x14>
 80021be:	bd38      	pop	{r3, r4, r5, pc}
 80021c0:	20000050 	.word	0x20000050

080021c4 <HAL_NVIC_SetPriorityGrouping>:
 80021c4:	4907      	ldr	r1, [pc, #28]	; (80021e4 <HAL_NVIC_SetPriorityGrouping+0x20>)
 80021c6:	0203      	lsls	r3, r0, #8
 80021c8:	68ca      	ldr	r2, [r1, #12]
 80021ca:	f403 63e0 	and.w	r3, r3, #1792	; 0x700
 80021ce:	f422 62e0 	bic.w	r2, r2, #1792	; 0x700
 80021d2:	0412      	lsls	r2, r2, #16
 80021d4:	0c12      	lsrs	r2, r2, #16
 80021d6:	4313      	orrs	r3, r2
 80021d8:	f043 63bf 	orr.w	r3, r3, #100139008	; 0x5f80000
 80021dc:	f443 3300 	orr.w	r3, r3, #131072	; 0x20000
 80021e0:	60cb      	str	r3, [r1, #12]
 80021e2:	4770      	bx	lr
 80021e4:	e000ed00 	.word	0xe000ed00

080021e8 <HAL_NVIC_SetPriority>:
 80021e8:	4b16      	ldr	r3, [pc, #88]	; (8002244 <HAL_NVIC_SetPriority+0x5c>)
 80021ea:	b530      	push	{r4, r5, lr}
 80021ec:	68dc      	ldr	r4, [r3, #12]
 80021ee:	f3c4 2402 	ubfx	r4, r4, #8, #3
 80021f2:	f1c4 0307 	rsb	r3, r4, #7
 80021f6:	1d25      	adds	r5, r4, #4
 80021f8:	2b04      	cmp	r3, #4
 80021fa:	bf28      	it	cs
 80021fc:	2304      	movcs	r3, #4
 80021fe:	2d06      	cmp	r5, #6
 8002200:	f04f 35ff 	mov.w	r5, #4294967295
 8002204:	bf8c      	ite	hi
 8002206:	3c03      	subhi	r4, #3
 8002208:	2400      	movls	r4, #0
 800220a:	fa05 f303 	lsl.w	r3, r5, r3
 800220e:	2800      	cmp	r0, #0
 8002210:	fa05 f504 	lsl.w	r5, r5, r4
 8002214:	ea21 0303 	bic.w	r3, r1, r3
 8002218:	ea22 0205 	bic.w	r2, r2, r5
 800221c:	fa03 f304 	lsl.w	r3, r3, r4
 8002220:	ea43 0302 	orr.w	r3, r3, r2
 8002224:	ea4f 1303 	mov.w	r3, r3, lsl #4
 8002228:	b2db      	uxtb	r3, r3
 800222a:	db06      	blt.n	800223a <HAL_NVIC_SetPriority+0x52>
 800222c:	f100 4060 	add.w	r0, r0, #3758096384	; 0xe0000000
 8002230:	f500 4061 	add.w	r0, r0, #57600	; 0xe100
 8002234:	f880 3300 	strb.w	r3, [r0, #768]	; 0x300
 8002238:	bd30      	pop	{r4, r5, pc}
 800223a:	f000 000f 	and.w	r0, r0, #15
 800223e:	4a02      	ldr	r2, [pc, #8]	; (8002248 <HAL_NVIC_SetPriority+0x60>)
 8002240:	5413      	strb	r3, [r2, r0]
 8002242:	e7f9      	b.n	8002238 <HAL_NVIC_SetPriority+0x50>
 8002244:	e000ed00 	.word	0xe000ed00
 8002248:	e000ed14 	.word	0xe000ed14

0800224c <HAL_NVIC_EnableIRQ>:
 800224c:	2800      	cmp	r0, #0
 800224e:	db07      	blt.n	8002260 <HAL_NVIC_EnableIRQ+0x14>
 8002250:	0941      	lsrs	r1, r0, #5
 8002252:	2301      	movs	r3, #1
 8002254:	f000 001f 	and.w	r0, r0, #31
 8002258:	4a02      	ldr	r2, [pc, #8]	; (8002264 <HAL_NVIC_EnableIRQ+0x18>)
 800225a:	4083      	lsls	r3, r0
 800225c:	f842 3021 	str.w	r3, [r2, r1, lsl #2]
 8002260:	4770      	bx	lr
 8002262:	bf00      	nop
 8002264:	e000e100 	.word	0xe000e100

08002268 <HAL_DAC_Init>:
 8002268:	b510      	push	{r4, lr}
 800226a:	4604      	mov	r4, r0
 800226c:	b168      	cbz	r0, 800228a <HAL_DAC_Init+0x22>
 800226e:	7903      	ldrb	r3, [r0, #4]
 8002270:	f003 02ff 	and.w	r2, r3, #255	; 0xff
 8002274:	b913      	cbnz	r3, 800227c <HAL_DAC_Init+0x14>
 8002276:	7142      	strb	r2, [r0, #5]
 8002278:	f7fe faf6 	bl	8000868 <HAL_DAC_MspInit>
 800227c:	2302      	movs	r3, #2
 800227e:	2000      	movs	r0, #0
 8002280:	7123      	strb	r3, [r4, #4]
 8002282:	2301      	movs	r3, #1
 8002284:	6120      	str	r0, [r4, #16]
 8002286:	7123      	strb	r3, [r4, #4]
 8002288:	bd10      	pop	{r4, pc}
 800228a:	2001      	movs	r0, #1
 800228c:	e7fc      	b.n	8002288 <HAL_DAC_Init+0x20>

0800228e <HAL_DAC_Start>:
 800228e:	b530      	push	{r4, r5, lr}
 8002290:	7943      	ldrb	r3, [r0, #5]
 8002292:	2b01      	cmp	r3, #1
 8002294:	f04f 0302 	mov.w	r3, #2
 8002298:	d016      	beq.n	80022c8 <HAL_DAC_Start+0x3a>
 800229a:	7103      	strb	r3, [r0, #4]
 800229c:	f001 0410 	and.w	r4, r1, #16
 80022a0:	6803      	ldr	r3, [r0, #0]
 80022a2:	2201      	movs	r2, #1
 80022a4:	681d      	ldr	r5, [r3, #0]
 80022a6:	40a2      	lsls	r2, r4
 80022a8:	432a      	orrs	r2, r5
 80022aa:	601a      	str	r2, [r3, #0]
 80022ac:	b971      	cbnz	r1, 80022cc <HAL_DAC_Start+0x3e>
 80022ae:	681a      	ldr	r2, [r3, #0]
 80022b0:	f002 023c 	and.w	r2, r2, #60	; 0x3c
 80022b4:	2a3c      	cmp	r2, #60	; 0x3c
 80022b6:	d103      	bne.n	80022c0 <HAL_DAC_Start+0x32>
 80022b8:	685a      	ldr	r2, [r3, #4]
 80022ba:	f042 0201 	orr.w	r2, r2, #1
 80022be:	605a      	str	r2, [r3, #4]
 80022c0:	2301      	movs	r3, #1
 80022c2:	7103      	strb	r3, [r0, #4]
 80022c4:	2300      	movs	r3, #0
 80022c6:	7143      	strb	r3, [r0, #5]
 80022c8:	4618      	mov	r0, r3
 80022ca:	bd30      	pop	{r4, r5, pc}
 80022cc:	6819      	ldr	r1, [r3, #0]
 80022ce:	223c      	movs	r2, #60	; 0x3c
 80022d0:	f401 1170 	and.w	r1, r1, #3932160	; 0x3c0000
 80022d4:	40a2      	lsls	r2, r4
 80022d6:	4291      	cmp	r1, r2
 80022d8:	d1f2      	bne.n	80022c0 <HAL_DAC_Start+0x32>
 80022da:	685a      	ldr	r2, [r3, #4]
 80022dc:	f042 0202 	orr.w	r2, r2, #2
 80022e0:	e7ed      	b.n	80022be <HAL_DAC_Start+0x30>

080022e2 <HAL_DAC_SetValue>:
 80022e2:	b513      	push	{r0, r1, r4, lr}
 80022e4:	2400      	movs	r4, #0
 80022e6:	6800      	ldr	r0, [r0, #0]
 80022e8:	9401      	str	r4, [sp, #4]
 80022ea:	9001      	str	r0, [sp, #4]
 80022ec:	b941      	cbnz	r1, 8002300 <HAL_DAC_SetValue+0x1e>
 80022ee:	9901      	ldr	r1, [sp, #4]
 80022f0:	3108      	adds	r1, #8
 80022f2:	440a      	add	r2, r1
 80022f4:	2000      	movs	r0, #0
 80022f6:	9201      	str	r2, [sp, #4]
 80022f8:	9a01      	ldr	r2, [sp, #4]
 80022fa:	6013      	str	r3, [r2, #0]
 80022fc:	b002      	add	sp, #8
 80022fe:	bd10      	pop	{r4, pc}
 8002300:	9901      	ldr	r1, [sp, #4]
 8002302:	3114      	adds	r1, #20
 8002304:	e7f5      	b.n	80022f2 <HAL_DAC_SetValue+0x10>

08002306 <HAL_DAC_DMAUnderrunCallbackCh1>:
 8002306:	4770      	bx	lr

08002308 <HAL_DAC_IRQHandler>:
 8002308:	6803      	ldr	r3, [r0, #0]
 800230a:	681a      	ldr	r2, [r3, #0]
 800230c:	0491      	lsls	r1, r2, #18
 800230e:	b510      	push	{r4, lr}
 8002310:	4604      	mov	r4, r0
 8002312:	d511      	bpl.n	8002338 <HAL_DAC_IRQHandler+0x30>
 8002314:	6b5a      	ldr	r2, [r3, #52]	; 0x34
 8002316:	0492      	lsls	r2, r2, #18
 8002318:	d50e      	bpl.n	8002338 <HAL_DAC_IRQHandler+0x30>
 800231a:	2204      	movs	r2, #4
 800231c:	7102      	strb	r2, [r0, #4]
 800231e:	6902      	ldr	r2, [r0, #16]
 8002320:	f042 0201 	orr.w	r2, r2, #1
 8002324:	6102      	str	r2, [r0, #16]
 8002326:	f44f 5200 	mov.w	r2, #8192	; 0x2000
 800232a:	635a      	str	r2, [r3, #52]	; 0x34
 800232c:	681a      	ldr	r2, [r3, #0]
 800232e:	f422 5280 	bic.w	r2, r2, #4096	; 0x1000
 8002332:	601a      	str	r2, [r3, #0]
 8002334:	f7ff ffe7 	bl	8002306 <HAL_DAC_DMAUnderrunCallbackCh1>
 8002338:	6823      	ldr	r3, [r4, #0]
 800233a:	681a      	ldr	r2, [r3, #0]
 800233c:	0091      	lsls	r1, r2, #2
 800233e:	d514      	bpl.n	800236a <HAL_DAC_IRQHandler+0x62>
 8002340:	6b5a      	ldr	r2, [r3, #52]	; 0x34
 8002342:	0092      	lsls	r2, r2, #2
 8002344:	d511      	bpl.n	800236a <HAL_DAC_IRQHandler+0x62>
 8002346:	2204      	movs	r2, #4
 8002348:	4620      	mov	r0, r4
 800234a:	7122      	strb	r2, [r4, #4]
 800234c:	6922      	ldr	r2, [r4, #16]
 800234e:	f042 0202 	orr.w	r2, r2, #2
 8002352:	6122      	str	r2, [r4, #16]
 8002354:	f04f 5200 	mov.w	r2, #536870912	; 0x20000000
 8002358:	635a      	str	r2, [r3, #52]	; 0x34
 800235a:	681a      	ldr	r2, [r3, #0]
 800235c:	f022 5280 	bic.w	r2, r2, #268435456	; 0x10000000
 8002360:	e8bd 4010 	ldmia.w	sp!, {r4, lr}
 8002364:	601a      	str	r2, [r3, #0]
 8002366:	f000 b824 	b.w	80023b2 <HAL_DACEx_DMAUnderrunCallbackCh2>
 800236a:	bd10      	pop	{r4, pc}

0800236c <HAL_DAC_ConfigChannel>:
 800236c:	b530      	push	{r4, r5, lr}
 800236e:	7943      	ldrb	r3, [r0, #5]
 8002370:	2b01      	cmp	r3, #1
 8002372:	f04f 0302 	mov.w	r3, #2
 8002376:	d01a      	beq.n	80023ae <HAL_DAC_ConfigChannel+0x42>
 8002378:	7103      	strb	r3, [r0, #4]
 800237a:	f002 0210 	and.w	r2, r2, #16
 800237e:	6804      	ldr	r4, [r0, #0]
 8002380:	f640 73fe 	movw	r3, #4094	; 0xffe
 8002384:	6825      	ldr	r5, [r4, #0]
 8002386:	4093      	lsls	r3, r2
 8002388:	ea25 0503 	bic.w	r5, r5, r3
 800238c:	e9d1 3100 	ldrd	r3, r1, [r1]
 8002390:	430b      	orrs	r3, r1
 8002392:	21c0      	movs	r1, #192	; 0xc0
 8002394:	4093      	lsls	r3, r2
 8002396:	fa01 f202 	lsl.w	r2, r1, r2
 800239a:	432b      	orrs	r3, r5
 800239c:	6023      	str	r3, [r4, #0]
 800239e:	6823      	ldr	r3, [r4, #0]
 80023a0:	ea23 0302 	bic.w	r3, r3, r2
 80023a4:	6023      	str	r3, [r4, #0]
 80023a6:	2301      	movs	r3, #1
 80023a8:	7103      	strb	r3, [r0, #4]
 80023aa:	2300      	movs	r3, #0
 80023ac:	7143      	strb	r3, [r0, #5]
 80023ae:	4618      	mov	r0, r3
 80023b0:	bd30      	pop	{r4, r5, pc}

080023b2 <HAL_DACEx_DMAUnderrunCallbackCh2>:
 80023b2:	4770      	bx	lr

080023b4 <DMA_CalcBaseAndBitshift>:
 80023b4:	6803      	ldr	r3, [r0, #0]
 80023b6:	2118      	movs	r1, #24
 80023b8:	b2da      	uxtb	r2, r3
 80023ba:	f423 737f 	bic.w	r3, r3, #1020	; 0x3fc
 80023be:	3a10      	subs	r2, #16
 80023c0:	f023 0303 	bic.w	r3, r3, #3
 80023c4:	fbb2 f1f1 	udiv	r1, r2, r1
 80023c8:	b510      	push	{r4, lr}
 80023ca:	2a5f      	cmp	r2, #95	; 0x5f
 80023cc:	4c03      	ldr	r4, [pc, #12]	; (80023dc <DMA_CalcBaseAndBitshift+0x28>)
 80023ce:	bf88      	it	hi
 80023d0:	3304      	addhi	r3, #4
 80023d2:	5c61      	ldrb	r1, [r4, r1]
 80023d4:	6583      	str	r3, [r0, #88]	; 0x58
 80023d6:	65c1      	str	r1, [r0, #92]	; 0x5c
 80023d8:	4618      	mov	r0, r3
 80023da:	bd10      	pop	{r4, pc}
 80023dc:	08009b30 	.word	0x08009b30

080023e0 <HAL_DMA_Init>:
 80023e0:	b570      	push	{r4, r5, r6, lr}
 80023e2:	4604      	mov	r4, r0
 80023e4:	f7ff fed6 	bl	8002194 <HAL_GetTick>
 80023e8:	4605      	mov	r5, r0
 80023ea:	2c00      	cmp	r4, #0
 80023ec:	d071      	beq.n	80024d2 <HAL_DMA_Init+0xf2>
 80023ee:	2302      	movs	r3, #2
 80023f0:	6822      	ldr	r2, [r4, #0]
 80023f2:	f884 3035 	strb.w	r3, [r4, #53]	; 0x35
 80023f6:	2300      	movs	r3, #0
 80023f8:	f884 3034 	strb.w	r3, [r4, #52]	; 0x34
 80023fc:	6813      	ldr	r3, [r2, #0]
 80023fe:	f023 0301 	bic.w	r3, r3, #1
 8002402:	6013      	str	r3, [r2, #0]
 8002404:	6822      	ldr	r2, [r4, #0]
 8002406:	6813      	ldr	r3, [r2, #0]
 8002408:	07d8      	lsls	r0, r3, #31
 800240a:	d42e      	bmi.n	800246a <HAL_DMA_Init+0x8a>
 800240c:	6813      	ldr	r3, [r2, #0]
 800240e:	4832      	ldr	r0, [pc, #200]	; (80024d8 <HAL_DMA_Init+0xf8>)
 8002410:	69a1      	ldr	r1, [r4, #24]
 8002412:	4018      	ands	r0, r3
 8002414:	e9d4 3501 	ldrd	r3, r5, [r4, #4]
 8002418:	432b      	orrs	r3, r5
 800241a:	68e5      	ldr	r5, [r4, #12]
 800241c:	432b      	orrs	r3, r5
 800241e:	6925      	ldr	r5, [r4, #16]
 8002420:	432b      	orrs	r3, r5
 8002422:	6965      	ldr	r5, [r4, #20]
 8002424:	432b      	orrs	r3, r5
 8002426:	69e5      	ldr	r5, [r4, #28]
 8002428:	430b      	orrs	r3, r1
 800242a:	432b      	orrs	r3, r5
 800242c:	6a25      	ldr	r5, [r4, #32]
 800242e:	432b      	orrs	r3, r5
 8002430:	4303      	orrs	r3, r0
 8002432:	6a60      	ldr	r0, [r4, #36]	; 0x24
 8002434:	2804      	cmp	r0, #4
 8002436:	bf02      	ittt	eq
 8002438:	e9d4 560b 	ldrdeq	r5, r6, [r4, #44]	; 0x2c
 800243c:	4335      	orreq	r5, r6
 800243e:	432b      	orreq	r3, r5
 8002440:	2804      	cmp	r0, #4
 8002442:	6013      	str	r3, [r2, #0]
 8002444:	6953      	ldr	r3, [r2, #20]
 8002446:	f023 0307 	bic.w	r3, r3, #7
 800244a:	ea43 0300 	orr.w	r3, r3, r0
 800244e:	d132      	bne.n	80024b6 <HAL_DMA_Init+0xd6>
 8002450:	6aa0      	ldr	r0, [r4, #40]	; 0x28
 8002452:	6ae5      	ldr	r5, [r4, #44]	; 0x2c
 8002454:	4303      	orrs	r3, r0
 8002456:	b375      	cbz	r5, 80024b6 <HAL_DMA_Init+0xd6>
 8002458:	b991      	cbnz	r1, 8002480 <HAL_DMA_Init+0xa0>
 800245a:	2801      	cmp	r0, #1
 800245c:	d020      	beq.n	80024a0 <HAL_DMA_Init+0xc0>
 800245e:	f030 0102 	bics.w	r1, r0, #2
 8002462:	d128      	bne.n	80024b6 <HAL_DMA_Init+0xd6>
 8002464:	01e9      	lsls	r1, r5, #7
 8002466:	d526      	bpl.n	80024b6 <HAL_DMA_Init+0xd6>
 8002468:	e01d      	b.n	80024a6 <HAL_DMA_Init+0xc6>
 800246a:	f7ff fe93 	bl	8002194 <HAL_GetTick>
 800246e:	1b40      	subs	r0, r0, r5
 8002470:	2805      	cmp	r0, #5
 8002472:	d9c7      	bls.n	8002404 <HAL_DMA_Init+0x24>
 8002474:	2320      	movs	r3, #32
 8002476:	2003      	movs	r0, #3
 8002478:	6563      	str	r3, [r4, #84]	; 0x54
 800247a:	f884 0035 	strb.w	r0, [r4, #53]	; 0x35
 800247e:	bd70      	pop	{r4, r5, r6, pc}
 8002480:	f5b1 5f00 	cmp.w	r1, #8192	; 0x2000
 8002484:	d113      	bne.n	80024ae <HAL_DMA_Init+0xce>
 8002486:	2803      	cmp	r0, #3
 8002488:	d815      	bhi.n	80024b6 <HAL_DMA_Init+0xd6>
 800248a:	a101      	add	r1, pc, #4	; (adr r1, 8002490 <HAL_DMA_Init+0xb0>)
 800248c:	f851 f020 	ldr.w	pc, [r1, r0, lsl #2]
 8002490:	080024a7 	.word	0x080024a7
 8002494:	08002465 	.word	0x08002465
 8002498:	080024a7 	.word	0x080024a7
 800249c:	080024a1 	.word	0x080024a1
 80024a0:	f1b5 7fc0 	cmp.w	r5, #25165824	; 0x1800000
 80024a4:	d107      	bne.n	80024b6 <HAL_DMA_Init+0xd6>
 80024a6:	2340      	movs	r3, #64	; 0x40
 80024a8:	2001      	movs	r0, #1
 80024aa:	6563      	str	r3, [r4, #84]	; 0x54
 80024ac:	e7e5      	b.n	800247a <HAL_DMA_Init+0x9a>
 80024ae:	2802      	cmp	r0, #2
 80024b0:	d9f9      	bls.n	80024a6 <HAL_DMA_Init+0xc6>
 80024b2:	2803      	cmp	r0, #3
 80024b4:	d0d6      	beq.n	8002464 <HAL_DMA_Init+0x84>
 80024b6:	6153      	str	r3, [r2, #20]
 80024b8:	4620      	mov	r0, r4
 80024ba:	f7ff ff7b 	bl	80023b4 <DMA_CalcBaseAndBitshift>
 80024be:	6de2      	ldr	r2, [r4, #92]	; 0x5c
 80024c0:	233f      	movs	r3, #63	; 0x3f
 80024c2:	4093      	lsls	r3, r2
 80024c4:	6083      	str	r3, [r0, #8]
 80024c6:	2000      	movs	r0, #0
 80024c8:	2301      	movs	r3, #1
 80024ca:	6560      	str	r0, [r4, #84]	; 0x54
 80024cc:	f884 3035 	strb.w	r3, [r4, #53]	; 0x35
 80024d0:	e7d5      	b.n	800247e <HAL_DMA_Init+0x9e>
 80024d2:	2001      	movs	r0, #1
 80024d4:	e7d3      	b.n	800247e <HAL_DMA_Init+0x9e>
 80024d6:	bf00      	nop
 80024d8:	e010803f 	.word	0xe010803f

080024dc <HAL_DMA_Start_IT>:
 80024dc:	b570      	push	{r4, r5, r6, lr}
 80024de:	f890 4034 	ldrb.w	r4, [r0, #52]	; 0x34
 80024e2:	6d86      	ldr	r6, [r0, #88]	; 0x58
 80024e4:	2c01      	cmp	r4, #1
 80024e6:	d034      	beq.n	8002552 <HAL_DMA_Start_IT+0x76>
 80024e8:	2401      	movs	r4, #1
 80024ea:	2500      	movs	r5, #0
 80024ec:	f880 4034 	strb.w	r4, [r0, #52]	; 0x34
 80024f0:	f890 4035 	ldrb.w	r4, [r0, #53]	; 0x35
 80024f4:	2c01      	cmp	r4, #1
 80024f6:	f04f 0402 	mov.w	r4, #2
 80024fa:	d128      	bne.n	800254e <HAL_DMA_Start_IT+0x72>
 80024fc:	f880 4035 	strb.w	r4, [r0, #53]	; 0x35
 8002500:	6804      	ldr	r4, [r0, #0]
 8002502:	6545      	str	r5, [r0, #84]	; 0x54
 8002504:	6825      	ldr	r5, [r4, #0]
 8002506:	f425 2580 	bic.w	r5, r5, #262144	; 0x40000
 800250a:	6025      	str	r5, [r4, #0]
 800250c:	6063      	str	r3, [r4, #4]
 800250e:	6883      	ldr	r3, [r0, #8]
 8002510:	2b40      	cmp	r3, #64	; 0x40
 8002512:	d119      	bne.n	8002548 <HAL_DMA_Start_IT+0x6c>
 8002514:	60a2      	str	r2, [r4, #8]
 8002516:	60e1      	str	r1, [r4, #12]
 8002518:	6dc2      	ldr	r2, [r0, #92]	; 0x5c
 800251a:	233f      	movs	r3, #63	; 0x3f
 800251c:	4093      	lsls	r3, r2
 800251e:	60b3      	str	r3, [r6, #8]
 8002520:	6823      	ldr	r3, [r4, #0]
 8002522:	f043 0316 	orr.w	r3, r3, #22
 8002526:	6023      	str	r3, [r4, #0]
 8002528:	6963      	ldr	r3, [r4, #20]
 800252a:	f043 0380 	orr.w	r3, r3, #128	; 0x80
 800252e:	6163      	str	r3, [r4, #20]
 8002530:	6c03      	ldr	r3, [r0, #64]	; 0x40
 8002532:	b11b      	cbz	r3, 800253c <HAL_DMA_Start_IT+0x60>
 8002534:	6823      	ldr	r3, [r4, #0]
 8002536:	f043 0308 	orr.w	r3, r3, #8
 800253a:	6023      	str	r3, [r4, #0]
 800253c:	6823      	ldr	r3, [r4, #0]
 800253e:	2000      	movs	r0, #0
 8002540:	f043 0301 	orr.w	r3, r3, #1
 8002544:	6023      	str	r3, [r4, #0]
 8002546:	bd70      	pop	{r4, r5, r6, pc}
 8002548:	60a1      	str	r1, [r4, #8]
 800254a:	60e2      	str	r2, [r4, #12]
 800254c:	e7e4      	b.n	8002518 <HAL_DMA_Start_IT+0x3c>
 800254e:	f880 5034 	strb.w	r5, [r0, #52]	; 0x34
 8002552:	2002      	movs	r0, #2
 8002554:	e7f7      	b.n	8002546 <HAL_DMA_Start_IT+0x6a>

08002556 <HAL_DMA_Abort>:
 8002556:	b570      	push	{r4, r5, r6, lr}
 8002558:	4604      	mov	r4, r0
 800255a:	6d86      	ldr	r6, [r0, #88]	; 0x58
 800255c:	f7ff fe1a 	bl	8002194 <HAL_GetTick>
 8002560:	4605      	mov	r5, r0
 8002562:	f894 3035 	ldrb.w	r3, [r4, #53]	; 0x35
 8002566:	2b02      	cmp	r3, #2
 8002568:	d006      	beq.n	8002578 <HAL_DMA_Abort+0x22>
 800256a:	2380      	movs	r3, #128	; 0x80
 800256c:	2001      	movs	r0, #1
 800256e:	6563      	str	r3, [r4, #84]	; 0x54
 8002570:	2300      	movs	r3, #0
 8002572:	f884 3034 	strb.w	r3, [r4, #52]	; 0x34
 8002576:	bd70      	pop	{r4, r5, r6, pc}
 8002578:	6823      	ldr	r3, [r4, #0]
 800257a:	681a      	ldr	r2, [r3, #0]
 800257c:	f022 0216 	bic.w	r2, r2, #22
 8002580:	601a      	str	r2, [r3, #0]
 8002582:	695a      	ldr	r2, [r3, #20]
 8002584:	f022 0280 	bic.w	r2, r2, #128	; 0x80
 8002588:	615a      	str	r2, [r3, #20]
 800258a:	6c22      	ldr	r2, [r4, #64]	; 0x40
 800258c:	b90a      	cbnz	r2, 8002592 <HAL_DMA_Abort+0x3c>
 800258e:	6ca2      	ldr	r2, [r4, #72]	; 0x48
 8002590:	b11a      	cbz	r2, 800259a <HAL_DMA_Abort+0x44>
 8002592:	681a      	ldr	r2, [r3, #0]
 8002594:	f022 0208 	bic.w	r2, r2, #8
 8002598:	601a      	str	r2, [r3, #0]
 800259a:	681a      	ldr	r2, [r3, #0]
 800259c:	f022 0201 	bic.w	r2, r2, #1
 80025a0:	601a      	str	r2, [r3, #0]
 80025a2:	6823      	ldr	r3, [r4, #0]
 80025a4:	681b      	ldr	r3, [r3, #0]
 80025a6:	f013 0301 	ands.w	r3, r3, #1
 80025aa:	d108      	bne.n	80025be <HAL_DMA_Abort+0x68>
 80025ac:	6de1      	ldr	r1, [r4, #92]	; 0x5c
 80025ae:	223f      	movs	r2, #63	; 0x3f
 80025b0:	4618      	mov	r0, r3
 80025b2:	408a      	lsls	r2, r1
 80025b4:	60b2      	str	r2, [r6, #8]
 80025b6:	2201      	movs	r2, #1
 80025b8:	f884 2035 	strb.w	r2, [r4, #53]	; 0x35
 80025bc:	e7d8      	b.n	8002570 <HAL_DMA_Abort+0x1a>
 80025be:	f7ff fde9 	bl	8002194 <HAL_GetTick>
 80025c2:	1b40      	subs	r0, r0, r5
 80025c4:	2805      	cmp	r0, #5
 80025c6:	d9ec      	bls.n	80025a2 <HAL_DMA_Abort+0x4c>
 80025c8:	2320      	movs	r3, #32
 80025ca:	2003      	movs	r0, #3
 80025cc:	6563      	str	r3, [r4, #84]	; 0x54
 80025ce:	f884 0035 	strb.w	r0, [r4, #53]	; 0x35
 80025d2:	e7cd      	b.n	8002570 <HAL_DMA_Abort+0x1a>

080025d4 <HAL_DMA_Abort_IT>:
 80025d4:	f890 3035 	ldrb.w	r3, [r0, #53]	; 0x35
 80025d8:	2b02      	cmp	r3, #2
 80025da:	d003      	beq.n	80025e4 <HAL_DMA_Abort_IT+0x10>
 80025dc:	2380      	movs	r3, #128	; 0x80
 80025de:	6543      	str	r3, [r0, #84]	; 0x54
 80025e0:	2001      	movs	r0, #1
 80025e2:	4770      	bx	lr
 80025e4:	6802      	ldr	r2, [r0, #0]
 80025e6:	2305      	movs	r3, #5
 80025e8:	f880 3035 	strb.w	r3, [r0, #53]	; 0x35
 80025ec:	2000      	movs	r0, #0
 80025ee:	6813      	ldr	r3, [r2, #0]
 80025f0:	f023 0301 	bic.w	r3, r3, #1
 80025f4:	6013      	str	r3, [r2, #0]
 80025f6:	4770      	bx	lr

080025f8 <HAL_DMA_IRQHandler>:
 80025f8:	2300      	movs	r3, #0
 80025fa:	b5f7      	push	{r0, r1, r2, r4, r5, r6, r7, lr}
 80025fc:	9301      	str	r3, [sp, #4]
 80025fe:	2208      	movs	r2, #8
 8002600:	4b5b      	ldr	r3, [pc, #364]	; (8002770 <HAL_DMA_IRQHandler+0x178>)
 8002602:	4604      	mov	r4, r0
 8002604:	6d85      	ldr	r5, [r0, #88]	; 0x58
 8002606:	681f      	ldr	r7, [r3, #0]
 8002608:	6dc3      	ldr	r3, [r0, #92]	; 0x5c
 800260a:	682e      	ldr	r6, [r5, #0]
 800260c:	409a      	lsls	r2, r3
 800260e:	4232      	tst	r2, r6
 8002610:	d00c      	beq.n	800262c <HAL_DMA_IRQHandler+0x34>
 8002612:	6801      	ldr	r1, [r0, #0]
 8002614:	6808      	ldr	r0, [r1, #0]
 8002616:	0740      	lsls	r0, r0, #29
 8002618:	d508      	bpl.n	800262c <HAL_DMA_IRQHandler+0x34>
 800261a:	6808      	ldr	r0, [r1, #0]
 800261c:	f020 0004 	bic.w	r0, r0, #4
 8002620:	6008      	str	r0, [r1, #0]
 8002622:	60aa      	str	r2, [r5, #8]
 8002624:	6d62      	ldr	r2, [r4, #84]	; 0x54
 8002626:	f042 0201 	orr.w	r2, r2, #1
 800262a:	6562      	str	r2, [r4, #84]	; 0x54
 800262c:	2201      	movs	r2, #1
 800262e:	409a      	lsls	r2, r3
 8002630:	4232      	tst	r2, r6
 8002632:	d008      	beq.n	8002646 <HAL_DMA_IRQHandler+0x4e>
 8002634:	6821      	ldr	r1, [r4, #0]
 8002636:	6949      	ldr	r1, [r1, #20]
 8002638:	0609      	lsls	r1, r1, #24
 800263a:	d504      	bpl.n	8002646 <HAL_DMA_IRQHandler+0x4e>
 800263c:	60aa      	str	r2, [r5, #8]
 800263e:	6d62      	ldr	r2, [r4, #84]	; 0x54
 8002640:	f042 0202 	orr.w	r2, r2, #2
 8002644:	6562      	str	r2, [r4, #84]	; 0x54
 8002646:	2204      	movs	r2, #4
 8002648:	409a      	lsls	r2, r3
 800264a:	4232      	tst	r2, r6
 800264c:	d008      	beq.n	8002660 <HAL_DMA_IRQHandler+0x68>
 800264e:	6821      	ldr	r1, [r4, #0]
 8002650:	6809      	ldr	r1, [r1, #0]
 8002652:	0788      	lsls	r0, r1, #30
 8002654:	d504      	bpl.n	8002660 <HAL_DMA_IRQHandler+0x68>
 8002656:	60aa      	str	r2, [r5, #8]
 8002658:	6d62      	ldr	r2, [r4, #84]	; 0x54
 800265a:	f042 0204 	orr.w	r2, r2, #4
 800265e:	6562      	str	r2, [r4, #84]	; 0x54
 8002660:	2210      	movs	r2, #16
 8002662:	409a      	lsls	r2, r3
 8002664:	4232      	tst	r2, r6
 8002666:	d010      	beq.n	800268a <HAL_DMA_IRQHandler+0x92>
 8002668:	6823      	ldr	r3, [r4, #0]
 800266a:	6819      	ldr	r1, [r3, #0]
 800266c:	0709      	lsls	r1, r1, #28
 800266e:	d50c      	bpl.n	800268a <HAL_DMA_IRQHandler+0x92>
 8002670:	60aa      	str	r2, [r5, #8]
 8002672:	681a      	ldr	r2, [r3, #0]
 8002674:	0350      	lsls	r0, r2, #13
 8002676:	d537      	bpl.n	80026e8 <HAL_DMA_IRQHandler+0xf0>
 8002678:	681b      	ldr	r3, [r3, #0]
 800267a:	0319      	lsls	r1, r3, #12
 800267c:	d401      	bmi.n	8002682 <HAL_DMA_IRQHandler+0x8a>
 800267e:	6c23      	ldr	r3, [r4, #64]	; 0x40
 8002680:	e000      	b.n	8002684 <HAL_DMA_IRQHandler+0x8c>
 8002682:	6ca3      	ldr	r3, [r4, #72]	; 0x48
 8002684:	b10b      	cbz	r3, 800268a <HAL_DMA_IRQHandler+0x92>
 8002686:	4620      	mov	r0, r4
 8002688:	4798      	blx	r3
 800268a:	6de1      	ldr	r1, [r4, #92]	; 0x5c
 800268c:	2220      	movs	r2, #32
 800268e:	408a      	lsls	r2, r1
 8002690:	4232      	tst	r2, r6
 8002692:	d03a      	beq.n	800270a <HAL_DMA_IRQHandler+0x112>
 8002694:	6823      	ldr	r3, [r4, #0]
 8002696:	6818      	ldr	r0, [r3, #0]
 8002698:	06c6      	lsls	r6, r0, #27
 800269a:	d536      	bpl.n	800270a <HAL_DMA_IRQHandler+0x112>
 800269c:	60aa      	str	r2, [r5, #8]
 800269e:	f894 2035 	ldrb.w	r2, [r4, #53]	; 0x35
 80026a2:	2a05      	cmp	r2, #5
 80026a4:	681a      	ldr	r2, [r3, #0]
 80026a6:	d127      	bne.n	80026f8 <HAL_DMA_IRQHandler+0x100>
 80026a8:	f022 0216 	bic.w	r2, r2, #22
 80026ac:	601a      	str	r2, [r3, #0]
 80026ae:	695a      	ldr	r2, [r3, #20]
 80026b0:	f022 0280 	bic.w	r2, r2, #128	; 0x80
 80026b4:	615a      	str	r2, [r3, #20]
 80026b6:	6c22      	ldr	r2, [r4, #64]	; 0x40
 80026b8:	b90a      	cbnz	r2, 80026be <HAL_DMA_IRQHandler+0xc6>
 80026ba:	6ca2      	ldr	r2, [r4, #72]	; 0x48
 80026bc:	b11a      	cbz	r2, 80026c6 <HAL_DMA_IRQHandler+0xce>
 80026be:	681a      	ldr	r2, [r3, #0]
 80026c0:	f022 0208 	bic.w	r2, r2, #8
 80026c4:	601a      	str	r2, [r3, #0]
 80026c6:	233f      	movs	r3, #63	; 0x3f
 80026c8:	408b      	lsls	r3, r1
 80026ca:	60ab      	str	r3, [r5, #8]
 80026cc:	2301      	movs	r3, #1
 80026ce:	f884 3035 	strb.w	r3, [r4, #53]	; 0x35
 80026d2:	2300      	movs	r3, #0
 80026d4:	f884 3034 	strb.w	r3, [r4, #52]	; 0x34
 80026d8:	6d23      	ldr	r3, [r4, #80]	; 0x50
 80026da:	2b00      	cmp	r3, #0
 80026dc:	d045      	beq.n	800276a <HAL_DMA_IRQHandler+0x172>
 80026de:	4620      	mov	r0, r4
 80026e0:	b003      	add	sp, #12
 80026e2:	e8bd 40f0 	ldmia.w	sp!, {r4, r5, r6, r7, lr}
 80026e6:	4718      	bx	r3
 80026e8:	681a      	ldr	r2, [r3, #0]
 80026ea:	05d2      	lsls	r2, r2, #23
 80026ec:	d4c7      	bmi.n	800267e <HAL_DMA_IRQHandler+0x86>
 80026ee:	681a      	ldr	r2, [r3, #0]
 80026f0:	f022 0208 	bic.w	r2, r2, #8
 80026f4:	601a      	str	r2, [r3, #0]
 80026f6:	e7c2      	b.n	800267e <HAL_DMA_IRQHandler+0x86>
 80026f8:	0350      	lsls	r0, r2, #13
 80026fa:	d527      	bpl.n	800274c <HAL_DMA_IRQHandler+0x154>
 80026fc:	681b      	ldr	r3, [r3, #0]
 80026fe:	0319      	lsls	r1, r3, #12
 8002700:	d431      	bmi.n	8002766 <HAL_DMA_IRQHandler+0x16e>
 8002702:	6c63      	ldr	r3, [r4, #68]	; 0x44
 8002704:	b10b      	cbz	r3, 800270a <HAL_DMA_IRQHandler+0x112>
 8002706:	4620      	mov	r0, r4
 8002708:	4798      	blx	r3
 800270a:	6d63      	ldr	r3, [r4, #84]	; 0x54
 800270c:	b36b      	cbz	r3, 800276a <HAL_DMA_IRQHandler+0x172>
 800270e:	6d63      	ldr	r3, [r4, #84]	; 0x54
 8002710:	07da      	lsls	r2, r3, #31
 8002712:	d519      	bpl.n	8002748 <HAL_DMA_IRQHandler+0x150>
 8002714:	f44f 5316 	mov.w	r3, #9600	; 0x2580
 8002718:	6822      	ldr	r2, [r4, #0]
 800271a:	fbb7 f7f3 	udiv	r7, r7, r3
 800271e:	2305      	movs	r3, #5
 8002720:	f884 3035 	strb.w	r3, [r4, #53]	; 0x35
 8002724:	6813      	ldr	r3, [r2, #0]
 8002726:	f023 0301 	bic.w	r3, r3, #1
 800272a:	6013      	str	r3, [r2, #0]
 800272c:	9b01      	ldr	r3, [sp, #4]
 800272e:	3301      	adds	r3, #1
 8002730:	42bb      	cmp	r3, r7
 8002732:	9301      	str	r3, [sp, #4]
 8002734:	d802      	bhi.n	800273c <HAL_DMA_IRQHandler+0x144>
 8002736:	6813      	ldr	r3, [r2, #0]
 8002738:	07db      	lsls	r3, r3, #31
 800273a:	d4f7      	bmi.n	800272c <HAL_DMA_IRQHandler+0x134>
 800273c:	2301      	movs	r3, #1
 800273e:	f884 3035 	strb.w	r3, [r4, #53]	; 0x35
 8002742:	2300      	movs	r3, #0
 8002744:	f884 3034 	strb.w	r3, [r4, #52]	; 0x34
 8002748:	6ce3      	ldr	r3, [r4, #76]	; 0x4c
 800274a:	e7c6      	b.n	80026da <HAL_DMA_IRQHandler+0xe2>
 800274c:	681a      	ldr	r2, [r3, #0]
 800274e:	f412 7280 	ands.w	r2, r2, #256	; 0x100
 8002752:	d108      	bne.n	8002766 <HAL_DMA_IRQHandler+0x16e>
 8002754:	6819      	ldr	r1, [r3, #0]
 8002756:	f021 0110 	bic.w	r1, r1, #16
 800275a:	6019      	str	r1, [r3, #0]
 800275c:	2301      	movs	r3, #1
 800275e:	f884 2034 	strb.w	r2, [r4, #52]	; 0x34
 8002762:	f884 3035 	strb.w	r3, [r4, #53]	; 0x35
 8002766:	6be3      	ldr	r3, [r4, #60]	; 0x3c
 8002768:	e7cc      	b.n	8002704 <HAL_DMA_IRQHandler+0x10c>
 800276a:	b003      	add	sp, #12
 800276c:	bdf0      	pop	{r4, r5, r6, r7, pc}
 800276e:	bf00      	nop
 8002770:	2000004c 	.word	0x2000004c

08002774 <HAL_GPIO_Init>:
 8002774:	e92d 4ff7 	stmdb	sp!, {r0, r1, r2, r4, r5, r6, r7, r8, r9, sl, fp, lr}
 8002778:	2300      	movs	r3, #0
 800277a:	f8df 91b8 	ldr.w	r9, [pc, #440]	; 8002934 <HAL_GPIO_Init+0x1c0>
 800277e:	4a6b      	ldr	r2, [pc, #428]	; (800292c <HAL_GPIO_Init+0x1b8>)
 8002780:	2401      	movs	r4, #1
 8002782:	680d      	ldr	r5, [r1, #0]
 8002784:	409c      	lsls	r4, r3
 8002786:	ea04 0c05 	and.w	ip, r4, r5
 800278a:	43ac      	bics	r4, r5
 800278c:	f040 80b4 	bne.w	80028f8 <HAL_GPIO_Init+0x184>
 8002790:	684d      	ldr	r5, [r1, #4]
 8002792:	ea4f 0843 	mov.w	r8, r3, lsl #1
 8002796:	2603      	movs	r6, #3
 8002798:	f005 0403 	and.w	r4, r5, #3
 800279c:	fa06 f608 	lsl.w	r6, r6, r8
 80027a0:	1e67      	subs	r7, r4, #1
 80027a2:	43f6      	mvns	r6, r6
 80027a4:	2f01      	cmp	r7, #1
 80027a6:	d834      	bhi.n	8002812 <HAL_GPIO_Init+0x9e>
 80027a8:	6887      	ldr	r7, [r0, #8]
 80027aa:	ea07 0e06 	and.w	lr, r7, r6
 80027ae:	68cf      	ldr	r7, [r1, #12]
 80027b0:	fa07 f708 	lsl.w	r7, r7, r8
 80027b4:	ea47 070e 	orr.w	r7, r7, lr
 80027b8:	6087      	str	r7, [r0, #8]
 80027ba:	6847      	ldr	r7, [r0, #4]
 80027bc:	ea27 0e0c 	bic.w	lr, r7, ip
 80027c0:	f3c5 1700 	ubfx	r7, r5, #4, #1
 80027c4:	409f      	lsls	r7, r3
 80027c6:	ea47 070e 	orr.w	r7, r7, lr
 80027ca:	6047      	str	r7, [r0, #4]
 80027cc:	68c7      	ldr	r7, [r0, #12]
 80027ce:	2c02      	cmp	r4, #2
 80027d0:	ea07 0e06 	and.w	lr, r7, r6
 80027d4:	688f      	ldr	r7, [r1, #8]
 80027d6:	fa07 f708 	lsl.w	r7, r7, r8
 80027da:	ea47 070e 	orr.w	r7, r7, lr
 80027de:	60c7      	str	r7, [r0, #12]
 80027e0:	d119      	bne.n	8002816 <HAL_GPIO_Init+0xa2>
 80027e2:	ea4f 0ad3 	mov.w	sl, r3, lsr #3
 80027e6:	f003 0b07 	and.w	fp, r3, #7
 80027ea:	f04f 0e0f 	mov.w	lr, #15
 80027ee:	eb00 0a8a 	add.w	sl, r0, sl, lsl #2
 80027f2:	ea4f 0b8b 	mov.w	fp, fp, lsl #2
 80027f6:	f8da 7020 	ldr.w	r7, [sl, #32]
 80027fa:	fa0e fe0b 	lsl.w	lr, lr, fp
 80027fe:	ea27 0e0e 	bic.w	lr, r7, lr
 8002802:	690f      	ldr	r7, [r1, #16]
 8002804:	fa07 f70b 	lsl.w	r7, r7, fp
 8002808:	ea47 070e 	orr.w	r7, r7, lr
 800280c:	f8ca 7020 	str.w	r7, [sl, #32]
 8002810:	e001      	b.n	8002816 <HAL_GPIO_Init+0xa2>
 8002812:	2c03      	cmp	r4, #3
 8002814:	d1da      	bne.n	80027cc <HAL_GPIO_Init+0x58>
 8002816:	6807      	ldr	r7, [r0, #0]
 8002818:	fa04 f408 	lsl.w	r4, r4, r8
 800281c:	f415 3f40 	tst.w	r5, #196608	; 0x30000
 8002820:	ea07 0706 	and.w	r7, r7, r6
 8002824:	ea44 0407 	orr.w	r4, r4, r7
 8002828:	6004      	str	r4, [r0, #0]
 800282a:	d065      	beq.n	80028f8 <HAL_GPIO_Init+0x184>
 800282c:	f8d9 4044 	ldr.w	r4, [r9, #68]	; 0x44
 8002830:	f023 0603 	bic.w	r6, r3, #3
 8002834:	f003 0703 	and.w	r7, r3, #3
 8002838:	f444 4480 	orr.w	r4, r4, #16384	; 0x4000
 800283c:	f106 4680 	add.w	r6, r6, #1073741824	; 0x40000000
 8002840:	00bf      	lsls	r7, r7, #2
 8002842:	f8c9 4044 	str.w	r4, [r9, #68]	; 0x44
 8002846:	f506 369c 	add.w	r6, r6, #79872	; 0x13800
 800284a:	f8d9 4044 	ldr.w	r4, [r9, #68]	; 0x44
 800284e:	f404 4480 	and.w	r4, r4, #16384	; 0x4000
 8002852:	9401      	str	r4, [sp, #4]
 8002854:	9c01      	ldr	r4, [sp, #4]
 8002856:	240f      	movs	r4, #15
 8002858:	f8d6 e008 	ldr.w	lr, [r6, #8]
 800285c:	40bc      	lsls	r4, r7
 800285e:	ea2e 0e04 	bic.w	lr, lr, r4
 8002862:	4c33      	ldr	r4, [pc, #204]	; (8002930 <HAL_GPIO_Init+0x1bc>)
 8002864:	42a0      	cmp	r0, r4
 8002866:	d04e      	beq.n	8002906 <HAL_GPIO_Init+0x192>
 8002868:	f504 6480 	add.w	r4, r4, #1024	; 0x400
 800286c:	42a0      	cmp	r0, r4
 800286e:	d04c      	beq.n	800290a <HAL_GPIO_Init+0x196>
 8002870:	f504 6480 	add.w	r4, r4, #1024	; 0x400
 8002874:	42a0      	cmp	r0, r4
 8002876:	d04a      	beq.n	800290e <HAL_GPIO_Init+0x19a>
 8002878:	f504 6480 	add.w	r4, r4, #1024	; 0x400
 800287c:	42a0      	cmp	r0, r4
 800287e:	d048      	beq.n	8002912 <HAL_GPIO_Init+0x19e>
 8002880:	f504 6480 	add.w	r4, r4, #1024	; 0x400
 8002884:	42a0      	cmp	r0, r4
 8002886:	d046      	beq.n	8002916 <HAL_GPIO_Init+0x1a2>
 8002888:	f504 6480 	add.w	r4, r4, #1024	; 0x400
 800288c:	42a0      	cmp	r0, r4
 800288e:	d044      	beq.n	800291a <HAL_GPIO_Init+0x1a6>
 8002890:	f504 6480 	add.w	r4, r4, #1024	; 0x400
 8002894:	42a0      	cmp	r0, r4
 8002896:	d042      	beq.n	800291e <HAL_GPIO_Init+0x1aa>
 8002898:	f504 6480 	add.w	r4, r4, #1024	; 0x400
 800289c:	42a0      	cmp	r0, r4
 800289e:	d040      	beq.n	8002922 <HAL_GPIO_Init+0x1ae>
 80028a0:	f504 6480 	add.w	r4, r4, #1024	; 0x400
 80028a4:	42a0      	cmp	r0, r4
 80028a6:	d03e      	beq.n	8002926 <HAL_GPIO_Init+0x1b2>
 80028a8:	f504 6480 	add.w	r4, r4, #1024	; 0x400
 80028ac:	42a0      	cmp	r0, r4
 80028ae:	bf0c      	ite	eq
 80028b0:	2409      	moveq	r4, #9
 80028b2:	240a      	movne	r4, #10
 80028b4:	40bc      	lsls	r4, r7
 80028b6:	02ef      	lsls	r7, r5, #11
 80028b8:	ea44 040e 	orr.w	r4, r4, lr
 80028bc:	60b4      	str	r4, [r6, #8]
 80028be:	ea6f 060c 	mvn.w	r6, ip
 80028c2:	6894      	ldr	r4, [r2, #8]
 80028c4:	bf54      	ite	pl
 80028c6:	4034      	andpl	r4, r6
 80028c8:	ea4c 0404 	orrmi.w	r4, ip, r4
 80028cc:	02af      	lsls	r7, r5, #10
 80028ce:	6094      	str	r4, [r2, #8]
 80028d0:	68d4      	ldr	r4, [r2, #12]
 80028d2:	bf54      	ite	pl
 80028d4:	4034      	andpl	r4, r6
 80028d6:	ea4c 0404 	orrmi.w	r4, ip, r4
 80028da:	03af      	lsls	r7, r5, #14
 80028dc:	60d4      	str	r4, [r2, #12]
 80028de:	6854      	ldr	r4, [r2, #4]
 80028e0:	bf54      	ite	pl
 80028e2:	4034      	andpl	r4, r6
 80028e4:	ea4c 0404 	orrmi.w	r4, ip, r4
 80028e8:	03ed      	lsls	r5, r5, #15
 80028ea:	6054      	str	r4, [r2, #4]
 80028ec:	6814      	ldr	r4, [r2, #0]
 80028ee:	bf54      	ite	pl
 80028f0:	4034      	andpl	r4, r6
 80028f2:	ea4c 0404 	orrmi.w	r4, ip, r4
 80028f6:	6014      	str	r4, [r2, #0]
 80028f8:	3301      	adds	r3, #1
 80028fa:	2b10      	cmp	r3, #16
 80028fc:	f47f af40 	bne.w	8002780 <HAL_GPIO_Init+0xc>
 8002900:	b003      	add	sp, #12
 8002902:	e8bd 8ff0 	ldmia.w	sp!, {r4, r5, r6, r7, r8, r9, sl, fp, pc}
 8002906:	2400      	movs	r4, #0
 8002908:	e7d4      	b.n	80028b4 <HAL_GPIO_Init+0x140>
 800290a:	2401      	movs	r4, #1
 800290c:	e7d2      	b.n	80028b4 <HAL_GPIO_Init+0x140>
 800290e:	2402      	movs	r4, #2
 8002910:	e7d0      	b.n	80028b4 <HAL_GPIO_Init+0x140>
 8002912:	2403      	movs	r4, #3
 8002914:	e7ce      	b.n	80028b4 <HAL_GPIO_Init+0x140>
 8002916:	2404      	movs	r4, #4
 8002918:	e7cc      	b.n	80028b4 <HAL_GPIO_Init+0x140>
 800291a:	2405      	movs	r4, #5
 800291c:	e7ca      	b.n	80028b4 <HAL_GPIO_Init+0x140>
 800291e:	2406      	movs	r4, #6
 8002920:	e7c8      	b.n	80028b4 <HAL_GPIO_Init+0x140>
 8002922:	2407      	movs	r4, #7
 8002924:	e7c6      	b.n	80028b4 <HAL_GPIO_Init+0x140>
 8002926:	2408      	movs	r4, #8
 8002928:	e7c4      	b.n	80028b4 <HAL_GPIO_Init+0x140>
 800292a:	bf00      	nop
 800292c:	40013c00 	.word	0x40013c00
 8002930:	40020000 	.word	0x40020000
 8002934:	40023800 	.word	0x40023800

08002938 <HAL_GPIO_WritePin>:
 8002938:	b10a      	cbz	r2, 800293e <HAL_GPIO_WritePin+0x6>
 800293a:	6181      	str	r1, [r0, #24]
 800293c:	4770      	bx	lr
 800293e:	0409      	lsls	r1, r1, #16
 8002940:	e7fb      	b.n	800293a <HAL_GPIO_WritePin+0x2>

08002942 <HAL_GPIO_TogglePin>:
 8002942:	6943      	ldr	r3, [r0, #20]
 8002944:	ea01 0203 	and.w	r2, r1, r3
 8002948:	ea21 0103 	bic.w	r1, r1, r3
 800294c:	ea41 4102 	orr.w	r1, r1, r2, lsl #16
 8002950:	6181      	str	r1, [r0, #24]
 8002952:	4770      	bx	lr

08002954 <I2C_Flush_TXDR>:
 8002954:	6803      	ldr	r3, [r0, #0]
 8002956:	699a      	ldr	r2, [r3, #24]
 8002958:	0791      	lsls	r1, r2, #30
 800295a:	d501      	bpl.n	8002960 <I2C_Flush_TXDR+0xc>
 800295c:	2200      	movs	r2, #0
 800295e:	629a      	str	r2, [r3, #40]	; 0x28
 8002960:	699a      	ldr	r2, [r3, #24]
 8002962:	07d2      	lsls	r2, r2, #31
 8002964:	d403      	bmi.n	800296e <I2C_Flush_TXDR+0x1a>
 8002966:	699a      	ldr	r2, [r3, #24]
 8002968:	f042 0201 	orr.w	r2, r2, #1
 800296c:	619a      	str	r2, [r3, #24]
 800296e:	4770      	bx	lr

08002970 <I2C_TransferConfig>:
 8002970:	b530      	push	{r4, r5, lr}
 8002972:	9d03      	ldr	r5, [sp, #12]
 8002974:	f3c1 0109 	ubfx	r1, r1, #0, #10
 8002978:	6804      	ldr	r4, [r0, #0]
 800297a:	432b      	orrs	r3, r5
 800297c:	6860      	ldr	r0, [r4, #4]
 800297e:	ea43 4302 	orr.w	r3, r3, r2, lsl #16
 8002982:	4a05      	ldr	r2, [pc, #20]	; (8002998 <I2C_TransferConfig+0x28>)
 8002984:	430b      	orrs	r3, r1
 8002986:	ea42 5255 	orr.w	r2, r2, r5, lsr #21
 800298a:	f023 4300 	bic.w	r3, r3, #2147483648	; 0x80000000
 800298e:	ea20 0002 	bic.w	r0, r0, r2
 8002992:	4303      	orrs	r3, r0
 8002994:	6063      	str	r3, [r4, #4]
 8002996:	bd30      	pop	{r4, r5, pc}
 8002998:	03ff63ff 	.word	0x03ff63ff

0800299c <I2C_IsErrorOccurred>:
 800299c:	6803      	ldr	r3, [r0, #0]
 800299e:	e92d 41f0 	stmdb	sp!, {r4, r5, r6, r7, r8, lr}
 80029a2:	699c      	ldr	r4, [r3, #24]
 80029a4:	4605      	mov	r5, r0
 80029a6:	460f      	mov	r7, r1
 80029a8:	4616      	mov	r6, r2
 80029aa:	f014 0410 	ands.w	r4, r4, #16
 80029ae:	d06f      	beq.n	8002a90 <I2C_IsErrorOccurred+0xf4>
 80029b0:	2400      	movs	r4, #0
 80029b2:	2210      	movs	r2, #16
 80029b4:	46a0      	mov	r8, r4
 80029b6:	61da      	str	r2, [r3, #28]
 80029b8:	682b      	ldr	r3, [r5, #0]
 80029ba:	699a      	ldr	r2, [r3, #24]
 80029bc:	0690      	lsls	r0, r2, #26
 80029be:	d461      	bmi.n	8002a84 <I2C_IsErrorOccurred+0xe8>
 80029c0:	f1b8 0f00 	cmp.w	r8, #0
 80029c4:	d035      	beq.n	8002a32 <I2C_IsErrorOccurred+0x96>
 80029c6:	f044 0404 	orr.w	r4, r4, #4
 80029ca:	2001      	movs	r0, #1
 80029cc:	682e      	ldr	r6, [r5, #0]
 80029ce:	69b3      	ldr	r3, [r6, #24]
 80029d0:	05d9      	lsls	r1, r3, #23
 80029d2:	d505      	bpl.n	80029e0 <I2C_IsErrorOccurred+0x44>
 80029d4:	f44f 7280 	mov.w	r2, #256	; 0x100
 80029d8:	f044 0401 	orr.w	r4, r4, #1
 80029dc:	2001      	movs	r0, #1
 80029de:	61f2      	str	r2, [r6, #28]
 80029e0:	055a      	lsls	r2, r3, #21
 80029e2:	d505      	bpl.n	80029f0 <I2C_IsErrorOccurred+0x54>
 80029e4:	f44f 6280 	mov.w	r2, #1024	; 0x400
 80029e8:	f044 0408 	orr.w	r4, r4, #8
 80029ec:	2001      	movs	r0, #1
 80029ee:	61f2      	str	r2, [r6, #28]
 80029f0:	059b      	lsls	r3, r3, #22
 80029f2:	d54f      	bpl.n	8002a94 <I2C_IsErrorOccurred+0xf8>
 80029f4:	f44f 7300 	mov.w	r3, #512	; 0x200
 80029f8:	f044 0402 	orr.w	r4, r4, #2
 80029fc:	61f3      	str	r3, [r6, #28]
 80029fe:	4628      	mov	r0, r5
 8002a00:	f7ff ffa8 	bl	8002954 <I2C_Flush_TXDR>
 8002a04:	6873      	ldr	r3, [r6, #4]
 8002a06:	2001      	movs	r0, #1
 8002a08:	f023 73ff 	bic.w	r3, r3, #33423360	; 0x1fe0000
 8002a0c:	f423 338b 	bic.w	r3, r3, #71168	; 0x11600
 8002a10:	f423 73ff 	bic.w	r3, r3, #510	; 0x1fe
 8002a14:	f023 0301 	bic.w	r3, r3, #1
 8002a18:	6073      	str	r3, [r6, #4]
 8002a1a:	6c6b      	ldr	r3, [r5, #68]	; 0x44
 8002a1c:	4323      	orrs	r3, r4
 8002a1e:	646b      	str	r3, [r5, #68]	; 0x44
 8002a20:	2320      	movs	r3, #32
 8002a22:	f885 3041 	strb.w	r3, [r5, #65]	; 0x41
 8002a26:	2300      	movs	r3, #0
 8002a28:	f885 3042 	strb.w	r3, [r5, #66]	; 0x42
 8002a2c:	f885 3040 	strb.w	r3, [r5, #64]	; 0x40
 8002a30:	e032      	b.n	8002a98 <I2C_IsErrorOccurred+0xfc>
 8002a32:	1c7a      	adds	r2, r7, #1
 8002a34:	d0c1      	beq.n	80029ba <I2C_IsErrorOccurred+0x1e>
 8002a36:	f7ff fbad 	bl	8002194 <HAL_GetTick>
 8002a3a:	1b80      	subs	r0, r0, r6
 8002a3c:	42b8      	cmp	r0, r7
 8002a3e:	d801      	bhi.n	8002a44 <I2C_IsErrorOccurred+0xa8>
 8002a40:	2f00      	cmp	r7, #0
 8002a42:	d1b9      	bne.n	80029b8 <I2C_IsErrorOccurred+0x1c>
 8002a44:	682b      	ldr	r3, [r5, #0]
 8002a46:	6859      	ldr	r1, [r3, #4]
 8002a48:	f895 2042 	ldrb.w	r2, [r5, #66]	; 0x42
 8002a4c:	6998      	ldr	r0, [r3, #24]
 8002a4e:	b2d2      	uxtb	r2, r2
 8002a50:	0400      	lsls	r0, r0, #16
 8002a52:	d50a      	bpl.n	8002a6a <I2C_IsErrorOccurred+0xce>
 8002a54:	0449      	lsls	r1, r1, #17
 8002a56:	d408      	bmi.n	8002a6a <I2C_IsErrorOccurred+0xce>
 8002a58:	2a20      	cmp	r2, #32
 8002a5a:	d006      	beq.n	8002a6a <I2C_IsErrorOccurred+0xce>
 8002a5c:	685a      	ldr	r2, [r3, #4]
 8002a5e:	f442 4280 	orr.w	r2, r2, #16384	; 0x4000
 8002a62:	605a      	str	r2, [r3, #4]
 8002a64:	f7ff fb96 	bl	8002194 <HAL_GetTick>
 8002a68:	4606      	mov	r6, r0
 8002a6a:	682b      	ldr	r3, [r5, #0]
 8002a6c:	699b      	ldr	r3, [r3, #24]
 8002a6e:	069b      	lsls	r3, r3, #26
 8002a70:	d4a2      	bmi.n	80029b8 <I2C_IsErrorOccurred+0x1c>
 8002a72:	f7ff fb8f 	bl	8002194 <HAL_GetTick>
 8002a76:	1b80      	subs	r0, r0, r6
 8002a78:	2819      	cmp	r0, #25
 8002a7a:	d9f6      	bls.n	8002a6a <I2C_IsErrorOccurred+0xce>
 8002a7c:	2420      	movs	r4, #32
 8002a7e:	f04f 0801 	mov.w	r8, #1
 8002a82:	e799      	b.n	80029b8 <I2C_IsErrorOccurred+0x1c>
 8002a84:	f1b8 0f00 	cmp.w	r8, #0
 8002a88:	d19d      	bne.n	80029c6 <I2C_IsErrorOccurred+0x2a>
 8002a8a:	2220      	movs	r2, #32
 8002a8c:	61da      	str	r2, [r3, #28]
 8002a8e:	e79a      	b.n	80029c6 <I2C_IsErrorOccurred+0x2a>
 8002a90:	4620      	mov	r0, r4
 8002a92:	e79b      	b.n	80029cc <I2C_IsErrorOccurred+0x30>
 8002a94:	2800      	cmp	r0, #0
 8002a96:	d1b2      	bne.n	80029fe <I2C_IsErrorOccurred+0x62>
 8002a98:	e8bd 81f0 	ldmia.w	sp!, {r4, r5, r6, r7, r8, pc}

08002a9c <I2C_WaitOnTXISFlagUntilTimeout>:
 8002a9c:	b570      	push	{r4, r5, r6, lr}
 8002a9e:	4604      	mov	r4, r0
 8002aa0:	460d      	mov	r5, r1
 8002aa2:	4616      	mov	r6, r2
 8002aa4:	6823      	ldr	r3, [r4, #0]
 8002aa6:	699b      	ldr	r3, [r3, #24]
 8002aa8:	079b      	lsls	r3, r3, #30
 8002aaa:	d501      	bpl.n	8002ab0 <I2C_WaitOnTXISFlagUntilTimeout+0x14>
 8002aac:	2000      	movs	r0, #0
 8002aae:	bd70      	pop	{r4, r5, r6, pc}
 8002ab0:	4632      	mov	r2, r6
 8002ab2:	4629      	mov	r1, r5
 8002ab4:	4620      	mov	r0, r4
 8002ab6:	f7ff ff71 	bl	800299c <I2C_IsErrorOccurred>
 8002aba:	b9a0      	cbnz	r0, 8002ae6 <I2C_WaitOnTXISFlagUntilTimeout+0x4a>
 8002abc:	1c6a      	adds	r2, r5, #1
 8002abe:	d0f1      	beq.n	8002aa4 <I2C_WaitOnTXISFlagUntilTimeout+0x8>
 8002ac0:	f7ff fb68 	bl	8002194 <HAL_GetTick>
 8002ac4:	1b80      	subs	r0, r0, r6
 8002ac6:	42a8      	cmp	r0, r5
 8002ac8:	d801      	bhi.n	8002ace <I2C_WaitOnTXISFlagUntilTimeout+0x32>
 8002aca:	2d00      	cmp	r5, #0
 8002acc:	d1ea      	bne.n	8002aa4 <I2C_WaitOnTXISFlagUntilTimeout+0x8>
 8002ace:	6c63      	ldr	r3, [r4, #68]	; 0x44
 8002ad0:	f043 0320 	orr.w	r3, r3, #32
 8002ad4:	6463      	str	r3, [r4, #68]	; 0x44
 8002ad6:	2320      	movs	r3, #32
 8002ad8:	f884 3041 	strb.w	r3, [r4, #65]	; 0x41
 8002adc:	2300      	movs	r3, #0
 8002ade:	f884 3042 	strb.w	r3, [r4, #66]	; 0x42
 8002ae2:	f884 3040 	strb.w	r3, [r4, #64]	; 0x40
 8002ae6:	2001      	movs	r0, #1
 8002ae8:	e7e1      	b.n	8002aae <I2C_WaitOnTXISFlagUntilTimeout+0x12>

08002aea <I2C_WaitOnFlagUntilTimeout>:
 8002aea:	e92d 41f0 	stmdb	sp!, {r4, r5, r6, r7, r8, lr}
 8002aee:	9f06      	ldr	r7, [sp, #24]
 8002af0:	4604      	mov	r4, r0
 8002af2:	4688      	mov	r8, r1
 8002af4:	4616      	mov	r6, r2
 8002af6:	461d      	mov	r5, r3
 8002af8:	6822      	ldr	r2, [r4, #0]
 8002afa:	6993      	ldr	r3, [r2, #24]
 8002afc:	ea38 0303 	bics.w	r3, r8, r3
 8002b00:	bf0c      	ite	eq
 8002b02:	2301      	moveq	r3, #1
 8002b04:	2300      	movne	r3, #0
 8002b06:	42b3      	cmp	r3, r6
 8002b08:	d001      	beq.n	8002b0e <I2C_WaitOnFlagUntilTimeout+0x24>
 8002b0a:	2000      	movs	r0, #0
 8002b0c:	e015      	b.n	8002b3a <I2C_WaitOnFlagUntilTimeout+0x50>
 8002b0e:	1c6b      	adds	r3, r5, #1
 8002b10:	d0f3      	beq.n	8002afa <I2C_WaitOnFlagUntilTimeout+0x10>
 8002b12:	f7ff fb3f 	bl	8002194 <HAL_GetTick>
 8002b16:	1bc0      	subs	r0, r0, r7
 8002b18:	42a8      	cmp	r0, r5
 8002b1a:	d801      	bhi.n	8002b20 <I2C_WaitOnFlagUntilTimeout+0x36>
 8002b1c:	2d00      	cmp	r5, #0
 8002b1e:	d1eb      	bne.n	8002af8 <I2C_WaitOnFlagUntilTimeout+0xe>
 8002b20:	6c63      	ldr	r3, [r4, #68]	; 0x44
 8002b22:	2001      	movs	r0, #1
 8002b24:	f043 0320 	orr.w	r3, r3, #32
 8002b28:	6463      	str	r3, [r4, #68]	; 0x44
 8002b2a:	2320      	movs	r3, #32
 8002b2c:	f884 3041 	strb.w	r3, [r4, #65]	; 0x41
 8002b30:	2300      	movs	r3, #0
 8002b32:	f884 3042 	strb.w	r3, [r4, #66]	; 0x42
 8002b36:	f884 3040 	strb.w	r3, [r4, #64]	; 0x40
 8002b3a:	e8bd 81f0 	ldmia.w	sp!, {r4, r5, r6, r7, r8, pc}

08002b3e <I2C_WaitOnSTOPFlagUntilTimeout>:
 8002b3e:	b570      	push	{r4, r5, r6, lr}
 8002b40:	4604      	mov	r4, r0
 8002b42:	460d      	mov	r5, r1
 8002b44:	4616      	mov	r6, r2
 8002b46:	6823      	ldr	r3, [r4, #0]
 8002b48:	699b      	ldr	r3, [r3, #24]
 8002b4a:	069b      	lsls	r3, r3, #26
 8002b4c:	d501      	bpl.n	8002b52 <I2C_WaitOnSTOPFlagUntilTimeout+0x14>
 8002b4e:	2000      	movs	r0, #0
 8002b50:	bd70      	pop	{r4, r5, r6, pc}
 8002b52:	4632      	mov	r2, r6
 8002b54:	4629      	mov	r1, r5
 8002b56:	4620      	mov	r0, r4
 8002b58:	f7ff ff20 	bl	800299c <I2C_IsErrorOccurred>
 8002b5c:	b990      	cbnz	r0, 8002b84 <I2C_WaitOnSTOPFlagUntilTimeout+0x46>
 8002b5e:	f7ff fb19 	bl	8002194 <HAL_GetTick>
 8002b62:	1b80      	subs	r0, r0, r6
 8002b64:	42a8      	cmp	r0, r5
 8002b66:	d801      	bhi.n	8002b6c <I2C_WaitOnSTOPFlagUntilTimeout+0x2e>
 8002b68:	2d00      	cmp	r5, #0
 8002b6a:	d1ec      	bne.n	8002b46 <I2C_WaitOnSTOPFlagUntilTimeout+0x8>
 8002b6c:	6c63      	ldr	r3, [r4, #68]	; 0x44
 8002b6e:	f043 0320 	orr.w	r3, r3, #32
 8002b72:	6463      	str	r3, [r4, #68]	; 0x44
 8002b74:	2320      	movs	r3, #32
 8002b76:	f884 3041 	strb.w	r3, [r4, #65]	; 0x41
 8002b7a:	2300      	movs	r3, #0
 8002b7c:	f884 3042 	strb.w	r3, [r4, #66]	; 0x42
 8002b80:	f884 3040 	strb.w	r3, [r4, #64]	; 0x40
 8002b84:	2001      	movs	r0, #1
 8002b86:	e7e3      	b.n	8002b50 <I2C_WaitOnSTOPFlagUntilTimeout+0x12>

08002b88 <HAL_I2C_Init>:
 8002b88:	b510      	push	{r4, lr}
 8002b8a:	4604      	mov	r4, r0
 8002b8c:	2800      	cmp	r0, #0
 8002b8e:	d04a      	beq.n	8002c26 <HAL_I2C_Init+0x9e>
 8002b90:	f890 3041 	ldrb.w	r3, [r0, #65]	; 0x41
 8002b94:	f003 02ff 	and.w	r2, r3, #255	; 0xff
 8002b98:	b91b      	cbnz	r3, 8002ba2 <HAL_I2C_Init+0x1a>
 8002b9a:	f880 2040 	strb.w	r2, [r0, #64]	; 0x40
 8002b9e:	f7fe fcab 	bl	80014f8 <HAL_I2C_MspInit>
 8002ba2:	2324      	movs	r3, #36	; 0x24
 8002ba4:	f884 3041 	strb.w	r3, [r4, #65]	; 0x41
 8002ba8:	6823      	ldr	r3, [r4, #0]
 8002baa:	681a      	ldr	r2, [r3, #0]
 8002bac:	f022 0201 	bic.w	r2, r2, #1
 8002bb0:	601a      	str	r2, [r3, #0]
 8002bb2:	6862      	ldr	r2, [r4, #4]
 8002bb4:	f022 6270 	bic.w	r2, r2, #251658240	; 0xf000000
 8002bb8:	611a      	str	r2, [r3, #16]
 8002bba:	689a      	ldr	r2, [r3, #8]
 8002bbc:	f422 4200 	bic.w	r2, r2, #32768	; 0x8000
 8002bc0:	609a      	str	r2, [r3, #8]
 8002bc2:	e9d4 2102 	ldrd	r2, r1, [r4, #8]
 8002bc6:	2901      	cmp	r1, #1
 8002bc8:	d124      	bne.n	8002c14 <HAL_I2C_Init+0x8c>
 8002bca:	f442 4200 	orr.w	r2, r2, #32768	; 0x8000
 8002bce:	609a      	str	r2, [r3, #8]
 8002bd0:	685a      	ldr	r2, [r3, #4]
 8002bd2:	2000      	movs	r0, #0
 8002bd4:	f042 7200 	orr.w	r2, r2, #33554432	; 0x2000000
 8002bd8:	f442 4200 	orr.w	r2, r2, #32768	; 0x8000
 8002bdc:	605a      	str	r2, [r3, #4]
 8002bde:	68da      	ldr	r2, [r3, #12]
 8002be0:	f422 4200 	bic.w	r2, r2, #32768	; 0x8000
 8002be4:	60da      	str	r2, [r3, #12]
 8002be6:	e9d4 2104 	ldrd	r2, r1, [r4, #16]
 8002bea:	430a      	orrs	r2, r1
 8002bec:	69a1      	ldr	r1, [r4, #24]
 8002bee:	ea42 2201 	orr.w	r2, r2, r1, lsl #8
 8002bf2:	60da      	str	r2, [r3, #12]
 8002bf4:	e9d4 2107 	ldrd	r2, r1, [r4, #28]
 8002bf8:	430a      	orrs	r2, r1
 8002bfa:	601a      	str	r2, [r3, #0]
 8002bfc:	681a      	ldr	r2, [r3, #0]
 8002bfe:	f042 0201 	orr.w	r2, r2, #1
 8002c02:	601a      	str	r2, [r3, #0]
 8002c04:	2320      	movs	r3, #32
 8002c06:	6460      	str	r0, [r4, #68]	; 0x44
 8002c08:	f884 3041 	strb.w	r3, [r4, #65]	; 0x41
 8002c0c:	6320      	str	r0, [r4, #48]	; 0x30
 8002c0e:	f884 0042 	strb.w	r0, [r4, #66]	; 0x42
 8002c12:	bd10      	pop	{r4, pc}
 8002c14:	f442 4204 	orr.w	r2, r2, #33792	; 0x8400
 8002c18:	2902      	cmp	r1, #2
 8002c1a:	609a      	str	r2, [r3, #8]
 8002c1c:	d1d8      	bne.n	8002bd0 <HAL_I2C_Init+0x48>
 8002c1e:	f44f 6200 	mov.w	r2, #2048	; 0x800
 8002c22:	605a      	str	r2, [r3, #4]
 8002c24:	e7d4      	b.n	8002bd0 <HAL_I2C_Init+0x48>
 8002c26:	2001      	movs	r0, #1
 8002c28:	e7f3      	b.n	8002c12 <HAL_I2C_Init+0x8a>
	...

08002c2c <HAL_I2C_Mem_Write>:
 8002c2c:	e92d 4ff7 	stmdb	sp!, {r0, r1, r2, r4, r5, r6, r7, r8, r9, sl, fp, lr}
 8002c30:	4699      	mov	r9, r3
 8002c32:	f890 3041 	ldrb.w	r3, [r0, #65]	; 0x41
 8002c36:	4604      	mov	r4, r0
 8002c38:	460f      	mov	r7, r1
 8002c3a:	2b20      	cmp	r3, #32
 8002c3c:	4616      	mov	r6, r2
 8002c3e:	f8bd a034 	ldrh.w	sl, [sp, #52]	; 0x34
 8002c42:	f8dd 8038 	ldr.w	r8, [sp, #56]	; 0x38
 8002c46:	f040 80c6 	bne.w	8002dd6 <HAL_I2C_Mem_Write+0x1aa>
 8002c4a:	9b0c      	ldr	r3, [sp, #48]	; 0x30
 8002c4c:	b113      	cbz	r3, 8002c54 <HAL_I2C_Mem_Write+0x28>
 8002c4e:	f1ba 0f00 	cmp.w	sl, #0
 8002c52:	d106      	bne.n	8002c62 <HAL_I2C_Mem_Write+0x36>
 8002c54:	f44f 7300 	mov.w	r3, #512	; 0x200
 8002c58:	6463      	str	r3, [r4, #68]	; 0x44
 8002c5a:	2001      	movs	r0, #1
 8002c5c:	b003      	add	sp, #12
 8002c5e:	e8bd 8ff0 	ldmia.w	sp!, {r4, r5, r6, r7, r8, r9, sl, fp, pc}
 8002c62:	f890 3040 	ldrb.w	r3, [r0, #64]	; 0x40
 8002c66:	2b01      	cmp	r3, #1
 8002c68:	f000 80b5 	beq.w	8002dd6 <HAL_I2C_Mem_Write+0x1aa>
 8002c6c:	f04f 0b01 	mov.w	fp, #1
 8002c70:	f880 b040 	strb.w	fp, [r0, #64]	; 0x40
 8002c74:	f7ff fa8e 	bl	8002194 <HAL_GetTick>
 8002c78:	2319      	movs	r3, #25
 8002c7a:	4605      	mov	r5, r0
 8002c7c:	9000      	str	r0, [sp, #0]
 8002c7e:	465a      	mov	r2, fp
 8002c80:	f44f 4100 	mov.w	r1, #32768	; 0x8000
 8002c84:	4620      	mov	r0, r4
 8002c86:	f7ff ff30 	bl	8002aea <I2C_WaitOnFlagUntilTimeout>
 8002c8a:	2800      	cmp	r0, #0
 8002c8c:	d1e5      	bne.n	8002c5a <HAL_I2C_Mem_Write+0x2e>
 8002c8e:	2321      	movs	r3, #33	; 0x21
 8002c90:	fa5f f289 	uxtb.w	r2, r9
 8002c94:	4639      	mov	r1, r7
 8002c96:	6360      	str	r0, [r4, #52]	; 0x34
 8002c98:	f884 3041 	strb.w	r3, [r4, #65]	; 0x41
 8002c9c:	2340      	movs	r3, #64	; 0x40
 8002c9e:	f884 3042 	strb.w	r3, [r4, #66]	; 0x42
 8002ca2:	9b0c      	ldr	r3, [sp, #48]	; 0x30
 8002ca4:	6460      	str	r0, [r4, #68]	; 0x44
 8002ca6:	4620      	mov	r0, r4
 8002ca8:	6263      	str	r3, [r4, #36]	; 0x24
 8002caa:	4b4c      	ldr	r3, [pc, #304]	; (8002ddc <HAL_I2C_Mem_Write+0x1b0>)
 8002cac:	f8a4 a02a 	strh.w	sl, [r4, #42]	; 0x2a
 8002cb0:	9300      	str	r3, [sp, #0]
 8002cb2:	f04f 7380 	mov.w	r3, #16777216	; 0x1000000
 8002cb6:	f7ff fe5b 	bl	8002970 <I2C_TransferConfig>
 8002cba:	462a      	mov	r2, r5
 8002cbc:	4641      	mov	r1, r8
 8002cbe:	4620      	mov	r0, r4
 8002cc0:	f7ff feec 	bl	8002a9c <I2C_WaitOnTXISFlagUntilTimeout>
 8002cc4:	bb18      	cbnz	r0, 8002d0e <HAL_I2C_Mem_Write+0xe2>
 8002cc6:	f1b9 0f01 	cmp.w	r9, #1
 8002cca:	6823      	ldr	r3, [r4, #0]
 8002ccc:	d115      	bne.n	8002cfa <HAL_I2C_Mem_Write+0xce>
 8002cce:	b2f6      	uxtb	r6, r6
 8002cd0:	2200      	movs	r2, #0
 8002cd2:	2180      	movs	r1, #128	; 0x80
 8002cd4:	4620      	mov	r0, r4
 8002cd6:	629e      	str	r6, [r3, #40]	; 0x28
 8002cd8:	4643      	mov	r3, r8
 8002cda:	9500      	str	r5, [sp, #0]
 8002cdc:	f7ff ff05 	bl	8002aea <I2C_WaitOnFlagUntilTimeout>
 8002ce0:	b9a8      	cbnz	r0, 8002d0e <HAL_I2C_Mem_Write+0xe2>
 8002ce2:	8d63      	ldrh	r3, [r4, #42]	; 0x2a
 8002ce4:	b29b      	uxth	r3, r3
 8002ce6:	2bff      	cmp	r3, #255	; 0xff
 8002ce8:	d815      	bhi.n	8002d16 <HAL_I2C_Mem_Write+0xea>
 8002cea:	8d62      	ldrh	r2, [r4, #42]	; 0x2a
 8002cec:	f04f 7300 	mov.w	r3, #33554432	; 0x2000000
 8002cf0:	9000      	str	r0, [sp, #0]
 8002cf2:	b292      	uxth	r2, r2
 8002cf4:	8522      	strh	r2, [r4, #40]	; 0x28
 8002cf6:	b2d2      	uxtb	r2, r2
 8002cf8:	e012      	b.n	8002d20 <HAL_I2C_Mem_Write+0xf4>
 8002cfa:	0a32      	lsrs	r2, r6, #8
 8002cfc:	4641      	mov	r1, r8
 8002cfe:	4620      	mov	r0, r4
 8002d00:	629a      	str	r2, [r3, #40]	; 0x28
 8002d02:	462a      	mov	r2, r5
 8002d04:	f7ff feca 	bl	8002a9c <I2C_WaitOnTXISFlagUntilTimeout>
 8002d08:	b908      	cbnz	r0, 8002d0e <HAL_I2C_Mem_Write+0xe2>
 8002d0a:	6823      	ldr	r3, [r4, #0]
 8002d0c:	e7df      	b.n	8002cce <HAL_I2C_Mem_Write+0xa2>
 8002d0e:	2300      	movs	r3, #0
 8002d10:	f884 3040 	strb.w	r3, [r4, #64]	; 0x40
 8002d14:	e7a1      	b.n	8002c5a <HAL_I2C_Mem_Write+0x2e>
 8002d16:	22ff      	movs	r2, #255	; 0xff
 8002d18:	f04f 7380 	mov.w	r3, #16777216	; 0x1000000
 8002d1c:	9000      	str	r0, [sp, #0]
 8002d1e:	8522      	strh	r2, [r4, #40]	; 0x28
 8002d20:	4639      	mov	r1, r7
 8002d22:	4620      	mov	r0, r4
 8002d24:	f7ff fe24 	bl	8002970 <I2C_TransferConfig>
 8002d28:	462a      	mov	r2, r5
 8002d2a:	4641      	mov	r1, r8
 8002d2c:	4620      	mov	r0, r4
 8002d2e:	f7ff feb5 	bl	8002a9c <I2C_WaitOnTXISFlagUntilTimeout>
 8002d32:	2800      	cmp	r0, #0
 8002d34:	d191      	bne.n	8002c5a <HAL_I2C_Mem_Write+0x2e>
 8002d36:	6a63      	ldr	r3, [r4, #36]	; 0x24
 8002d38:	6822      	ldr	r2, [r4, #0]
 8002d3a:	f813 1b01 	ldrb.w	r1, [r3], #1
 8002d3e:	6291      	str	r1, [r2, #40]	; 0x28
 8002d40:	6263      	str	r3, [r4, #36]	; 0x24
 8002d42:	8d63      	ldrh	r3, [r4, #42]	; 0x2a
 8002d44:	8d22      	ldrh	r2, [r4, #40]	; 0x28
 8002d46:	3b01      	subs	r3, #1
 8002d48:	3a01      	subs	r2, #1
 8002d4a:	b29b      	uxth	r3, r3
 8002d4c:	b292      	uxth	r2, r2
 8002d4e:	8563      	strh	r3, [r4, #42]	; 0x2a
 8002d50:	8d63      	ldrh	r3, [r4, #42]	; 0x2a
 8002d52:	8522      	strh	r2, [r4, #40]	; 0x28
 8002d54:	b29b      	uxth	r3, r3
 8002d56:	b1b3      	cbz	r3, 8002d86 <HAL_I2C_Mem_Write+0x15a>
 8002d58:	b9aa      	cbnz	r2, 8002d86 <HAL_I2C_Mem_Write+0x15a>
 8002d5a:	4643      	mov	r3, r8
 8002d5c:	2180      	movs	r1, #128	; 0x80
 8002d5e:	4620      	mov	r0, r4
 8002d60:	9500      	str	r5, [sp, #0]
 8002d62:	f7ff fec2 	bl	8002aea <I2C_WaitOnFlagUntilTimeout>
 8002d66:	2800      	cmp	r0, #0
 8002d68:	f47f af77 	bne.w	8002c5a <HAL_I2C_Mem_Write+0x2e>
 8002d6c:	8d63      	ldrh	r3, [r4, #42]	; 0x2a
 8002d6e:	b29b      	uxth	r3, r3
 8002d70:	2bff      	cmp	r3, #255	; 0xff
 8002d72:	d928      	bls.n	8002dc6 <HAL_I2C_Mem_Write+0x19a>
 8002d74:	22ff      	movs	r2, #255	; 0xff
 8002d76:	f04f 7380 	mov.w	r3, #16777216	; 0x1000000
 8002d7a:	9000      	str	r0, [sp, #0]
 8002d7c:	8522      	strh	r2, [r4, #40]	; 0x28
 8002d7e:	4639      	mov	r1, r7
 8002d80:	4620      	mov	r0, r4
 8002d82:	f7ff fdf5 	bl	8002970 <I2C_TransferConfig>
 8002d86:	8d63      	ldrh	r3, [r4, #42]	; 0x2a
 8002d88:	b29b      	uxth	r3, r3
 8002d8a:	2b00      	cmp	r3, #0
 8002d8c:	d1cc      	bne.n	8002d28 <HAL_I2C_Mem_Write+0xfc>
 8002d8e:	462a      	mov	r2, r5
 8002d90:	4641      	mov	r1, r8
 8002d92:	4620      	mov	r0, r4
 8002d94:	f7ff fed3 	bl	8002b3e <I2C_WaitOnSTOPFlagUntilTimeout>
 8002d98:	2800      	cmp	r0, #0
 8002d9a:	f47f af5e 	bne.w	8002c5a <HAL_I2C_Mem_Write+0x2e>
 8002d9e:	6823      	ldr	r3, [r4, #0]
 8002da0:	2120      	movs	r1, #32
 8002da2:	61d9      	str	r1, [r3, #28]
 8002da4:	685a      	ldr	r2, [r3, #4]
 8002da6:	f022 72ff 	bic.w	r2, r2, #33423360	; 0x1fe0000
 8002daa:	f422 328b 	bic.w	r2, r2, #71168	; 0x11600
 8002dae:	f422 72ff 	bic.w	r2, r2, #510	; 0x1fe
 8002db2:	f022 0201 	bic.w	r2, r2, #1
 8002db6:	605a      	str	r2, [r3, #4]
 8002db8:	f884 1041 	strb.w	r1, [r4, #65]	; 0x41
 8002dbc:	f884 0040 	strb.w	r0, [r4, #64]	; 0x40
 8002dc0:	f884 0042 	strb.w	r0, [r4, #66]	; 0x42
 8002dc4:	e74a      	b.n	8002c5c <HAL_I2C_Mem_Write+0x30>
 8002dc6:	8d62      	ldrh	r2, [r4, #42]	; 0x2a
 8002dc8:	f04f 7300 	mov.w	r3, #33554432	; 0x2000000
 8002dcc:	9000      	str	r0, [sp, #0]
 8002dce:	b292      	uxth	r2, r2
 8002dd0:	8522      	strh	r2, [r4, #40]	; 0x28
 8002dd2:	b2d2      	uxtb	r2, r2
 8002dd4:	e7d3      	b.n	8002d7e <HAL_I2C_Mem_Write+0x152>
 8002dd6:	2002      	movs	r0, #2
 8002dd8:	e740      	b.n	8002c5c <HAL_I2C_Mem_Write+0x30>
 8002dda:	bf00      	nop
 8002ddc:	80002000 	.word	0x80002000

08002de0 <HAL_I2CEx_ConfigAnalogFilter>:
 8002de0:	b510      	push	{r4, lr}
 8002de2:	f890 3041 	ldrb.w	r3, [r0, #65]	; 0x41
 8002de6:	2b20      	cmp	r3, #32
 8002de8:	b2dc      	uxtb	r4, r3
 8002dea:	d11d      	bne.n	8002e28 <HAL_I2CEx_ConfigAnalogFilter+0x48>
 8002dec:	f890 3040 	ldrb.w	r3, [r0, #64]	; 0x40
 8002df0:	2b01      	cmp	r3, #1
 8002df2:	d019      	beq.n	8002e28 <HAL_I2CEx_ConfigAnalogFilter+0x48>
 8002df4:	2324      	movs	r3, #36	; 0x24
 8002df6:	f880 3041 	strb.w	r3, [r0, #65]	; 0x41
 8002dfa:	6803      	ldr	r3, [r0, #0]
 8002dfc:	681a      	ldr	r2, [r3, #0]
 8002dfe:	f022 0201 	bic.w	r2, r2, #1
 8002e02:	601a      	str	r2, [r3, #0]
 8002e04:	681a      	ldr	r2, [r3, #0]
 8002e06:	f422 5280 	bic.w	r2, r2, #4096	; 0x1000
 8002e0a:	601a      	str	r2, [r3, #0]
 8002e0c:	681a      	ldr	r2, [r3, #0]
 8002e0e:	4311      	orrs	r1, r2
 8002e10:	6019      	str	r1, [r3, #0]
 8002e12:	681a      	ldr	r2, [r3, #0]
 8002e14:	f042 0201 	orr.w	r2, r2, #1
 8002e18:	601a      	str	r2, [r3, #0]
 8002e1a:	2300      	movs	r3, #0
 8002e1c:	f880 4041 	strb.w	r4, [r0, #65]	; 0x41
 8002e20:	f880 3040 	strb.w	r3, [r0, #64]	; 0x40
 8002e24:	4618      	mov	r0, r3
 8002e26:	bd10      	pop	{r4, pc}
 8002e28:	2002      	movs	r0, #2
 8002e2a:	e7fc      	b.n	8002e26 <HAL_I2CEx_ConfigAnalogFilter+0x46>

08002e2c <HAL_I2CEx_ConfigDigitalFilter>:
 8002e2c:	b510      	push	{r4, lr}
 8002e2e:	f890 3041 	ldrb.w	r3, [r0, #65]	; 0x41
 8002e32:	2b20      	cmp	r3, #32
 8002e34:	b2dc      	uxtb	r4, r3
 8002e36:	d11c      	bne.n	8002e72 <HAL_I2CEx_ConfigDigitalFilter+0x46>
 8002e38:	f890 3040 	ldrb.w	r3, [r0, #64]	; 0x40
 8002e3c:	2b01      	cmp	r3, #1
 8002e3e:	d018      	beq.n	8002e72 <HAL_I2CEx_ConfigDigitalFilter+0x46>
 8002e40:	2324      	movs	r3, #36	; 0x24
 8002e42:	f880 3041 	strb.w	r3, [r0, #65]	; 0x41
 8002e46:	6803      	ldr	r3, [r0, #0]
 8002e48:	681a      	ldr	r2, [r3, #0]
 8002e4a:	f022 0201 	bic.w	r2, r2, #1
 8002e4e:	601a      	str	r2, [r3, #0]
 8002e50:	681a      	ldr	r2, [r3, #0]
 8002e52:	f422 6270 	bic.w	r2, r2, #3840	; 0xf00
 8002e56:	ea42 2101 	orr.w	r1, r2, r1, lsl #8
 8002e5a:	6019      	str	r1, [r3, #0]
 8002e5c:	681a      	ldr	r2, [r3, #0]
 8002e5e:	f042 0201 	orr.w	r2, r2, #1
 8002e62:	601a      	str	r2, [r3, #0]
 8002e64:	2300      	movs	r3, #0
 8002e66:	f880 4041 	strb.w	r4, [r0, #65]	; 0x41
 8002e6a:	f880 3040 	strb.w	r3, [r0, #64]	; 0x40
 8002e6e:	4618      	mov	r0, r3
 8002e70:	bd10      	pop	{r4, pc}
 8002e72:	2002      	movs	r0, #2
 8002e74:	e7fc      	b.n	8002e70 <HAL_I2CEx_ConfigDigitalFilter+0x44>
	...

08002e78 <HAL_PWREx_EnableOverDrive>:
 8002e78:	4b19      	ldr	r3, [pc, #100]	; (8002ee0 <HAL_PWREx_EnableOverDrive+0x68>)
 8002e7a:	b537      	push	{r0, r1, r2, r4, r5, lr}
 8002e7c:	6c1a      	ldr	r2, [r3, #64]	; 0x40
 8002e7e:	4c19      	ldr	r4, [pc, #100]	; (8002ee4 <HAL_PWREx_EnableOverDrive+0x6c>)
 8002e80:	f042 5280 	orr.w	r2, r2, #268435456	; 0x10000000
 8002e84:	641a      	str	r2, [r3, #64]	; 0x40
 8002e86:	6c1b      	ldr	r3, [r3, #64]	; 0x40
 8002e88:	f003 5380 	and.w	r3, r3, #268435456	; 0x10000000
 8002e8c:	9301      	str	r3, [sp, #4]
 8002e8e:	9b01      	ldr	r3, [sp, #4]
 8002e90:	6823      	ldr	r3, [r4, #0]
 8002e92:	f443 3380 	orr.w	r3, r3, #65536	; 0x10000
 8002e96:	6023      	str	r3, [r4, #0]
 8002e98:	f7ff f97c 	bl	8002194 <HAL_GetTick>
 8002e9c:	4605      	mov	r5, r0
 8002e9e:	6863      	ldr	r3, [r4, #4]
 8002ea0:	03da      	lsls	r2, r3, #15
 8002ea2:	d50c      	bpl.n	8002ebe <HAL_PWREx_EnableOverDrive+0x46>
 8002ea4:	6823      	ldr	r3, [r4, #0]
 8002ea6:	4d0f      	ldr	r5, [pc, #60]	; (8002ee4 <HAL_PWREx_EnableOverDrive+0x6c>)
 8002ea8:	f443 3300 	orr.w	r3, r3, #131072	; 0x20000
 8002eac:	6023      	str	r3, [r4, #0]
 8002eae:	f7ff f971 	bl	8002194 <HAL_GetTick>
 8002eb2:	4604      	mov	r4, r0
 8002eb4:	686b      	ldr	r3, [r5, #4]
 8002eb6:	039b      	lsls	r3, r3, #14
 8002eb8:	d50a      	bpl.n	8002ed0 <HAL_PWREx_EnableOverDrive+0x58>
 8002eba:	2000      	movs	r0, #0
 8002ebc:	e006      	b.n	8002ecc <HAL_PWREx_EnableOverDrive+0x54>
 8002ebe:	f7ff f969 	bl	8002194 <HAL_GetTick>
 8002ec2:	1b40      	subs	r0, r0, r5
 8002ec4:	f5b0 7f7a 	cmp.w	r0, #1000	; 0x3e8
 8002ec8:	d9e9      	bls.n	8002e9e <HAL_PWREx_EnableOverDrive+0x26>
 8002eca:	2003      	movs	r0, #3
 8002ecc:	b003      	add	sp, #12
 8002ece:	bd30      	pop	{r4, r5, pc}
 8002ed0:	f7ff f960 	bl	8002194 <HAL_GetTick>
 8002ed4:	1b00      	subs	r0, r0, r4
 8002ed6:	f5b0 7f7a 	cmp.w	r0, #1000	; 0x3e8
 8002eda:	d9eb      	bls.n	8002eb4 <HAL_PWREx_EnableOverDrive+0x3c>
 8002edc:	e7f5      	b.n	8002eca <HAL_PWREx_EnableOverDrive+0x52>
 8002ede:	bf00      	nop
 8002ee0:	40023800 	.word	0x40023800
 8002ee4:	40007000 	.word	0x40007000

08002ee8 <HAL_RCC_OscConfig>:
 8002ee8:	e92d 41f3 	stmdb	sp!, {r0, r1, r4, r5, r6, r7, r8, lr}
 8002eec:	4604      	mov	r4, r0
 8002eee:	b340      	cbz	r0, 8002f42 <HAL_RCC_OscConfig+0x5a>
 8002ef0:	6803      	ldr	r3, [r0, #0]
 8002ef2:	07db      	lsls	r3, r3, #31
 8002ef4:	d410      	bmi.n	8002f18 <HAL_RCC_OscConfig+0x30>
 8002ef6:	6823      	ldr	r3, [r4, #0]
 8002ef8:	079f      	lsls	r7, r3, #30
 8002efa:	d461      	bmi.n	8002fc0 <HAL_RCC_OscConfig+0xd8>
 8002efc:	6823      	ldr	r3, [r4, #0]
 8002efe:	0719      	lsls	r1, r3, #28
 8002f00:	f100 80a6 	bmi.w	8003050 <HAL_RCC_OscConfig+0x168>
 8002f04:	6823      	ldr	r3, [r4, #0]
 8002f06:	075a      	lsls	r2, r3, #29
 8002f08:	f100 80c7 	bmi.w	800309a <HAL_RCC_OscConfig+0x1b2>
 8002f0c:	69a2      	ldr	r2, [r4, #24]
 8002f0e:	2a00      	cmp	r2, #0
 8002f10:	f040 8130 	bne.w	8003174 <HAL_RCC_OscConfig+0x28c>
 8002f14:	2000      	movs	r0, #0
 8002f16:	e02c      	b.n	8002f72 <HAL_RCC_OscConfig+0x8a>
 8002f18:	4b94      	ldr	r3, [pc, #592]	; (800316c <HAL_RCC_OscConfig+0x284>)
 8002f1a:	689a      	ldr	r2, [r3, #8]
 8002f1c:	f002 020c 	and.w	r2, r2, #12
 8002f20:	2a04      	cmp	r2, #4
 8002f22:	d007      	beq.n	8002f34 <HAL_RCC_OscConfig+0x4c>
 8002f24:	689a      	ldr	r2, [r3, #8]
 8002f26:	f002 020c 	and.w	r2, r2, #12
 8002f2a:	2a08      	cmp	r2, #8
 8002f2c:	d10b      	bne.n	8002f46 <HAL_RCC_OscConfig+0x5e>
 8002f2e:	685b      	ldr	r3, [r3, #4]
 8002f30:	025e      	lsls	r6, r3, #9
 8002f32:	d508      	bpl.n	8002f46 <HAL_RCC_OscConfig+0x5e>
 8002f34:	4b8d      	ldr	r3, [pc, #564]	; (800316c <HAL_RCC_OscConfig+0x284>)
 8002f36:	681b      	ldr	r3, [r3, #0]
 8002f38:	039d      	lsls	r5, r3, #14
 8002f3a:	d5dc      	bpl.n	8002ef6 <HAL_RCC_OscConfig+0xe>
 8002f3c:	6863      	ldr	r3, [r4, #4]
 8002f3e:	2b00      	cmp	r3, #0
 8002f40:	d1d9      	bne.n	8002ef6 <HAL_RCC_OscConfig+0xe>
 8002f42:	2001      	movs	r0, #1
 8002f44:	e015      	b.n	8002f72 <HAL_RCC_OscConfig+0x8a>
 8002f46:	6863      	ldr	r3, [r4, #4]
 8002f48:	4d88      	ldr	r5, [pc, #544]	; (800316c <HAL_RCC_OscConfig+0x284>)
 8002f4a:	f5b3 3f80 	cmp.w	r3, #65536	; 0x10000
 8002f4e:	d113      	bne.n	8002f78 <HAL_RCC_OscConfig+0x90>
 8002f50:	682b      	ldr	r3, [r5, #0]
 8002f52:	f443 3380 	orr.w	r3, r3, #65536	; 0x10000
 8002f56:	602b      	str	r3, [r5, #0]
 8002f58:	f7ff f91c 	bl	8002194 <HAL_GetTick>
 8002f5c:	4e83      	ldr	r6, [pc, #524]	; (800316c <HAL_RCC_OscConfig+0x284>)
 8002f5e:	4605      	mov	r5, r0
 8002f60:	6833      	ldr	r3, [r6, #0]
 8002f62:	0398      	lsls	r0, r3, #14
 8002f64:	d4c7      	bmi.n	8002ef6 <HAL_RCC_OscConfig+0xe>
 8002f66:	f7ff f915 	bl	8002194 <HAL_GetTick>
 8002f6a:	1b40      	subs	r0, r0, r5
 8002f6c:	2864      	cmp	r0, #100	; 0x64
 8002f6e:	d9f7      	bls.n	8002f60 <HAL_RCC_OscConfig+0x78>
 8002f70:	2003      	movs	r0, #3
 8002f72:	b002      	add	sp, #8
 8002f74:	e8bd 81f0 	ldmia.w	sp!, {r4, r5, r6, r7, r8, pc}
 8002f78:	b99b      	cbnz	r3, 8002fa2 <HAL_RCC_OscConfig+0xba>
 8002f7a:	682b      	ldr	r3, [r5, #0]
 8002f7c:	f423 3380 	bic.w	r3, r3, #65536	; 0x10000
 8002f80:	602b      	str	r3, [r5, #0]
 8002f82:	682b      	ldr	r3, [r5, #0]
 8002f84:	f423 2380 	bic.w	r3, r3, #262144	; 0x40000
 8002f88:	602b      	str	r3, [r5, #0]
 8002f8a:	f7ff f903 	bl	8002194 <HAL_GetTick>
 8002f8e:	4606      	mov	r6, r0
 8002f90:	682b      	ldr	r3, [r5, #0]
 8002f92:	0399      	lsls	r1, r3, #14
 8002f94:	d5af      	bpl.n	8002ef6 <HAL_RCC_OscConfig+0xe>
 8002f96:	f7ff f8fd 	bl	8002194 <HAL_GetTick>
 8002f9a:	1b80      	subs	r0, r0, r6
 8002f9c:	2864      	cmp	r0, #100	; 0x64
 8002f9e:	d9f7      	bls.n	8002f90 <HAL_RCC_OscConfig+0xa8>
 8002fa0:	e7e6      	b.n	8002f70 <HAL_RCC_OscConfig+0x88>
 8002fa2:	f5b3 2fa0 	cmp.w	r3, #327680	; 0x50000
 8002fa6:	682b      	ldr	r3, [r5, #0]
 8002fa8:	d103      	bne.n	8002fb2 <HAL_RCC_OscConfig+0xca>
 8002faa:	f443 2380 	orr.w	r3, r3, #262144	; 0x40000
 8002fae:	602b      	str	r3, [r5, #0]
 8002fb0:	e7ce      	b.n	8002f50 <HAL_RCC_OscConfig+0x68>
 8002fb2:	f423 3380 	bic.w	r3, r3, #65536	; 0x10000
 8002fb6:	602b      	str	r3, [r5, #0]
 8002fb8:	682b      	ldr	r3, [r5, #0]
 8002fba:	f423 2380 	bic.w	r3, r3, #262144	; 0x40000
 8002fbe:	e7ca      	b.n	8002f56 <HAL_RCC_OscConfig+0x6e>
 8002fc0:	4b6a      	ldr	r3, [pc, #424]	; (800316c <HAL_RCC_OscConfig+0x284>)
 8002fc2:	689a      	ldr	r2, [r3, #8]
 8002fc4:	f012 0f0c 	tst.w	r2, #12
 8002fc8:	d007      	beq.n	8002fda <HAL_RCC_OscConfig+0xf2>
 8002fca:	689a      	ldr	r2, [r3, #8]
 8002fcc:	f002 020c 	and.w	r2, r2, #12
 8002fd0:	2a08      	cmp	r2, #8
 8002fd2:	d111      	bne.n	8002ff8 <HAL_RCC_OscConfig+0x110>
 8002fd4:	685b      	ldr	r3, [r3, #4]
 8002fd6:	025a      	lsls	r2, r3, #9
 8002fd8:	d40e      	bmi.n	8002ff8 <HAL_RCC_OscConfig+0x110>
 8002fda:	4a64      	ldr	r2, [pc, #400]	; (800316c <HAL_RCC_OscConfig+0x284>)
 8002fdc:	6813      	ldr	r3, [r2, #0]
 8002fde:	079b      	lsls	r3, r3, #30
 8002fe0:	d502      	bpl.n	8002fe8 <HAL_RCC_OscConfig+0x100>
 8002fe2:	68e3      	ldr	r3, [r4, #12]
 8002fe4:	2b01      	cmp	r3, #1
 8002fe6:	d1ac      	bne.n	8002f42 <HAL_RCC_OscConfig+0x5a>
 8002fe8:	6813      	ldr	r3, [r2, #0]
 8002fea:	6921      	ldr	r1, [r4, #16]
 8002fec:	f023 03f8 	bic.w	r3, r3, #248	; 0xf8
 8002ff0:	ea43 03c1 	orr.w	r3, r3, r1, lsl #3
 8002ff4:	6013      	str	r3, [r2, #0]
 8002ff6:	e781      	b.n	8002efc <HAL_RCC_OscConfig+0x14>
 8002ff8:	68e3      	ldr	r3, [r4, #12]
 8002ffa:	4d5c      	ldr	r5, [pc, #368]	; (800316c <HAL_RCC_OscConfig+0x284>)
 8002ffc:	b1bb      	cbz	r3, 800302e <HAL_RCC_OscConfig+0x146>
 8002ffe:	682b      	ldr	r3, [r5, #0]
 8003000:	f043 0301 	orr.w	r3, r3, #1
 8003004:	602b      	str	r3, [r5, #0]
 8003006:	f7ff f8c5 	bl	8002194 <HAL_GetTick>
 800300a:	4606      	mov	r6, r0
 800300c:	682b      	ldr	r3, [r5, #0]
 800300e:	079f      	lsls	r7, r3, #30
 8003010:	d507      	bpl.n	8003022 <HAL_RCC_OscConfig+0x13a>
 8003012:	682b      	ldr	r3, [r5, #0]
 8003014:	6922      	ldr	r2, [r4, #16]
 8003016:	f023 03f8 	bic.w	r3, r3, #248	; 0xf8
 800301a:	ea43 03c2 	orr.w	r3, r3, r2, lsl #3
 800301e:	602b      	str	r3, [r5, #0]
 8003020:	e76c      	b.n	8002efc <HAL_RCC_OscConfig+0x14>
 8003022:	f7ff f8b7 	bl	8002194 <HAL_GetTick>
 8003026:	1b80      	subs	r0, r0, r6
 8003028:	2802      	cmp	r0, #2
 800302a:	d9ef      	bls.n	800300c <HAL_RCC_OscConfig+0x124>
 800302c:	e7a0      	b.n	8002f70 <HAL_RCC_OscConfig+0x88>
 800302e:	682b      	ldr	r3, [r5, #0]
 8003030:	f023 0301 	bic.w	r3, r3, #1
 8003034:	602b      	str	r3, [r5, #0]
 8003036:	f7ff f8ad 	bl	8002194 <HAL_GetTick>
 800303a:	4606      	mov	r6, r0
 800303c:	682b      	ldr	r3, [r5, #0]
 800303e:	0798      	lsls	r0, r3, #30
 8003040:	f57f af5c 	bpl.w	8002efc <HAL_RCC_OscConfig+0x14>
 8003044:	f7ff f8a6 	bl	8002194 <HAL_GetTick>
 8003048:	1b80      	subs	r0, r0, r6
 800304a:	2802      	cmp	r0, #2
 800304c:	d9f6      	bls.n	800303c <HAL_RCC_OscConfig+0x154>
 800304e:	e78f      	b.n	8002f70 <HAL_RCC_OscConfig+0x88>
 8003050:	6963      	ldr	r3, [r4, #20]
 8003052:	4d46      	ldr	r5, [pc, #280]	; (800316c <HAL_RCC_OscConfig+0x284>)
 8003054:	b183      	cbz	r3, 8003078 <HAL_RCC_OscConfig+0x190>
 8003056:	6f6b      	ldr	r3, [r5, #116]	; 0x74
 8003058:	f043 0301 	orr.w	r3, r3, #1
 800305c:	676b      	str	r3, [r5, #116]	; 0x74
 800305e:	f7ff f899 	bl	8002194 <HAL_GetTick>
 8003062:	4606      	mov	r6, r0
 8003064:	6f6b      	ldr	r3, [r5, #116]	; 0x74
 8003066:	079b      	lsls	r3, r3, #30
 8003068:	f53f af4c 	bmi.w	8002f04 <HAL_RCC_OscConfig+0x1c>
 800306c:	f7ff f892 	bl	8002194 <HAL_GetTick>
 8003070:	1b80      	subs	r0, r0, r6
 8003072:	2802      	cmp	r0, #2
 8003074:	d9f6      	bls.n	8003064 <HAL_RCC_OscConfig+0x17c>
 8003076:	e77b      	b.n	8002f70 <HAL_RCC_OscConfig+0x88>
 8003078:	6f6b      	ldr	r3, [r5, #116]	; 0x74
 800307a:	f023 0301 	bic.w	r3, r3, #1
 800307e:	676b      	str	r3, [r5, #116]	; 0x74
 8003080:	f7ff f888 	bl	8002194 <HAL_GetTick>
 8003084:	4606      	mov	r6, r0
 8003086:	6f6b      	ldr	r3, [r5, #116]	; 0x74
 8003088:	079f      	lsls	r7, r3, #30
 800308a:	f57f af3b 	bpl.w	8002f04 <HAL_RCC_OscConfig+0x1c>
 800308e:	f7ff f881 	bl	8002194 <HAL_GetTick>
 8003092:	1b80      	subs	r0, r0, r6
 8003094:	2802      	cmp	r0, #2
 8003096:	d9f6      	bls.n	8003086 <HAL_RCC_OscConfig+0x19e>
 8003098:	e76a      	b.n	8002f70 <HAL_RCC_OscConfig+0x88>
 800309a:	4b34      	ldr	r3, [pc, #208]	; (800316c <HAL_RCC_OscConfig+0x284>)
 800309c:	6c1a      	ldr	r2, [r3, #64]	; 0x40
 800309e:	00d0      	lsls	r0, r2, #3
 80030a0:	d427      	bmi.n	80030f2 <HAL_RCC_OscConfig+0x20a>
 80030a2:	6c1a      	ldr	r2, [r3, #64]	; 0x40
 80030a4:	2701      	movs	r7, #1
 80030a6:	f042 5280 	orr.w	r2, r2, #268435456	; 0x10000000
 80030aa:	641a      	str	r2, [r3, #64]	; 0x40
 80030ac:	6c1b      	ldr	r3, [r3, #64]	; 0x40
 80030ae:	f003 5380 	and.w	r3, r3, #268435456	; 0x10000000
 80030b2:	9301      	str	r3, [sp, #4]
 80030b4:	9b01      	ldr	r3, [sp, #4]
 80030b6:	4d2e      	ldr	r5, [pc, #184]	; (8003170 <HAL_RCC_OscConfig+0x288>)
 80030b8:	682b      	ldr	r3, [r5, #0]
 80030ba:	05d9      	lsls	r1, r3, #23
 80030bc:	d51b      	bpl.n	80030f6 <HAL_RCC_OscConfig+0x20e>
 80030be:	68a3      	ldr	r3, [r4, #8]
 80030c0:	4d2a      	ldr	r5, [pc, #168]	; (800316c <HAL_RCC_OscConfig+0x284>)
 80030c2:	2b01      	cmp	r3, #1
 80030c4:	d127      	bne.n	8003116 <HAL_RCC_OscConfig+0x22e>
 80030c6:	6f2b      	ldr	r3, [r5, #112]	; 0x70
 80030c8:	f043 0301 	orr.w	r3, r3, #1
 80030cc:	672b      	str	r3, [r5, #112]	; 0x70
 80030ce:	f241 3888 	movw	r8, #5000	; 0x1388
 80030d2:	f7ff f85f 	bl	8002194 <HAL_GetTick>
 80030d6:	4e25      	ldr	r6, [pc, #148]	; (800316c <HAL_RCC_OscConfig+0x284>)
 80030d8:	4605      	mov	r5, r0
 80030da:	6f33      	ldr	r3, [r6, #112]	; 0x70
 80030dc:	079b      	lsls	r3, r3, #30
 80030de:	d53f      	bpl.n	8003160 <HAL_RCC_OscConfig+0x278>
 80030e0:	2f00      	cmp	r7, #0
 80030e2:	f43f af13 	beq.w	8002f0c <HAL_RCC_OscConfig+0x24>
 80030e6:	4a21      	ldr	r2, [pc, #132]	; (800316c <HAL_RCC_OscConfig+0x284>)
 80030e8:	6c13      	ldr	r3, [r2, #64]	; 0x40
 80030ea:	f023 5380 	bic.w	r3, r3, #268435456	; 0x10000000
 80030ee:	6413      	str	r3, [r2, #64]	; 0x40
 80030f0:	e70c      	b.n	8002f0c <HAL_RCC_OscConfig+0x24>
 80030f2:	2700      	movs	r7, #0
 80030f4:	e7df      	b.n	80030b6 <HAL_RCC_OscConfig+0x1ce>
 80030f6:	682b      	ldr	r3, [r5, #0]
 80030f8:	f443 7380 	orr.w	r3, r3, #256	; 0x100
 80030fc:	602b      	str	r3, [r5, #0]
 80030fe:	f7ff f849 	bl	8002194 <HAL_GetTick>
 8003102:	4606      	mov	r6, r0
 8003104:	682b      	ldr	r3, [r5, #0]
 8003106:	05da      	lsls	r2, r3, #23
 8003108:	d4d9      	bmi.n	80030be <HAL_RCC_OscConfig+0x1d6>
 800310a:	f7ff f843 	bl	8002194 <HAL_GetTick>
 800310e:	1b80      	subs	r0, r0, r6
 8003110:	2864      	cmp	r0, #100	; 0x64
 8003112:	d9f7      	bls.n	8003104 <HAL_RCC_OscConfig+0x21c>
 8003114:	e72c      	b.n	8002f70 <HAL_RCC_OscConfig+0x88>
 8003116:	b9ab      	cbnz	r3, 8003144 <HAL_RCC_OscConfig+0x25c>
 8003118:	6f2b      	ldr	r3, [r5, #112]	; 0x70
 800311a:	f241 3888 	movw	r8, #5000	; 0x1388
 800311e:	f023 0301 	bic.w	r3, r3, #1
 8003122:	672b      	str	r3, [r5, #112]	; 0x70
 8003124:	6f2b      	ldr	r3, [r5, #112]	; 0x70
 8003126:	f023 0304 	bic.w	r3, r3, #4
 800312a:	672b      	str	r3, [r5, #112]	; 0x70
 800312c:	f7ff f832 	bl	8002194 <HAL_GetTick>
 8003130:	4606      	mov	r6, r0
 8003132:	6f2b      	ldr	r3, [r5, #112]	; 0x70
 8003134:	0798      	lsls	r0, r3, #30
 8003136:	d5d3      	bpl.n	80030e0 <HAL_RCC_OscConfig+0x1f8>
 8003138:	f7ff f82c 	bl	8002194 <HAL_GetTick>
 800313c:	1b80      	subs	r0, r0, r6
 800313e:	4540      	cmp	r0, r8
 8003140:	d9f7      	bls.n	8003132 <HAL_RCC_OscConfig+0x24a>
 8003142:	e715      	b.n	8002f70 <HAL_RCC_OscConfig+0x88>
 8003144:	2b05      	cmp	r3, #5
 8003146:	6f2b      	ldr	r3, [r5, #112]	; 0x70
 8003148:	d103      	bne.n	8003152 <HAL_RCC_OscConfig+0x26a>
 800314a:	f043 0304 	orr.w	r3, r3, #4
 800314e:	672b      	str	r3, [r5, #112]	; 0x70
 8003150:	e7b9      	b.n	80030c6 <HAL_RCC_OscConfig+0x1de>
 8003152:	f023 0301 	bic.w	r3, r3, #1
 8003156:	672b      	str	r3, [r5, #112]	; 0x70
 8003158:	6f2b      	ldr	r3, [r5, #112]	; 0x70
 800315a:	f023 0304 	bic.w	r3, r3, #4
 800315e:	e7b5      	b.n	80030cc <HAL_RCC_OscConfig+0x1e4>
 8003160:	f7ff f818 	bl	8002194 <HAL_GetTick>
 8003164:	1b40      	subs	r0, r0, r5
 8003166:	4540      	cmp	r0, r8
 8003168:	d9b7      	bls.n	80030da <HAL_RCC_OscConfig+0x1f2>
 800316a:	e701      	b.n	8002f70 <HAL_RCC_OscConfig+0x88>
 800316c:	40023800 	.word	0x40023800
 8003170:	40007000 	.word	0x40007000
 8003174:	4d3c      	ldr	r5, [pc, #240]	; (8003268 <HAL_RCC_OscConfig+0x380>)
 8003176:	68ab      	ldr	r3, [r5, #8]
 8003178:	f003 030c 	and.w	r3, r3, #12
 800317c:	2b08      	cmp	r3, #8
 800317e:	d042      	beq.n	8003206 <HAL_RCC_OscConfig+0x31e>
 8003180:	682b      	ldr	r3, [r5, #0]
 8003182:	2a02      	cmp	r2, #2
 8003184:	f023 7380 	bic.w	r3, r3, #16777216	; 0x1000000
 8003188:	602b      	str	r3, [r5, #0]
 800318a:	d12f      	bne.n	80031ec <HAL_RCC_OscConfig+0x304>
 800318c:	f7ff f802 	bl	8002194 <HAL_GetTick>
 8003190:	4606      	mov	r6, r0
 8003192:	682b      	ldr	r3, [r5, #0]
 8003194:	0199      	lsls	r1, r3, #6
 8003196:	d423      	bmi.n	80031e0 <HAL_RCC_OscConfig+0x2f8>
 8003198:	e9d4 3207 	ldrd	r3, r2, [r4, #28]
 800319c:	4313      	orrs	r3, r2
 800319e:	6a62      	ldr	r2, [r4, #36]	; 0x24
 80031a0:	ea43 1382 	orr.w	r3, r3, r2, lsl #6
 80031a4:	6ae2      	ldr	r2, [r4, #44]	; 0x2c
 80031a6:	ea43 6302 	orr.w	r3, r3, r2, lsl #24
 80031aa:	6b22      	ldr	r2, [r4, #48]	; 0x30
 80031ac:	ea43 7302 	orr.w	r3, r3, r2, lsl #28
 80031b0:	6aa2      	ldr	r2, [r4, #40]	; 0x28
 80031b2:	0852      	lsrs	r2, r2, #1
 80031b4:	3a01      	subs	r2, #1
 80031b6:	ea43 4302 	orr.w	r3, r3, r2, lsl #16
 80031ba:	606b      	str	r3, [r5, #4]
 80031bc:	682b      	ldr	r3, [r5, #0]
 80031be:	f043 7380 	orr.w	r3, r3, #16777216	; 0x1000000
 80031c2:	602b      	str	r3, [r5, #0]
 80031c4:	f7fe ffe6 	bl	8002194 <HAL_GetTick>
 80031c8:	4d27      	ldr	r5, [pc, #156]	; (8003268 <HAL_RCC_OscConfig+0x380>)
 80031ca:	4604      	mov	r4, r0
 80031cc:	682b      	ldr	r3, [r5, #0]
 80031ce:	019a      	lsls	r2, r3, #6
 80031d0:	f53f aea0 	bmi.w	8002f14 <HAL_RCC_OscConfig+0x2c>
 80031d4:	f7fe ffde 	bl	8002194 <HAL_GetTick>
 80031d8:	1b00      	subs	r0, r0, r4
 80031da:	2802      	cmp	r0, #2
 80031dc:	d9f6      	bls.n	80031cc <HAL_RCC_OscConfig+0x2e4>
 80031de:	e6c7      	b.n	8002f70 <HAL_RCC_OscConfig+0x88>
 80031e0:	f7fe ffd8 	bl	8002194 <HAL_GetTick>
 80031e4:	1b80      	subs	r0, r0, r6
 80031e6:	2802      	cmp	r0, #2
 80031e8:	d9d3      	bls.n	8003192 <HAL_RCC_OscConfig+0x2aa>
 80031ea:	e6c1      	b.n	8002f70 <HAL_RCC_OscConfig+0x88>
 80031ec:	f7fe ffd2 	bl	8002194 <HAL_GetTick>
 80031f0:	4604      	mov	r4, r0
 80031f2:	682b      	ldr	r3, [r5, #0]
 80031f4:	019b      	lsls	r3, r3, #6
 80031f6:	f57f ae8d 	bpl.w	8002f14 <HAL_RCC_OscConfig+0x2c>
 80031fa:	f7fe ffcb 	bl	8002194 <HAL_GetTick>
 80031fe:	1b00      	subs	r0, r0, r4
 8003200:	2802      	cmp	r0, #2
 8003202:	d9f6      	bls.n	80031f2 <HAL_RCC_OscConfig+0x30a>
 8003204:	e6b4      	b.n	8002f70 <HAL_RCC_OscConfig+0x88>
 8003206:	2a01      	cmp	r2, #1
 8003208:	686b      	ldr	r3, [r5, #4]
 800320a:	f43f ae9a 	beq.w	8002f42 <HAL_RCC_OscConfig+0x5a>
 800320e:	f403 0280 	and.w	r2, r3, #4194304	; 0x400000
 8003212:	69e1      	ldr	r1, [r4, #28]
 8003214:	428a      	cmp	r2, r1
 8003216:	f47f ae94 	bne.w	8002f42 <HAL_RCC_OscConfig+0x5a>
 800321a:	f003 023f 	and.w	r2, r3, #63	; 0x3f
 800321e:	6a21      	ldr	r1, [r4, #32]
 8003220:	428a      	cmp	r2, r1
 8003222:	f47f ae8e 	bne.w	8002f42 <HAL_RCC_OscConfig+0x5a>
 8003226:	f647 72c0 	movw	r2, #32704	; 0x7fc0
 800322a:	6a61      	ldr	r1, [r4, #36]	; 0x24
 800322c:	401a      	ands	r2, r3
 800322e:	ebb2 1f81 	cmp.w	r2, r1, lsl #6
 8003232:	f47f ae86 	bne.w	8002f42 <HAL_RCC_OscConfig+0x5a>
 8003236:	6aa2      	ldr	r2, [r4, #40]	; 0x28
 8003238:	f403 3140 	and.w	r1, r3, #196608	; 0x30000
 800323c:	0852      	lsrs	r2, r2, #1
 800323e:	3a01      	subs	r2, #1
 8003240:	ebb1 4f02 	cmp.w	r1, r2, lsl #16
 8003244:	f47f ae7d 	bne.w	8002f42 <HAL_RCC_OscConfig+0x5a>
 8003248:	f003 6270 	and.w	r2, r3, #251658240	; 0xf000000
 800324c:	6ae1      	ldr	r1, [r4, #44]	; 0x2c
 800324e:	ebb2 6f01 	cmp.w	r2, r1, lsl #24
 8003252:	f47f ae76 	bne.w	8002f42 <HAL_RCC_OscConfig+0x5a>
 8003256:	f003 43e0 	and.w	r3, r3, #1879048192	; 0x70000000
 800325a:	6b22      	ldr	r2, [r4, #48]	; 0x30
 800325c:	ebb3 7f02 	cmp.w	r3, r2, lsl #28
 8003260:	f43f ae58 	beq.w	8002f14 <HAL_RCC_OscConfig+0x2c>
 8003264:	e66d      	b.n	8002f42 <HAL_RCC_OscConfig+0x5a>
 8003266:	bf00      	nop
 8003268:	40023800 	.word	0x40023800

0800326c <HAL_RCC_GetSysClockFreq>:
 800326c:	4913      	ldr	r1, [pc, #76]	; (80032bc <HAL_RCC_GetSysClockFreq+0x50>)
 800326e:	b508      	push	{r3, lr}
 8003270:	688b      	ldr	r3, [r1, #8]
 8003272:	f003 030c 	and.w	r3, r3, #12
 8003276:	2b04      	cmp	r3, #4
 8003278:	d01b      	beq.n	80032b2 <HAL_RCC_GetSysClockFreq+0x46>
 800327a:	2b08      	cmp	r3, #8
 800327c:	d11b      	bne.n	80032b6 <HAL_RCC_GetSysClockFreq+0x4a>
 800327e:	684a      	ldr	r2, [r1, #4]
 8003280:	684b      	ldr	r3, [r1, #4]
 8003282:	6849      	ldr	r1, [r1, #4]
 8003284:	f002 023f 	and.w	r2, r2, #63	; 0x3f
 8003288:	f413 0380 	ands.w	r3, r3, #4194304	; 0x400000
 800328c:	f3c1 1188 	ubfx	r1, r1, #6, #9
 8003290:	bf1a      	itte	ne
 8003292:	480b      	ldrne	r0, [pc, #44]	; (80032c0 <HAL_RCC_GetSysClockFreq+0x54>)
 8003294:	2300      	movne	r3, #0
 8003296:	480b      	ldreq	r0, [pc, #44]	; (80032c4 <HAL_RCC_GetSysClockFreq+0x58>)
 8003298:	fba1 0100 	umull	r0, r1, r1, r0
 800329c:	f7fd f820 	bl	80002e0 <__aeabi_uldivmod>
 80032a0:	4b06      	ldr	r3, [pc, #24]	; (80032bc <HAL_RCC_GetSysClockFreq+0x50>)
 80032a2:	685b      	ldr	r3, [r3, #4]
 80032a4:	f3c3 4301 	ubfx	r3, r3, #16, #2
 80032a8:	3301      	adds	r3, #1
 80032aa:	005b      	lsls	r3, r3, #1
 80032ac:	fbb0 f0f3 	udiv	r0, r0, r3
 80032b0:	bd08      	pop	{r3, pc}
 80032b2:	4803      	ldr	r0, [pc, #12]	; (80032c0 <HAL_RCC_GetSysClockFreq+0x54>)
 80032b4:	e7fc      	b.n	80032b0 <HAL_RCC_GetSysClockFreq+0x44>
 80032b6:	4803      	ldr	r0, [pc, #12]	; (80032c4 <HAL_RCC_GetSysClockFreq+0x58>)
 80032b8:	e7fa      	b.n	80032b0 <HAL_RCC_GetSysClockFreq+0x44>
 80032ba:	bf00      	nop
 80032bc:	40023800 	.word	0x40023800
 80032c0:	007a1200 	.word	0x007a1200
 80032c4:	00f42400 	.word	0x00f42400

080032c8 <HAL_RCC_ClockConfig>:
 80032c8:	e92d 41f0 	stmdb	sp!, {r4, r5, r6, r7, r8, lr}
 80032cc:	460d      	mov	r5, r1
 80032ce:	4604      	mov	r4, r0
 80032d0:	b910      	cbnz	r0, 80032d8 <HAL_RCC_ClockConfig+0x10>
 80032d2:	2001      	movs	r0, #1
 80032d4:	e8bd 81f0 	ldmia.w	sp!, {r4, r5, r6, r7, r8, pc}
 80032d8:	4a45      	ldr	r2, [pc, #276]	; (80033f0 <HAL_RCC_ClockConfig+0x128>)
 80032da:	6813      	ldr	r3, [r2, #0]
 80032dc:	f003 030f 	and.w	r3, r3, #15
 80032e0:	428b      	cmp	r3, r1
 80032e2:	d328      	bcc.n	8003336 <HAL_RCC_ClockConfig+0x6e>
 80032e4:	6821      	ldr	r1, [r4, #0]
 80032e6:	078f      	lsls	r7, r1, #30
 80032e8:	d430      	bmi.n	800334c <HAL_RCC_ClockConfig+0x84>
 80032ea:	07c8      	lsls	r0, r1, #31
 80032ec:	d443      	bmi.n	8003376 <HAL_RCC_ClockConfig+0xae>
 80032ee:	4a40      	ldr	r2, [pc, #256]	; (80033f0 <HAL_RCC_ClockConfig+0x128>)
 80032f0:	6813      	ldr	r3, [r2, #0]
 80032f2:	f003 030f 	and.w	r3, r3, #15
 80032f6:	42ab      	cmp	r3, r5
 80032f8:	d866      	bhi.n	80033c8 <HAL_RCC_ClockConfig+0x100>
 80032fa:	6822      	ldr	r2, [r4, #0]
 80032fc:	0751      	lsls	r1, r2, #29
 80032fe:	d46f      	bmi.n	80033e0 <HAL_RCC_ClockConfig+0x118>
 8003300:	0713      	lsls	r3, r2, #28
 8003302:	d507      	bpl.n	8003314 <HAL_RCC_ClockConfig+0x4c>
 8003304:	4a3b      	ldr	r2, [pc, #236]	; (80033f4 <HAL_RCC_ClockConfig+0x12c>)
 8003306:	6921      	ldr	r1, [r4, #16]
 8003308:	6893      	ldr	r3, [r2, #8]
 800330a:	f423 4360 	bic.w	r3, r3, #57344	; 0xe000
 800330e:	ea43 03c1 	orr.w	r3, r3, r1, lsl #3
 8003312:	6093      	str	r3, [r2, #8]
 8003314:	f7ff ffaa 	bl	800326c <HAL_RCC_GetSysClockFreq>
 8003318:	4b36      	ldr	r3, [pc, #216]	; (80033f4 <HAL_RCC_ClockConfig+0x12c>)
 800331a:	4a37      	ldr	r2, [pc, #220]	; (80033f8 <HAL_RCC_ClockConfig+0x130>)
 800331c:	689b      	ldr	r3, [r3, #8]
 800331e:	f3c3 1303 	ubfx	r3, r3, #4, #4
 8003322:	5cd3      	ldrb	r3, [r2, r3]
 8003324:	40d8      	lsrs	r0, r3
 8003326:	4b35      	ldr	r3, [pc, #212]	; (80033fc <HAL_RCC_ClockConfig+0x134>)
 8003328:	6018      	str	r0, [r3, #0]
 800332a:	4b35      	ldr	r3, [pc, #212]	; (8003400 <HAL_RCC_ClockConfig+0x138>)
 800332c:	6818      	ldr	r0, [r3, #0]
 800332e:	f7fe fbd3 	bl	8001ad8 <HAL_InitTick>
 8003332:	2000      	movs	r0, #0
 8003334:	e7ce      	b.n	80032d4 <HAL_RCC_ClockConfig+0xc>
 8003336:	6813      	ldr	r3, [r2, #0]
 8003338:	f023 030f 	bic.w	r3, r3, #15
 800333c:	430b      	orrs	r3, r1
 800333e:	6013      	str	r3, [r2, #0]
 8003340:	6813      	ldr	r3, [r2, #0]
 8003342:	f003 030f 	and.w	r3, r3, #15
 8003346:	428b      	cmp	r3, r1
 8003348:	d1c3      	bne.n	80032d2 <HAL_RCC_ClockConfig+0xa>
 800334a:	e7cb      	b.n	80032e4 <HAL_RCC_ClockConfig+0x1c>
 800334c:	f011 0f04 	tst.w	r1, #4
 8003350:	4b28      	ldr	r3, [pc, #160]	; (80033f4 <HAL_RCC_ClockConfig+0x12c>)
 8003352:	d003      	beq.n	800335c <HAL_RCC_ClockConfig+0x94>
 8003354:	689a      	ldr	r2, [r3, #8]
 8003356:	f442 52e0 	orr.w	r2, r2, #7168	; 0x1c00
 800335a:	609a      	str	r2, [r3, #8]
 800335c:	070e      	lsls	r6, r1, #28
 800335e:	d503      	bpl.n	8003368 <HAL_RCC_ClockConfig+0xa0>
 8003360:	689a      	ldr	r2, [r3, #8]
 8003362:	f442 4260 	orr.w	r2, r2, #57344	; 0xe000
 8003366:	609a      	str	r2, [r3, #8]
 8003368:	689a      	ldr	r2, [r3, #8]
 800336a:	68a0      	ldr	r0, [r4, #8]
 800336c:	f022 02f0 	bic.w	r2, r2, #240	; 0xf0
 8003370:	4302      	orrs	r2, r0
 8003372:	609a      	str	r2, [r3, #8]
 8003374:	e7b9      	b.n	80032ea <HAL_RCC_ClockConfig+0x22>
 8003376:	6861      	ldr	r1, [r4, #4]
 8003378:	4b1e      	ldr	r3, [pc, #120]	; (80033f4 <HAL_RCC_ClockConfig+0x12c>)
 800337a:	2901      	cmp	r1, #1
 800337c:	681a      	ldr	r2, [r3, #0]
 800337e:	d11b      	bne.n	80033b8 <HAL_RCC_ClockConfig+0xf0>
 8003380:	f412 3f00 	tst.w	r2, #131072	; 0x20000
 8003384:	d0a5      	beq.n	80032d2 <HAL_RCC_ClockConfig+0xa>
 8003386:	689a      	ldr	r2, [r3, #8]
 8003388:	f241 3888 	movw	r8, #5000	; 0x1388
 800338c:	4f19      	ldr	r7, [pc, #100]	; (80033f4 <HAL_RCC_ClockConfig+0x12c>)
 800338e:	f022 0203 	bic.w	r2, r2, #3
 8003392:	430a      	orrs	r2, r1
 8003394:	609a      	str	r2, [r3, #8]
 8003396:	f7fe fefd 	bl	8002194 <HAL_GetTick>
 800339a:	4606      	mov	r6, r0
 800339c:	68bb      	ldr	r3, [r7, #8]
 800339e:	6862      	ldr	r2, [r4, #4]
 80033a0:	f003 030c 	and.w	r3, r3, #12
 80033a4:	ebb3 0f82 	cmp.w	r3, r2, lsl #2
 80033a8:	d0a1      	beq.n	80032ee <HAL_RCC_ClockConfig+0x26>
 80033aa:	f7fe fef3 	bl	8002194 <HAL_GetTick>
 80033ae:	1b80      	subs	r0, r0, r6
 80033b0:	4540      	cmp	r0, r8
 80033b2:	d9f3      	bls.n	800339c <HAL_RCC_ClockConfig+0xd4>
 80033b4:	2003      	movs	r0, #3
 80033b6:	e78d      	b.n	80032d4 <HAL_RCC_ClockConfig+0xc>
 80033b8:	2902      	cmp	r1, #2
 80033ba:	d102      	bne.n	80033c2 <HAL_RCC_ClockConfig+0xfa>
 80033bc:	f012 7f00 	tst.w	r2, #33554432	; 0x2000000
 80033c0:	e7e0      	b.n	8003384 <HAL_RCC_ClockConfig+0xbc>
 80033c2:	f012 0f02 	tst.w	r2, #2
 80033c6:	e7dd      	b.n	8003384 <HAL_RCC_ClockConfig+0xbc>
 80033c8:	6813      	ldr	r3, [r2, #0]
 80033ca:	f023 030f 	bic.w	r3, r3, #15
 80033ce:	432b      	orrs	r3, r5
 80033d0:	6013      	str	r3, [r2, #0]
 80033d2:	6813      	ldr	r3, [r2, #0]
 80033d4:	f003 030f 	and.w	r3, r3, #15
 80033d8:	42ab      	cmp	r3, r5
 80033da:	f47f af7a 	bne.w	80032d2 <HAL_RCC_ClockConfig+0xa>
 80033de:	e78c      	b.n	80032fa <HAL_RCC_ClockConfig+0x32>
 80033e0:	4904      	ldr	r1, [pc, #16]	; (80033f4 <HAL_RCC_ClockConfig+0x12c>)
 80033e2:	68e0      	ldr	r0, [r4, #12]
 80033e4:	688b      	ldr	r3, [r1, #8]
 80033e6:	f423 53e0 	bic.w	r3, r3, #7168	; 0x1c00
 80033ea:	4303      	orrs	r3, r0
 80033ec:	608b      	str	r3, [r1, #8]
 80033ee:	e787      	b.n	8003300 <HAL_RCC_ClockConfig+0x38>
 80033f0:	40023c00 	.word	0x40023c00
 80033f4:	40023800 	.word	0x40023800
 80033f8:	080099f0 	.word	0x080099f0
 80033fc:	2000004c 	.word	0x2000004c
 8003400:	20000054 	.word	0x20000054

08003404 <HAL_RCC_GetPCLK1Freq>:
 8003404:	4b04      	ldr	r3, [pc, #16]	; (8003418 <HAL_RCC_GetPCLK1Freq+0x14>)
 8003406:	4a05      	ldr	r2, [pc, #20]	; (800341c <HAL_RCC_GetPCLK1Freq+0x18>)
 8003408:	689b      	ldr	r3, [r3, #8]
 800340a:	f3c3 2382 	ubfx	r3, r3, #10, #3
 800340e:	5cd3      	ldrb	r3, [r2, r3]
 8003410:	4a03      	ldr	r2, [pc, #12]	; (8003420 <HAL_RCC_GetPCLK1Freq+0x1c>)
 8003412:	6810      	ldr	r0, [r2, #0]
 8003414:	40d8      	lsrs	r0, r3
 8003416:	4770      	bx	lr
 8003418:	40023800 	.word	0x40023800
 800341c:	08009a00 	.word	0x08009a00
 8003420:	2000004c 	.word	0x2000004c

08003424 <HAL_RCC_GetPCLK2Freq>:
 8003424:	4b04      	ldr	r3, [pc, #16]	; (8003438 <HAL_RCC_GetPCLK2Freq+0x14>)
 8003426:	4a05      	ldr	r2, [pc, #20]	; (800343c <HAL_RCC_GetPCLK2Freq+0x18>)
 8003428:	689b      	ldr	r3, [r3, #8]
 800342a:	f3c3 3342 	ubfx	r3, r3, #13, #3
 800342e:	5cd3      	ldrb	r3, [r2, r3]
 8003430:	4a03      	ldr	r2, [pc, #12]	; (8003440 <HAL_RCC_GetPCLK2Freq+0x1c>)
 8003432:	6810      	ldr	r0, [r2, #0]
 8003434:	40d8      	lsrs	r0, r3
 8003436:	4770      	bx	lr
 8003438:	40023800 	.word	0x40023800
 800343c:	08009a00 	.word	0x08009a00
 8003440:	2000004c 	.word	0x2000004c

08003444 <HAL_RCC_GetClockConfig>:
 8003444:	230f      	movs	r3, #15
 8003446:	6003      	str	r3, [r0, #0]
 8003448:	4b0b      	ldr	r3, [pc, #44]	; (8003478 <HAL_RCC_GetClockConfig+0x34>)
 800344a:	689a      	ldr	r2, [r3, #8]
 800344c:	f002 0203 	and.w	r2, r2, #3
 8003450:	6042      	str	r2, [r0, #4]
 8003452:	689a      	ldr	r2, [r3, #8]
 8003454:	f002 02f0 	and.w	r2, r2, #240	; 0xf0
 8003458:	6082      	str	r2, [r0, #8]
 800345a:	689a      	ldr	r2, [r3, #8]
 800345c:	f402 52e0 	and.w	r2, r2, #7168	; 0x1c00
 8003460:	60c2      	str	r2, [r0, #12]
 8003462:	689b      	ldr	r3, [r3, #8]
 8003464:	08db      	lsrs	r3, r3, #3
 8003466:	f403 53e0 	and.w	r3, r3, #7168	; 0x1c00
 800346a:	6103      	str	r3, [r0, #16]
 800346c:	4b03      	ldr	r3, [pc, #12]	; (800347c <HAL_RCC_GetClockConfig+0x38>)
 800346e:	681b      	ldr	r3, [r3, #0]
 8003470:	f003 030f 	and.w	r3, r3, #15
 8003474:	600b      	str	r3, [r1, #0]
 8003476:	4770      	bx	lr
 8003478:	40023800 	.word	0x40023800
 800347c:	40023c00 	.word	0x40023c00

08003480 <HAL_RCCEx_PeriphCLKConfig>:
 8003480:	6803      	ldr	r3, [r0, #0]
 8003482:	e92d 43f7 	stmdb	sp!, {r0, r1, r2, r4, r5, r6, r7, r8, r9, lr}
 8003486:	f013 0601 	ands.w	r6, r3, #1
 800348a:	4604      	mov	r4, r0
 800348c:	d00b      	beq.n	80034a6 <HAL_RCCEx_PeriphCLKConfig+0x26>
 800348e:	4ab1      	ldr	r2, [pc, #708]	; (8003754 <HAL_RCCEx_PeriphCLKConfig+0x2d4>)
 8003490:	6891      	ldr	r1, [r2, #8]
 8003492:	f421 0100 	bic.w	r1, r1, #8388608	; 0x800000
 8003496:	6091      	str	r1, [r2, #8]
 8003498:	6b46      	ldr	r6, [r0, #52]	; 0x34
 800349a:	6891      	ldr	r1, [r2, #8]
 800349c:	4331      	orrs	r1, r6
 800349e:	fab6 f686 	clz	r6, r6
 80034a2:	0976      	lsrs	r6, r6, #5
 80034a4:	6091      	str	r1, [r2, #8]
 80034a6:	f413 2500 	ands.w	r5, r3, #524288	; 0x80000
 80034aa:	d012      	beq.n	80034d2 <HAL_RCCEx_PeriphCLKConfig+0x52>
 80034ac:	49a9      	ldr	r1, [pc, #676]	; (8003754 <HAL_RCCEx_PeriphCLKConfig+0x2d4>)
 80034ae:	6be5      	ldr	r5, [r4, #60]	; 0x3c
 80034b0:	f8d1 208c 	ldr.w	r2, [r1, #140]	; 0x8c
 80034b4:	f5b5 1f80 	cmp.w	r5, #1048576	; 0x100000
 80034b8:	f422 1240 	bic.w	r2, r2, #3145728	; 0x300000
 80034bc:	bf08      	it	eq
 80034be:	2601      	moveq	r6, #1
 80034c0:	ea42 0205 	orr.w	r2, r2, r5
 80034c4:	bf16      	itet	ne
 80034c6:	fab5 f585 	clzne	r5, r5
 80034ca:	2500      	moveq	r5, #0
 80034cc:	096d      	lsrne	r5, r5, #5
 80034ce:	f8c1 208c 	str.w	r2, [r1, #140]	; 0x8c
 80034d2:	02d9      	lsls	r1, r3, #11
 80034d4:	d510      	bpl.n	80034f8 <HAL_RCCEx_PeriphCLKConfig+0x78>
 80034d6:	489f      	ldr	r0, [pc, #636]	; (8003754 <HAL_RCCEx_PeriphCLKConfig+0x2d4>)
 80034d8:	6c21      	ldr	r1, [r4, #64]	; 0x40
 80034da:	f8d0 208c 	ldr.w	r2, [r0, #140]	; 0x8c
 80034de:	f5b1 0f80 	cmp.w	r1, #4194304	; 0x400000
 80034e2:	f422 0240 	bic.w	r2, r2, #12582912	; 0xc00000
 80034e6:	ea42 0201 	orr.w	r2, r2, r1
 80034ea:	f8c0 208c 	str.w	r2, [r0, #140]	; 0x8c
 80034ee:	f000 81aa 	beq.w	8003846 <HAL_RCCEx_PeriphCLKConfig+0x3c6>
 80034f2:	2900      	cmp	r1, #0
 80034f4:	bf08      	it	eq
 80034f6:	2501      	moveq	r5, #1
 80034f8:	f013 7f80 	tst.w	r3, #16777216	; 0x1000000
 80034fc:	bf18      	it	ne
 80034fe:	2601      	movne	r6, #1
 8003500:	069a      	lsls	r2, r3, #26
 8003502:	d532      	bpl.n	800356a <HAL_RCCEx_PeriphCLKConfig+0xea>
 8003504:	4b93      	ldr	r3, [pc, #588]	; (8003754 <HAL_RCCEx_PeriphCLKConfig+0x2d4>)
 8003506:	4f94      	ldr	r7, [pc, #592]	; (8003758 <HAL_RCCEx_PeriphCLKConfig+0x2d8>)
 8003508:	6c1a      	ldr	r2, [r3, #64]	; 0x40
 800350a:	f042 5280 	orr.w	r2, r2, #268435456	; 0x10000000
 800350e:	641a      	str	r2, [r3, #64]	; 0x40
 8003510:	6c1b      	ldr	r3, [r3, #64]	; 0x40
 8003512:	f003 5380 	and.w	r3, r3, #268435456	; 0x10000000
 8003516:	9301      	str	r3, [sp, #4]
 8003518:	9b01      	ldr	r3, [sp, #4]
 800351a:	683b      	ldr	r3, [r7, #0]
 800351c:	f443 7380 	orr.w	r3, r3, #256	; 0x100
 8003520:	603b      	str	r3, [r7, #0]
 8003522:	f7fe fe37 	bl	8002194 <HAL_GetTick>
 8003526:	4680      	mov	r8, r0
 8003528:	683b      	ldr	r3, [r7, #0]
 800352a:	05db      	lsls	r3, r3, #23
 800352c:	f140 818d 	bpl.w	800384a <HAL_RCCEx_PeriphCLKConfig+0x3ca>
 8003530:	4f88      	ldr	r7, [pc, #544]	; (8003754 <HAL_RCCEx_PeriphCLKConfig+0x2d4>)
 8003532:	6b22      	ldr	r2, [r4, #48]	; 0x30
 8003534:	6f3b      	ldr	r3, [r7, #112]	; 0x70
 8003536:	f413 7340 	ands.w	r3, r3, #768	; 0x300
 800353a:	f040 8191 	bne.w	8003860 <HAL_RCCEx_PeriphCLKConfig+0x3e0>
 800353e:	6b23      	ldr	r3, [r4, #48]	; 0x30
 8003540:	f403 7240 	and.w	r2, r3, #768	; 0x300
 8003544:	f5b2 7f40 	cmp.w	r2, #768	; 0x300
 8003548:	4a82      	ldr	r2, [pc, #520]	; (8003754 <HAL_RCCEx_PeriphCLKConfig+0x2d4>)
 800354a:	f040 81ae 	bne.w	80038aa <HAL_RCCEx_PeriphCLKConfig+0x42a>
 800354e:	6891      	ldr	r1, [r2, #8]
 8003550:	f023 4070 	bic.w	r0, r3, #4026531840	; 0xf0000000
 8003554:	f421 11f8 	bic.w	r1, r1, #2031616	; 0x1f0000
 8003558:	f420 7040 	bic.w	r0, r0, #768	; 0x300
 800355c:	4301      	orrs	r1, r0
 800355e:	6091      	str	r1, [r2, #8]
 8003560:	f3c3 030b 	ubfx	r3, r3, #0, #12
 8003564:	6f11      	ldr	r1, [r2, #112]	; 0x70
 8003566:	430b      	orrs	r3, r1
 8003568:	6713      	str	r3, [r2, #112]	; 0x70
 800356a:	6823      	ldr	r3, [r4, #0]
 800356c:	06da      	lsls	r2, r3, #27
 800356e:	d50c      	bpl.n	800358a <HAL_RCCEx_PeriphCLKConfig+0x10a>
 8003570:	4a78      	ldr	r2, [pc, #480]	; (8003754 <HAL_RCCEx_PeriphCLKConfig+0x2d4>)
 8003572:	f8d2 108c 	ldr.w	r1, [r2, #140]	; 0x8c
 8003576:	f021 7180 	bic.w	r1, r1, #16777216	; 0x1000000
 800357a:	f8c2 108c 	str.w	r1, [r2, #140]	; 0x8c
 800357e:	f8d2 108c 	ldr.w	r1, [r2, #140]	; 0x8c
 8003582:	6ba0      	ldr	r0, [r4, #56]	; 0x38
 8003584:	4301      	orrs	r1, r0
 8003586:	f8c2 108c 	str.w	r1, [r2, #140]	; 0x8c
 800358a:	045f      	lsls	r7, r3, #17
 800358c:	d508      	bpl.n	80035a0 <HAL_RCCEx_PeriphCLKConfig+0x120>
 800358e:	4971      	ldr	r1, [pc, #452]	; (8003754 <HAL_RCCEx_PeriphCLKConfig+0x2d4>)
 8003590:	6e60      	ldr	r0, [r4, #100]	; 0x64
 8003592:	f8d1 2090 	ldr.w	r2, [r1, #144]	; 0x90
 8003596:	f422 3240 	bic.w	r2, r2, #196608	; 0x30000
 800359a:	4302      	orrs	r2, r0
 800359c:	f8c1 2090 	str.w	r2, [r1, #144]	; 0x90
 80035a0:	0418      	lsls	r0, r3, #16
 80035a2:	d508      	bpl.n	80035b6 <HAL_RCCEx_PeriphCLKConfig+0x136>
 80035a4:	496b      	ldr	r1, [pc, #428]	; (8003754 <HAL_RCCEx_PeriphCLKConfig+0x2d4>)
 80035a6:	6ea0      	ldr	r0, [r4, #104]	; 0x68
 80035a8:	f8d1 2090 	ldr.w	r2, [r1, #144]	; 0x90
 80035ac:	f422 2240 	bic.w	r2, r2, #786432	; 0xc0000
 80035b0:	4302      	orrs	r2, r0
 80035b2:	f8c1 2090 	str.w	r2, [r1, #144]	; 0x90
 80035b6:	03d9      	lsls	r1, r3, #15
 80035b8:	d508      	bpl.n	80035cc <HAL_RCCEx_PeriphCLKConfig+0x14c>
 80035ba:	4966      	ldr	r1, [pc, #408]	; (8003754 <HAL_RCCEx_PeriphCLKConfig+0x2d4>)
 80035bc:	6ee0      	ldr	r0, [r4, #108]	; 0x6c
 80035be:	f8d1 2090 	ldr.w	r2, [r1, #144]	; 0x90
 80035c2:	f422 1240 	bic.w	r2, r2, #3145728	; 0x300000
 80035c6:	4302      	orrs	r2, r0
 80035c8:	f8c1 2090 	str.w	r2, [r1, #144]	; 0x90
 80035cc:	039a      	lsls	r2, r3, #14
 80035ce:	d508      	bpl.n	80035e2 <HAL_RCCEx_PeriphCLKConfig+0x162>
 80035d0:	4960      	ldr	r1, [pc, #384]	; (8003754 <HAL_RCCEx_PeriphCLKConfig+0x2d4>)
 80035d2:	6f20      	ldr	r0, [r4, #112]	; 0x70
 80035d4:	f8d1 2090 	ldr.w	r2, [r1, #144]	; 0x90
 80035d8:	f422 0240 	bic.w	r2, r2, #12582912	; 0xc00000
 80035dc:	4302      	orrs	r2, r0
 80035de:	f8c1 2090 	str.w	r2, [r1, #144]	; 0x90
 80035e2:	065f      	lsls	r7, r3, #25
 80035e4:	d508      	bpl.n	80035f8 <HAL_RCCEx_PeriphCLKConfig+0x178>
 80035e6:	495b      	ldr	r1, [pc, #364]	; (8003754 <HAL_RCCEx_PeriphCLKConfig+0x2d4>)
 80035e8:	6c60      	ldr	r0, [r4, #68]	; 0x44
 80035ea:	f8d1 2090 	ldr.w	r2, [r1, #144]	; 0x90
 80035ee:	f022 0203 	bic.w	r2, r2, #3
 80035f2:	4302      	orrs	r2, r0
 80035f4:	f8c1 2090 	str.w	r2, [r1, #144]	; 0x90
 80035f8:	0618      	lsls	r0, r3, #24
 80035fa:	d508      	bpl.n	800360e <HAL_RCCEx_PeriphCLKConfig+0x18e>
 80035fc:	4955      	ldr	r1, [pc, #340]	; (8003754 <HAL_RCCEx_PeriphCLKConfig+0x2d4>)
 80035fe:	6ca0      	ldr	r0, [r4, #72]	; 0x48
 8003600:	f8d1 2090 	ldr.w	r2, [r1, #144]	; 0x90
 8003604:	f022 020c 	bic.w	r2, r2, #12
 8003608:	4302      	orrs	r2, r0
 800360a:	f8c1 2090 	str.w	r2, [r1, #144]	; 0x90
 800360e:	05d9      	lsls	r1, r3, #23
 8003610:	d508      	bpl.n	8003624 <HAL_RCCEx_PeriphCLKConfig+0x1a4>
 8003612:	4950      	ldr	r1, [pc, #320]	; (8003754 <HAL_RCCEx_PeriphCLKConfig+0x2d4>)
 8003614:	6ce0      	ldr	r0, [r4, #76]	; 0x4c
 8003616:	f8d1 2090 	ldr.w	r2, [r1, #144]	; 0x90
 800361a:	f022 0230 	bic.w	r2, r2, #48	; 0x30
 800361e:	4302      	orrs	r2, r0
 8003620:	f8c1 2090 	str.w	r2, [r1, #144]	; 0x90
 8003624:	059a      	lsls	r2, r3, #22
 8003626:	d508      	bpl.n	800363a <HAL_RCCEx_PeriphCLKConfig+0x1ba>
 8003628:	494a      	ldr	r1, [pc, #296]	; (8003754 <HAL_RCCEx_PeriphCLKConfig+0x2d4>)
 800362a:	6d20      	ldr	r0, [r4, #80]	; 0x50
 800362c:	f8d1 2090 	ldr.w	r2, [r1, #144]	; 0x90
 8003630:	f022 02c0 	bic.w	r2, r2, #192	; 0xc0
 8003634:	4302      	orrs	r2, r0
 8003636:	f8c1 2090 	str.w	r2, [r1, #144]	; 0x90
 800363a:	055f      	lsls	r7, r3, #21
 800363c:	d508      	bpl.n	8003650 <HAL_RCCEx_PeriphCLKConfig+0x1d0>
 800363e:	4945      	ldr	r1, [pc, #276]	; (8003754 <HAL_RCCEx_PeriphCLKConfig+0x2d4>)
 8003640:	6d60      	ldr	r0, [r4, #84]	; 0x54
 8003642:	f8d1 2090 	ldr.w	r2, [r1, #144]	; 0x90
 8003646:	f422 7240 	bic.w	r2, r2, #768	; 0x300
 800364a:	4302      	orrs	r2, r0
 800364c:	f8c1 2090 	str.w	r2, [r1, #144]	; 0x90
 8003650:	0518      	lsls	r0, r3, #20
 8003652:	d508      	bpl.n	8003666 <HAL_RCCEx_PeriphCLKConfig+0x1e6>
 8003654:	493f      	ldr	r1, [pc, #252]	; (8003754 <HAL_RCCEx_PeriphCLKConfig+0x2d4>)
 8003656:	6da0      	ldr	r0, [r4, #88]	; 0x58
 8003658:	f8d1 2090 	ldr.w	r2, [r1, #144]	; 0x90
 800365c:	f422 6240 	bic.w	r2, r2, #3072	; 0xc00
 8003660:	4302      	orrs	r2, r0
 8003662:	f8c1 2090 	str.w	r2, [r1, #144]	; 0x90
 8003666:	04d9      	lsls	r1, r3, #19
 8003668:	d508      	bpl.n	800367c <HAL_RCCEx_PeriphCLKConfig+0x1fc>
 800366a:	493a      	ldr	r1, [pc, #232]	; (8003754 <HAL_RCCEx_PeriphCLKConfig+0x2d4>)
 800366c:	6de0      	ldr	r0, [r4, #92]	; 0x5c
 800366e:	f8d1 2090 	ldr.w	r2, [r1, #144]	; 0x90
 8003672:	f422 5240 	bic.w	r2, r2, #12288	; 0x3000
 8003676:	4302      	orrs	r2, r0
 8003678:	f8c1 2090 	str.w	r2, [r1, #144]	; 0x90
 800367c:	049a      	lsls	r2, r3, #18
 800367e:	d508      	bpl.n	8003692 <HAL_RCCEx_PeriphCLKConfig+0x212>
 8003680:	4934      	ldr	r1, [pc, #208]	; (8003754 <HAL_RCCEx_PeriphCLKConfig+0x2d4>)
 8003682:	6e20      	ldr	r0, [r4, #96]	; 0x60
 8003684:	f8d1 2090 	ldr.w	r2, [r1, #144]	; 0x90
 8003688:	f422 4240 	bic.w	r2, r2, #49152	; 0xc000
 800368c:	4302      	orrs	r2, r0
 800368e:	f8c1 2090 	str.w	r2, [r1, #144]	; 0x90
 8003692:	025f      	lsls	r7, r3, #9
 8003694:	d508      	bpl.n	80036a8 <HAL_RCCEx_PeriphCLKConfig+0x228>
 8003696:	492f      	ldr	r1, [pc, #188]	; (8003754 <HAL_RCCEx_PeriphCLKConfig+0x2d4>)
 8003698:	6fa0      	ldr	r0, [r4, #120]	; 0x78
 800369a:	f8d1 2090 	ldr.w	r2, [r1, #144]	; 0x90
 800369e:	f022 6280 	bic.w	r2, r2, #67108864	; 0x4000000
 80036a2:	4302      	orrs	r2, r0
 80036a4:	f8c1 2090 	str.w	r2, [r1, #144]	; 0x90
 80036a8:	0298      	lsls	r0, r3, #10
 80036aa:	d50c      	bpl.n	80036c6 <HAL_RCCEx_PeriphCLKConfig+0x246>
 80036ac:	4829      	ldr	r0, [pc, #164]	; (8003754 <HAL_RCCEx_PeriphCLKConfig+0x2d4>)
 80036ae:	6fe1      	ldr	r1, [r4, #124]	; 0x7c
 80036b0:	f8d0 2090 	ldr.w	r2, [r0, #144]	; 0x90
 80036b4:	f1b1 6f00 	cmp.w	r1, #134217728	; 0x8000000
 80036b8:	f022 6200 	bic.w	r2, r2, #134217728	; 0x8000000
 80036bc:	bf08      	it	eq
 80036be:	2501      	moveq	r5, #1
 80036c0:	430a      	orrs	r2, r1
 80036c2:	f8c0 2090 	str.w	r2, [r0, #144]	; 0x90
 80036c6:	f013 0f08 	tst.w	r3, #8
 80036ca:	bf18      	it	ne
 80036cc:	2501      	movne	r5, #1
 80036ce:	0359      	lsls	r1, r3, #13
 80036d0:	d508      	bpl.n	80036e4 <HAL_RCCEx_PeriphCLKConfig+0x264>
 80036d2:	4920      	ldr	r1, [pc, #128]	; (8003754 <HAL_RCCEx_PeriphCLKConfig+0x2d4>)
 80036d4:	6f60      	ldr	r0, [r4, #116]	; 0x74
 80036d6:	f8d1 2090 	ldr.w	r2, [r1, #144]	; 0x90
 80036da:	f022 7240 	bic.w	r2, r2, #50331648	; 0x3000000
 80036de:	4302      	orrs	r2, r0
 80036e0:	f8c1 2090 	str.w	r2, [r1, #144]	; 0x90
 80036e4:	021a      	lsls	r2, r3, #8
 80036e6:	d509      	bpl.n	80036fc <HAL_RCCEx_PeriphCLKConfig+0x27c>
 80036e8:	491a      	ldr	r1, [pc, #104]	; (8003754 <HAL_RCCEx_PeriphCLKConfig+0x2d4>)
 80036ea:	f8d4 0080 	ldr.w	r0, [r4, #128]	; 0x80
 80036ee:	f8d1 2090 	ldr.w	r2, [r1, #144]	; 0x90
 80036f2:	f022 5280 	bic.w	r2, r2, #268435456	; 0x10000000
 80036f6:	4302      	orrs	r2, r0
 80036f8:	f8c1 2090 	str.w	r2, [r1, #144]	; 0x90
 80036fc:	015f      	lsls	r7, r3, #5
 80036fe:	d509      	bpl.n	8003714 <HAL_RCCEx_PeriphCLKConfig+0x294>
 8003700:	4914      	ldr	r1, [pc, #80]	; (8003754 <HAL_RCCEx_PeriphCLKConfig+0x2d4>)
 8003702:	f8d4 0084 	ldr.w	r0, [r4, #132]	; 0x84
 8003706:	f8d1 2090 	ldr.w	r2, [r1, #144]	; 0x90
 800370a:	f022 5200 	bic.w	r2, r2, #536870912	; 0x20000000
 800370e:	4302      	orrs	r2, r0
 8003710:	f8c1 2090 	str.w	r2, [r1, #144]	; 0x90
 8003714:	0118      	lsls	r0, r3, #4
 8003716:	d509      	bpl.n	800372c <HAL_RCCEx_PeriphCLKConfig+0x2ac>
 8003718:	490e      	ldr	r1, [pc, #56]	; (8003754 <HAL_RCCEx_PeriphCLKConfig+0x2d4>)
 800371a:	f8d4 0088 	ldr.w	r0, [r4, #136]	; 0x88
 800371e:	f8d1 208c 	ldr.w	r2, [r1, #140]	; 0x8c
 8003722:	f022 7200 	bic.w	r2, r2, #33554432	; 0x2000000
 8003726:	4302      	orrs	r2, r0
 8003728:	f8c1 208c 	str.w	r2, [r1, #140]	; 0x8c
 800372c:	00d9      	lsls	r1, r3, #3
 800372e:	d509      	bpl.n	8003744 <HAL_RCCEx_PeriphCLKConfig+0x2c4>
 8003730:	4908      	ldr	r1, [pc, #32]	; (8003754 <HAL_RCCEx_PeriphCLKConfig+0x2d4>)
 8003732:	f8d4 008c 	ldr.w	r0, [r4, #140]	; 0x8c
 8003736:	f8d1 208c 	ldr.w	r2, [r1, #140]	; 0x8c
 800373a:	f022 6280 	bic.w	r2, r2, #67108864	; 0x4000000
 800373e:	4302      	orrs	r2, r0
 8003740:	f8c1 208c 	str.w	r2, [r1, #140]	; 0x8c
 8003744:	2e01      	cmp	r6, #1
 8003746:	f000 80b4 	beq.w	80038b2 <HAL_RCCEx_PeriphCLKConfig+0x432>
 800374a:	019a      	lsls	r2, r3, #6
 800374c:	f100 80b1 	bmi.w	80038b2 <HAL_RCCEx_PeriphCLKConfig+0x432>
 8003750:	e004      	b.n	800375c <HAL_RCCEx_PeriphCLKConfig+0x2dc>
 8003752:	bf00      	nop
 8003754:	40023800 	.word	0x40023800
 8003758:	40007000 	.word	0x40007000
 800375c:	2d01      	cmp	r5, #1
 800375e:	d170      	bne.n	8003842 <HAL_RCCEx_PeriphCLKConfig+0x3c2>
 8003760:	4d9d      	ldr	r5, [pc, #628]	; (80039d8 <HAL_RCCEx_PeriphCLKConfig+0x558>)
 8003762:	682b      	ldr	r3, [r5, #0]
 8003764:	f023 5380 	bic.w	r3, r3, #268435456	; 0x10000000
 8003768:	602b      	str	r3, [r5, #0]
 800376a:	f7fe fd13 	bl	8002194 <HAL_GetTick>
 800376e:	4606      	mov	r6, r0
 8003770:	682b      	ldr	r3, [r5, #0]
 8003772:	009f      	lsls	r7, r3, #2
 8003774:	f100 8121 	bmi.w	80039ba <HAL_RCCEx_PeriphCLKConfig+0x53a>
 8003778:	6821      	ldr	r1, [r4, #0]
 800377a:	030e      	lsls	r6, r1, #12
 800377c:	d501      	bpl.n	8003782 <HAL_RCCEx_PeriphCLKConfig+0x302>
 800377e:	6be3      	ldr	r3, [r4, #60]	; 0x3c
 8003780:	b11b      	cbz	r3, 800378a <HAL_RCCEx_PeriphCLKConfig+0x30a>
 8003782:	02cd      	lsls	r5, r1, #11
 8003784:	d51d      	bpl.n	80037c2 <HAL_RCCEx_PeriphCLKConfig+0x342>
 8003786:	6c23      	ldr	r3, [r4, #64]	; 0x40
 8003788:	b9db      	cbnz	r3, 80037c2 <HAL_RCCEx_PeriphCLKConfig+0x342>
 800378a:	4a93      	ldr	r2, [pc, #588]	; (80039d8 <HAL_RCCEx_PeriphCLKConfig+0x558>)
 800378c:	f8d2 3088 	ldr.w	r3, [r2, #136]	; 0x88
 8003790:	f8d2 0088 	ldr.w	r0, [r2, #136]	; 0x88
 8003794:	f403 3340 	and.w	r3, r3, #196608	; 0x30000
 8003798:	f000 40e0 	and.w	r0, r0, #1879048192	; 0x70000000
 800379c:	4303      	orrs	r3, r0
 800379e:	6960      	ldr	r0, [r4, #20]
 80037a0:	ea43 1380 	orr.w	r3, r3, r0, lsl #6
 80037a4:	69a0      	ldr	r0, [r4, #24]
 80037a6:	ea43 6300 	orr.w	r3, r3, r0, lsl #24
 80037aa:	f8c2 3088 	str.w	r3, [r2, #136]	; 0x88
 80037ae:	f8d2 308c 	ldr.w	r3, [r2, #140]	; 0x8c
 80037b2:	6aa0      	ldr	r0, [r4, #40]	; 0x28
 80037b4:	f423 53f8 	bic.w	r3, r3, #7936	; 0x1f00
 80037b8:	3801      	subs	r0, #1
 80037ba:	ea43 2300 	orr.w	r3, r3, r0, lsl #8
 80037be:	f8c2 308c 	str.w	r3, [r2, #140]	; 0x8c
 80037c2:	0288      	lsls	r0, r1, #10
 80037c4:	d515      	bpl.n	80037f2 <HAL_RCCEx_PeriphCLKConfig+0x372>
 80037c6:	6fe3      	ldr	r3, [r4, #124]	; 0x7c
 80037c8:	f1b3 6f00 	cmp.w	r3, #134217728	; 0x8000000
 80037cc:	d111      	bne.n	80037f2 <HAL_RCCEx_PeriphCLKConfig+0x372>
 80037ce:	4a82      	ldr	r2, [pc, #520]	; (80039d8 <HAL_RCCEx_PeriphCLKConfig+0x558>)
 80037d0:	f8d2 3088 	ldr.w	r3, [r2, #136]	; 0x88
 80037d4:	f8d2 0088 	ldr.w	r0, [r2, #136]	; 0x88
 80037d8:	f003 6370 	and.w	r3, r3, #251658240	; 0xf000000
 80037dc:	f000 40e0 	and.w	r0, r0, #1879048192	; 0x70000000
 80037e0:	4303      	orrs	r3, r0
 80037e2:	6960      	ldr	r0, [r4, #20]
 80037e4:	ea43 1380 	orr.w	r3, r3, r0, lsl #6
 80037e8:	6a20      	ldr	r0, [r4, #32]
 80037ea:	ea43 4300 	orr.w	r3, r3, r0, lsl #16
 80037ee:	f8c2 3088 	str.w	r3, [r2, #136]	; 0x88
 80037f2:	070a      	lsls	r2, r1, #28
 80037f4:	d519      	bpl.n	800382a <HAL_RCCEx_PeriphCLKConfig+0x3aa>
 80037f6:	4a78      	ldr	r2, [pc, #480]	; (80039d8 <HAL_RCCEx_PeriphCLKConfig+0x558>)
 80037f8:	f8d2 1088 	ldr.w	r1, [r2, #136]	; 0x88
 80037fc:	f8d2 3088 	ldr.w	r3, [r2, #136]	; 0x88
 8003800:	f001 6170 	and.w	r1, r1, #251658240	; 0xf000000
 8003804:	f403 3340 	and.w	r3, r3, #196608	; 0x30000
 8003808:	430b      	orrs	r3, r1
 800380a:	6961      	ldr	r1, [r4, #20]
 800380c:	ea43 1381 	orr.w	r3, r3, r1, lsl #6
 8003810:	69e1      	ldr	r1, [r4, #28]
 8003812:	ea43 7301 	orr.w	r3, r3, r1, lsl #28
 8003816:	f8c2 3088 	str.w	r3, [r2, #136]	; 0x88
 800381a:	f8d2 308c 	ldr.w	r3, [r2, #140]	; 0x8c
 800381e:	6ae1      	ldr	r1, [r4, #44]	; 0x2c
 8003820:	f423 3340 	bic.w	r3, r3, #196608	; 0x30000
 8003824:	430b      	orrs	r3, r1
 8003826:	f8c2 308c 	str.w	r3, [r2, #140]	; 0x8c
 800382a:	4c6b      	ldr	r4, [pc, #428]	; (80039d8 <HAL_RCCEx_PeriphCLKConfig+0x558>)
 800382c:	6823      	ldr	r3, [r4, #0]
 800382e:	f043 5380 	orr.w	r3, r3, #268435456	; 0x10000000
 8003832:	6023      	str	r3, [r4, #0]
 8003834:	f7fe fcae 	bl	8002194 <HAL_GetTick>
 8003838:	4605      	mov	r5, r0
 800383a:	6823      	ldr	r3, [r4, #0]
 800383c:	009b      	lsls	r3, r3, #2
 800383e:	f140 80c3 	bpl.w	80039c8 <HAL_RCCEx_PeriphCLKConfig+0x548>
 8003842:	2000      	movs	r0, #0
 8003844:	e009      	b.n	800385a <HAL_RCCEx_PeriphCLKConfig+0x3da>
 8003846:	2601      	movs	r6, #1
 8003848:	e656      	b.n	80034f8 <HAL_RCCEx_PeriphCLKConfig+0x78>
 800384a:	f7fe fca3 	bl	8002194 <HAL_GetTick>
 800384e:	eba0 0008 	sub.w	r0, r0, r8
 8003852:	2864      	cmp	r0, #100	; 0x64
 8003854:	f67f ae68 	bls.w	8003528 <HAL_RCCEx_PeriphCLKConfig+0xa8>
 8003858:	2003      	movs	r0, #3
 800385a:	b003      	add	sp, #12
 800385c:	e8bd 83f0 	ldmia.w	sp!, {r4, r5, r6, r7, r8, r9, pc}
 8003860:	f402 7240 	and.w	r2, r2, #768	; 0x300
 8003864:	429a      	cmp	r2, r3
 8003866:	f43f ae6a 	beq.w	800353e <HAL_RCCEx_PeriphCLKConfig+0xbe>
 800386a:	6f3b      	ldr	r3, [r7, #112]	; 0x70
 800386c:	6f3a      	ldr	r2, [r7, #112]	; 0x70
 800386e:	f423 7340 	bic.w	r3, r3, #768	; 0x300
 8003872:	f442 3280 	orr.w	r2, r2, #65536	; 0x10000
 8003876:	673a      	str	r2, [r7, #112]	; 0x70
 8003878:	6f3a      	ldr	r2, [r7, #112]	; 0x70
 800387a:	f422 3280 	bic.w	r2, r2, #65536	; 0x10000
 800387e:	673a      	str	r2, [r7, #112]	; 0x70
 8003880:	673b      	str	r3, [r7, #112]	; 0x70
 8003882:	6f3b      	ldr	r3, [r7, #112]	; 0x70
 8003884:	07d8      	lsls	r0, r3, #31
 8003886:	f57f ae5a 	bpl.w	800353e <HAL_RCCEx_PeriphCLKConfig+0xbe>
 800388a:	f7fe fc83 	bl	8002194 <HAL_GetTick>
 800388e:	f241 3988 	movw	r9, #5000	; 0x1388
 8003892:	4680      	mov	r8, r0
 8003894:	6f3b      	ldr	r3, [r7, #112]	; 0x70
 8003896:	0799      	lsls	r1, r3, #30
 8003898:	f53f ae51 	bmi.w	800353e <HAL_RCCEx_PeriphCLKConfig+0xbe>
 800389c:	f7fe fc7a 	bl	8002194 <HAL_GetTick>
 80038a0:	eba0 0008 	sub.w	r0, r0, r8
 80038a4:	4548      	cmp	r0, r9
 80038a6:	d9f5      	bls.n	8003894 <HAL_RCCEx_PeriphCLKConfig+0x414>
 80038a8:	e7d6      	b.n	8003858 <HAL_RCCEx_PeriphCLKConfig+0x3d8>
 80038aa:	6891      	ldr	r1, [r2, #8]
 80038ac:	f421 11f8 	bic.w	r1, r1, #2031616	; 0x1f0000
 80038b0:	e655      	b.n	800355e <HAL_RCCEx_PeriphCLKConfig+0xde>
 80038b2:	4e49      	ldr	r6, [pc, #292]	; (80039d8 <HAL_RCCEx_PeriphCLKConfig+0x558>)
 80038b4:	6833      	ldr	r3, [r6, #0]
 80038b6:	f023 6380 	bic.w	r3, r3, #67108864	; 0x4000000
 80038ba:	6033      	str	r3, [r6, #0]
 80038bc:	f7fe fc6a 	bl	8002194 <HAL_GetTick>
 80038c0:	4607      	mov	r7, r0
 80038c2:	6833      	ldr	r3, [r6, #0]
 80038c4:	011b      	lsls	r3, r3, #4
 80038c6:	d472      	bmi.n	80039ae <HAL_RCCEx_PeriphCLKConfig+0x52e>
 80038c8:	6822      	ldr	r2, [r4, #0]
 80038ca:	07d7      	lsls	r7, r2, #31
 80038cc:	d512      	bpl.n	80038f4 <HAL_RCCEx_PeriphCLKConfig+0x474>
 80038ce:	6b63      	ldr	r3, [r4, #52]	; 0x34
 80038d0:	b983      	cbnz	r3, 80038f4 <HAL_RCCEx_PeriphCLKConfig+0x474>
 80038d2:	f8d6 3084 	ldr.w	r3, [r6, #132]	; 0x84
 80038d6:	f8d6 1084 	ldr.w	r1, [r6, #132]	; 0x84
 80038da:	f403 3340 	and.w	r3, r3, #196608	; 0x30000
 80038de:	f001 6170 	and.w	r1, r1, #251658240	; 0xf000000
 80038e2:	430b      	orrs	r3, r1
 80038e4:	6861      	ldr	r1, [r4, #4]
 80038e6:	ea43 1381 	orr.w	r3, r3, r1, lsl #6
 80038ea:	68a1      	ldr	r1, [r4, #8]
 80038ec:	ea43 7301 	orr.w	r3, r3, r1, lsl #28
 80038f0:	f8c6 3084 	str.w	r3, [r6, #132]	; 0x84
 80038f4:	0316      	lsls	r6, r2, #12
 80038f6:	d503      	bpl.n	8003900 <HAL_RCCEx_PeriphCLKConfig+0x480>
 80038f8:	6be3      	ldr	r3, [r4, #60]	; 0x3c
 80038fa:	f5b3 1f80 	cmp.w	r3, #1048576	; 0x100000
 80038fe:	d005      	beq.n	800390c <HAL_RCCEx_PeriphCLKConfig+0x48c>
 8003900:	02d0      	lsls	r0, r2, #11
 8003902:	d51e      	bpl.n	8003942 <HAL_RCCEx_PeriphCLKConfig+0x4c2>
 8003904:	6c23      	ldr	r3, [r4, #64]	; 0x40
 8003906:	f5b3 0f80 	cmp.w	r3, #4194304	; 0x400000
 800390a:	d11a      	bne.n	8003942 <HAL_RCCEx_PeriphCLKConfig+0x4c2>
 800390c:	4932      	ldr	r1, [pc, #200]	; (80039d8 <HAL_RCCEx_PeriphCLKConfig+0x558>)
 800390e:	f8d1 3084 	ldr.w	r3, [r1, #132]	; 0x84
 8003912:	f8d1 0084 	ldr.w	r0, [r1, #132]	; 0x84
 8003916:	f403 3340 	and.w	r3, r3, #196608	; 0x30000
 800391a:	f000 40e0 	and.w	r0, r0, #1879048192	; 0x70000000
 800391e:	4303      	orrs	r3, r0
 8003920:	6860      	ldr	r0, [r4, #4]
 8003922:	ea43 1380 	orr.w	r3, r3, r0, lsl #6
 8003926:	68e0      	ldr	r0, [r4, #12]
 8003928:	ea43 6300 	orr.w	r3, r3, r0, lsl #24
 800392c:	f8c1 3084 	str.w	r3, [r1, #132]	; 0x84
 8003930:	f8d1 008c 	ldr.w	r0, [r1, #140]	; 0x8c
 8003934:	6a63      	ldr	r3, [r4, #36]	; 0x24
 8003936:	f020 001f 	bic.w	r0, r0, #31
 800393a:	3b01      	subs	r3, #1
 800393c:	4303      	orrs	r3, r0
 800393e:	f8c1 308c 	str.w	r3, [r1, #140]	; 0x8c
 8003942:	01d1      	lsls	r1, r2, #7
 8003944:	d511      	bpl.n	800396a <HAL_RCCEx_PeriphCLKConfig+0x4ea>
 8003946:	4924      	ldr	r1, [pc, #144]	; (80039d8 <HAL_RCCEx_PeriphCLKConfig+0x558>)
 8003948:	f8d1 3084 	ldr.w	r3, [r1, #132]	; 0x84
 800394c:	f8d1 0084 	ldr.w	r0, [r1, #132]	; 0x84
 8003950:	f003 6370 	and.w	r3, r3, #251658240	; 0xf000000
 8003954:	f000 40e0 	and.w	r0, r0, #1879048192	; 0x70000000
 8003958:	4303      	orrs	r3, r0
 800395a:	6860      	ldr	r0, [r4, #4]
 800395c:	ea43 1380 	orr.w	r3, r3, r0, lsl #6
 8003960:	6920      	ldr	r0, [r4, #16]
 8003962:	ea43 4300 	orr.w	r3, r3, r0, lsl #16
 8003966:	f8c1 3084 	str.w	r3, [r1, #132]	; 0x84
 800396a:	0192      	lsls	r2, r2, #6
 800396c:	d50d      	bpl.n	800398a <HAL_RCCEx_PeriphCLKConfig+0x50a>
 800396e:	6923      	ldr	r3, [r4, #16]
 8003970:	6862      	ldr	r2, [r4, #4]
 8003972:	041b      	lsls	r3, r3, #16
 8003974:	ea43 1382 	orr.w	r3, r3, r2, lsl #6
 8003978:	68e2      	ldr	r2, [r4, #12]
 800397a:	ea43 6302 	orr.w	r3, r3, r2, lsl #24
 800397e:	68a2      	ldr	r2, [r4, #8]
 8003980:	ea43 7302 	orr.w	r3, r3, r2, lsl #28
 8003984:	4a14      	ldr	r2, [pc, #80]	; (80039d8 <HAL_RCCEx_PeriphCLKConfig+0x558>)
 8003986:	f8c2 3084 	str.w	r3, [r2, #132]	; 0x84
 800398a:	4e13      	ldr	r6, [pc, #76]	; (80039d8 <HAL_RCCEx_PeriphCLKConfig+0x558>)
 800398c:	6833      	ldr	r3, [r6, #0]
 800398e:	f043 6380 	orr.w	r3, r3, #67108864	; 0x4000000
 8003992:	6033      	str	r3, [r6, #0]
 8003994:	f7fe fbfe 	bl	8002194 <HAL_GetTick>
 8003998:	4607      	mov	r7, r0
 800399a:	6833      	ldr	r3, [r6, #0]
 800399c:	011b      	lsls	r3, r3, #4
 800399e:	f53f aedd 	bmi.w	800375c <HAL_RCCEx_PeriphCLKConfig+0x2dc>
 80039a2:	f7fe fbf7 	bl	8002194 <HAL_GetTick>
 80039a6:	1bc0      	subs	r0, r0, r7
 80039a8:	2864      	cmp	r0, #100	; 0x64
 80039aa:	d9f6      	bls.n	800399a <HAL_RCCEx_PeriphCLKConfig+0x51a>
 80039ac:	e754      	b.n	8003858 <HAL_RCCEx_PeriphCLKConfig+0x3d8>
 80039ae:	f7fe fbf1 	bl	8002194 <HAL_GetTick>
 80039b2:	1bc0      	subs	r0, r0, r7
 80039b4:	2864      	cmp	r0, #100	; 0x64
 80039b6:	d984      	bls.n	80038c2 <HAL_RCCEx_PeriphCLKConfig+0x442>
 80039b8:	e74e      	b.n	8003858 <HAL_RCCEx_PeriphCLKConfig+0x3d8>
 80039ba:	f7fe fbeb 	bl	8002194 <HAL_GetTick>
 80039be:	1b80      	subs	r0, r0, r6
 80039c0:	2864      	cmp	r0, #100	; 0x64
 80039c2:	f67f aed5 	bls.w	8003770 <HAL_RCCEx_PeriphCLKConfig+0x2f0>
 80039c6:	e747      	b.n	8003858 <HAL_RCCEx_PeriphCLKConfig+0x3d8>
 80039c8:	f7fe fbe4 	bl	8002194 <HAL_GetTick>
 80039cc:	1b40      	subs	r0, r0, r5
 80039ce:	2864      	cmp	r0, #100	; 0x64
 80039d0:	f67f af33 	bls.w	800383a <HAL_RCCEx_PeriphCLKConfig+0x3ba>
 80039d4:	e740      	b.n	8003858 <HAL_RCCEx_PeriphCLKConfig+0x3d8>
 80039d6:	bf00      	nop
 80039d8:	40023800 	.word	0x40023800

080039dc <SPI_WaitFlagStateUntilTimeout.constprop.0>:
 80039dc:	b5f7      	push	{r0, r1, r2, r4, r5, r6, r7, lr}
 80039de:	460e      	mov	r6, r1
 80039e0:	4614      	mov	r4, r2
 80039e2:	4605      	mov	r5, r0
 80039e4:	f7fe fbd6 	bl	8002194 <HAL_GetTick>
 80039e8:	4434      	add	r4, r6
 80039ea:	1a24      	subs	r4, r4, r0
 80039ec:	f7fe fbd2 	bl	8002194 <HAL_GetTick>
 80039f0:	4b22      	ldr	r3, [pc, #136]	; (8003a7c <SPI_WaitFlagStateUntilTimeout.constprop.0+0xa0>)
 80039f2:	4607      	mov	r7, r0
 80039f4:	681b      	ldr	r3, [r3, #0]
 80039f6:	f3c3 33cb 	ubfx	r3, r3, #15, #12
 80039fa:	4363      	muls	r3, r4
 80039fc:	682a      	ldr	r2, [r5, #0]
 80039fe:	9301      	str	r3, [sp, #4]
 8003a00:	6893      	ldr	r3, [r2, #8]
 8003a02:	f013 0380 	ands.w	r3, r3, #128	; 0x80
 8003a06:	d101      	bne.n	8003a0c <SPI_WaitFlagStateUntilTimeout.constprop.0+0x30>
 8003a08:	4618      	mov	r0, r3
 8003a0a:	e02d      	b.n	8003a68 <SPI_WaitFlagStateUntilTimeout.constprop.0+0x8c>
 8003a0c:	1c73      	adds	r3, r6, #1
 8003a0e:	d0f7      	beq.n	8003a00 <SPI_WaitFlagStateUntilTimeout.constprop.0+0x24>
 8003a10:	f7fe fbc0 	bl	8002194 <HAL_GetTick>
 8003a14:	1bc0      	subs	r0, r0, r7
 8003a16:	42a0      	cmp	r0, r4
 8003a18:	d328      	bcc.n	8003a6c <SPI_WaitFlagStateUntilTimeout.constprop.0+0x90>
 8003a1a:	682b      	ldr	r3, [r5, #0]
 8003a1c:	685a      	ldr	r2, [r3, #4]
 8003a1e:	f022 02e0 	bic.w	r2, r2, #224	; 0xe0
 8003a22:	605a      	str	r2, [r3, #4]
 8003a24:	686a      	ldr	r2, [r5, #4]
 8003a26:	f5b2 7f82 	cmp.w	r2, #260	; 0x104
 8003a2a:	d10a      	bne.n	8003a42 <SPI_WaitFlagStateUntilTimeout.constprop.0+0x66>
 8003a2c:	68aa      	ldr	r2, [r5, #8]
 8003a2e:	f5b2 4f00 	cmp.w	r2, #32768	; 0x8000
 8003a32:	d002      	beq.n	8003a3a <SPI_WaitFlagStateUntilTimeout.constprop.0+0x5e>
 8003a34:	f5b2 6f80 	cmp.w	r2, #1024	; 0x400
 8003a38:	d103      	bne.n	8003a42 <SPI_WaitFlagStateUntilTimeout.constprop.0+0x66>
 8003a3a:	681a      	ldr	r2, [r3, #0]
 8003a3c:	f022 0240 	bic.w	r2, r2, #64	; 0x40
 8003a40:	601a      	str	r2, [r3, #0]
 8003a42:	6aaa      	ldr	r2, [r5, #40]	; 0x28
 8003a44:	f5b2 5f00 	cmp.w	r2, #8192	; 0x2000
 8003a48:	d107      	bne.n	8003a5a <SPI_WaitFlagStateUntilTimeout.constprop.0+0x7e>
 8003a4a:	681a      	ldr	r2, [r3, #0]
 8003a4c:	f422 5200 	bic.w	r2, r2, #8192	; 0x2000
 8003a50:	601a      	str	r2, [r3, #0]
 8003a52:	681a      	ldr	r2, [r3, #0]
 8003a54:	f442 5200 	orr.w	r2, r2, #8192	; 0x2000
 8003a58:	601a      	str	r2, [r3, #0]
 8003a5a:	2301      	movs	r3, #1
 8003a5c:	2003      	movs	r0, #3
 8003a5e:	f885 305d 	strb.w	r3, [r5, #93]	; 0x5d
 8003a62:	2300      	movs	r3, #0
 8003a64:	f885 305c 	strb.w	r3, [r5, #92]	; 0x5c
 8003a68:	b003      	add	sp, #12
 8003a6a:	bdf0      	pop	{r4, r5, r6, r7, pc}
 8003a6c:	9b01      	ldr	r3, [sp, #4]
 8003a6e:	2b00      	cmp	r3, #0
 8003a70:	9b01      	ldr	r3, [sp, #4]
 8003a72:	bf08      	it	eq
 8003a74:	2400      	moveq	r4, #0
 8003a76:	3b01      	subs	r3, #1
 8003a78:	e7c0      	b.n	80039fc <SPI_WaitFlagStateUntilTimeout.constprop.0+0x20>
 8003a7a:	bf00      	nop
 8003a7c:	2000004c 	.word	0x2000004c

08003a80 <SPI_WaitFifoStateUntilTimeout.constprop.0>:
 8003a80:	e92d 43f7 	stmdb	sp!, {r0, r1, r2, r4, r5, r6, r7, r8, r9, lr}
 8003a84:	4617      	mov	r7, r2
 8003a86:	461c      	mov	r4, r3
 8003a88:	2300      	movs	r3, #0
 8003a8a:	4605      	mov	r5, r0
 8003a8c:	443c      	add	r4, r7
 8003a8e:	460e      	mov	r6, r1
 8003a90:	f88d 3003 	strb.w	r3, [sp, #3]
 8003a94:	f7fe fb7e 	bl	8002194 <HAL_GetTick>
 8003a98:	1a24      	subs	r4, r4, r0
 8003a9a:	f7fe fb7b 	bl	8002194 <HAL_GetTick>
 8003a9e:	4b29      	ldr	r3, [pc, #164]	; (8003b44 <SPI_WaitFifoStateUntilTimeout.constprop.0+0xc4>)
 8003aa0:	2223      	movs	r2, #35	; 0x23
 8003aa2:	4680      	mov	r8, r0
 8003aa4:	f8d5 9000 	ldr.w	r9, [r5]
 8003aa8:	681b      	ldr	r3, [r3, #0]
 8003aaa:	4353      	muls	r3, r2
 8003aac:	0d1b      	lsrs	r3, r3, #20
 8003aae:	4363      	muls	r3, r4
 8003ab0:	682a      	ldr	r2, [r5, #0]
 8003ab2:	9301      	str	r3, [sp, #4]
 8003ab4:	6893      	ldr	r3, [r2, #8]
 8003ab6:	4033      	ands	r3, r6
 8003ab8:	d101      	bne.n	8003abe <SPI_WaitFifoStateUntilTimeout.constprop.0+0x3e>
 8003aba:	4618      	mov	r0, r3
 8003abc:	e038      	b.n	8003b30 <SPI_WaitFifoStateUntilTimeout.constprop.0+0xb0>
 8003abe:	f5b6 6fc0 	cmp.w	r6, #1536	; 0x600
 8003ac2:	d106      	bne.n	8003ad2 <SPI_WaitFifoStateUntilTimeout.constprop.0+0x52>
 8003ac4:	f899 300c 	ldrb.w	r3, [r9, #12]
 8003ac8:	b2db      	uxtb	r3, r3
 8003aca:	f88d 3003 	strb.w	r3, [sp, #3]
 8003ace:	f89d 3003 	ldrb.w	r3, [sp, #3]
 8003ad2:	1c7b      	adds	r3, r7, #1
 8003ad4:	d0ee      	beq.n	8003ab4 <SPI_WaitFifoStateUntilTimeout.constprop.0+0x34>
 8003ad6:	f7fe fb5d 	bl	8002194 <HAL_GetTick>
 8003ada:	eba0 0008 	sub.w	r0, r0, r8
 8003ade:	42a0      	cmp	r0, r4
 8003ae0:	d329      	bcc.n	8003b36 <SPI_WaitFifoStateUntilTimeout.constprop.0+0xb6>
 8003ae2:	682b      	ldr	r3, [r5, #0]
 8003ae4:	685a      	ldr	r2, [r3, #4]
 8003ae6:	f022 02e0 	bic.w	r2, r2, #224	; 0xe0
 8003aea:	605a      	str	r2, [r3, #4]
 8003aec:	686a      	ldr	r2, [r5, #4]
 8003aee:	f5b2 7f82 	cmp.w	r2, #260	; 0x104
 8003af2:	d10a      	bne.n	8003b0a <SPI_WaitFifoStateUntilTimeout.constprop.0+0x8a>
 8003af4:	68aa      	ldr	r2, [r5, #8]
 8003af6:	f5b2 4f00 	cmp.w	r2, #32768	; 0x8000
 8003afa:	d002      	beq.n	8003b02 <SPI_WaitFifoStateUntilTimeout.constprop.0+0x82>
 8003afc:	f5b2 6f80 	cmp.w	r2, #1024	; 0x400
 8003b00:	d103      	bne.n	8003b0a <SPI_WaitFifoStateUntilTimeout.constprop.0+0x8a>
 8003b02:	681a      	ldr	r2, [r3, #0]
 8003b04:	f022 0240 	bic.w	r2, r2, #64	; 0x40
 8003b08:	601a      	str	r2, [r3, #0]
 8003b0a:	6aaa      	ldr	r2, [r5, #40]	; 0x28
 8003b0c:	f5b2 5f00 	cmp.w	r2, #8192	; 0x2000
 8003b10:	d107      	bne.n	8003b22 <SPI_WaitFifoStateUntilTimeout.constprop.0+0xa2>
 8003b12:	681a      	ldr	r2, [r3, #0]
 8003b14:	f422 5200 	bic.w	r2, r2, #8192	; 0x2000
 8003b18:	601a      	str	r2, [r3, #0]
 8003b1a:	681a      	ldr	r2, [r3, #0]
 8003b1c:	f442 5200 	orr.w	r2, r2, #8192	; 0x2000
 8003b20:	601a      	str	r2, [r3, #0]
 8003b22:	2301      	movs	r3, #1
 8003b24:	2003      	movs	r0, #3
 8003b26:	f885 305d 	strb.w	r3, [r5, #93]	; 0x5d
 8003b2a:	2300      	movs	r3, #0
 8003b2c:	f885 305c 	strb.w	r3, [r5, #92]	; 0x5c
 8003b30:	b003      	add	sp, #12
 8003b32:	e8bd 83f0 	ldmia.w	sp!, {r4, r5, r6, r7, r8, r9, pc}
 8003b36:	9b01      	ldr	r3, [sp, #4]
 8003b38:	2b00      	cmp	r3, #0
 8003b3a:	9b01      	ldr	r3, [sp, #4]
 8003b3c:	bf08      	it	eq
 8003b3e:	2400      	moveq	r4, #0
 8003b40:	3b01      	subs	r3, #1
 8003b42:	e7b5      	b.n	8003ab0 <SPI_WaitFifoStateUntilTimeout.constprop.0+0x30>
 8003b44:	2000004c 	.word	0x2000004c

08003b48 <SPI_EndRxTxTransaction>:
 8003b48:	b530      	push	{r4, r5, lr}
 8003b4a:	b085      	sub	sp, #20
 8003b4c:	4613      	mov	r3, r2
 8003b4e:	460d      	mov	r5, r1
 8003b50:	4604      	mov	r4, r0
 8003b52:	9201      	str	r2, [sp, #4]
 8003b54:	460a      	mov	r2, r1
 8003b56:	f44f 51c0 	mov.w	r1, #6144	; 0x1800
 8003b5a:	f7ff ff91 	bl	8003a80 <SPI_WaitFifoStateUntilTimeout.constprop.0>
 8003b5e:	9b01      	ldr	r3, [sp, #4]
 8003b60:	b128      	cbz	r0, 8003b6e <SPI_EndRxTxTransaction+0x26>
 8003b62:	6e23      	ldr	r3, [r4, #96]	; 0x60
 8003b64:	2003      	movs	r0, #3
 8003b66:	f043 0320 	orr.w	r3, r3, #32
 8003b6a:	6623      	str	r3, [r4, #96]	; 0x60
 8003b6c:	e01d      	b.n	8003baa <SPI_EndRxTxTransaction+0x62>
 8003b6e:	4a15      	ldr	r2, [pc, #84]	; (8003bc4 <SPI_EndRxTxTransaction+0x7c>)
 8003b70:	4915      	ldr	r1, [pc, #84]	; (8003bc8 <SPI_EndRxTxTransaction+0x80>)
 8003b72:	6812      	ldr	r2, [r2, #0]
 8003b74:	fbb2 f2f1 	udiv	r2, r2, r1
 8003b78:	f44f 717a 	mov.w	r1, #1000	; 0x3e8
 8003b7c:	434a      	muls	r2, r1
 8003b7e:	9203      	str	r2, [sp, #12]
 8003b80:	6862      	ldr	r2, [r4, #4]
 8003b82:	f5b2 7f82 	cmp.w	r2, #260	; 0x104
 8003b86:	d112      	bne.n	8003bae <SPI_EndRxTxTransaction+0x66>
 8003b88:	461a      	mov	r2, r3
 8003b8a:	4629      	mov	r1, r5
 8003b8c:	4620      	mov	r0, r4
 8003b8e:	9301      	str	r3, [sp, #4]
 8003b90:	f7ff ff24 	bl	80039dc <SPI_WaitFlagStateUntilTimeout.constprop.0>
 8003b94:	9b01      	ldr	r3, [sp, #4]
 8003b96:	2800      	cmp	r0, #0
 8003b98:	d1e3      	bne.n	8003b62 <SPI_EndRxTxTransaction+0x1a>
 8003b9a:	462a      	mov	r2, r5
 8003b9c:	f44f 61c0 	mov.w	r1, #1536	; 0x600
 8003ba0:	4620      	mov	r0, r4
 8003ba2:	f7ff ff6d 	bl	8003a80 <SPI_WaitFifoStateUntilTimeout.constprop.0>
 8003ba6:	2800      	cmp	r0, #0
 8003ba8:	d1db      	bne.n	8003b62 <SPI_EndRxTxTransaction+0x1a>
 8003baa:	b005      	add	sp, #20
 8003bac:	bd30      	pop	{r4, r5, pc}
 8003bae:	9a03      	ldr	r2, [sp, #12]
 8003bb0:	2a00      	cmp	r2, #0
 8003bb2:	d0f2      	beq.n	8003b9a <SPI_EndRxTxTransaction+0x52>
 8003bb4:	9a03      	ldr	r2, [sp, #12]
 8003bb6:	3a01      	subs	r2, #1
 8003bb8:	9203      	str	r2, [sp, #12]
 8003bba:	6822      	ldr	r2, [r4, #0]
 8003bbc:	6892      	ldr	r2, [r2, #8]
 8003bbe:	0612      	lsls	r2, r2, #24
 8003bc0:	d4f5      	bmi.n	8003bae <SPI_EndRxTxTransaction+0x66>
 8003bc2:	e7ea      	b.n	8003b9a <SPI_EndRxTxTransaction+0x52>
 8003bc4:	2000004c 	.word	0x2000004c
 8003bc8:	016e3600 	.word	0x016e3600

08003bcc <HAL_SPI_Init>:
 8003bcc:	b570      	push	{r4, r5, r6, lr}
 8003bce:	4604      	mov	r4, r0
 8003bd0:	2800      	cmp	r0, #0
 8003bd2:	d063      	beq.n	8003c9c <HAL_SPI_Init+0xd0>
 8003bd4:	6a43      	ldr	r3, [r0, #36]	; 0x24
 8003bd6:	2b00      	cmp	r3, #0
 8003bd8:	d15c      	bne.n	8003c94 <HAL_SPI_Init+0xc8>
 8003bda:	6842      	ldr	r2, [r0, #4]
 8003bdc:	f5b2 7f82 	cmp.w	r2, #260	; 0x104
 8003be0:	d000      	beq.n	8003be4 <HAL_SPI_Init+0x18>
 8003be2:	61c3      	str	r3, [r0, #28]
 8003be4:	2300      	movs	r3, #0
 8003be6:	62a3      	str	r3, [r4, #40]	; 0x28
 8003be8:	f894 305d 	ldrb.w	r3, [r4, #93]	; 0x5d
 8003bec:	f003 02ff 	and.w	r2, r3, #255	; 0xff
 8003bf0:	b923      	cbnz	r3, 8003bfc <HAL_SPI_Init+0x30>
 8003bf2:	4620      	mov	r0, r4
 8003bf4:	f884 205c 	strb.w	r2, [r4, #92]	; 0x5c
 8003bf8:	f7fd fd9a 	bl	8001730 <HAL_SPI_MspInit>
 8003bfc:	2302      	movs	r3, #2
 8003bfe:	6822      	ldr	r2, [r4, #0]
 8003c00:	68e0      	ldr	r0, [r4, #12]
 8003c02:	f884 305d 	strb.w	r3, [r4, #93]	; 0x5d
 8003c06:	6813      	ldr	r3, [r2, #0]
 8003c08:	f5b0 6fe0 	cmp.w	r0, #1792	; 0x700
 8003c0c:	f023 0340 	bic.w	r3, r3, #64	; 0x40
 8003c10:	6013      	str	r3, [r2, #0]
 8003c12:	f04f 0300 	mov.w	r3, #0
 8003c16:	d843      	bhi.n	8003ca0 <HAL_SPI_Init+0xd4>
 8003c18:	f44f 5580 	mov.w	r5, #4096	; 0x1000
 8003c1c:	d000      	beq.n	8003c20 <HAL_SPI_Init+0x54>
 8003c1e:	62a3      	str	r3, [r4, #40]	; 0x28
 8003c20:	6863      	ldr	r3, [r4, #4]
 8003c22:	f400 6070 	and.w	r0, r0, #3840	; 0xf00
 8003c26:	68a6      	ldr	r6, [r4, #8]
 8003c28:	f403 7382 	and.w	r3, r3, #260	; 0x104
 8003c2c:	69a1      	ldr	r1, [r4, #24]
 8003c2e:	f406 4604 	and.w	r6, r6, #33792	; 0x8400
 8003c32:	4333      	orrs	r3, r6
 8003c34:	6926      	ldr	r6, [r4, #16]
 8003c36:	f006 0602 	and.w	r6, r6, #2
 8003c3a:	4333      	orrs	r3, r6
 8003c3c:	6966      	ldr	r6, [r4, #20]
 8003c3e:	f006 0601 	and.w	r6, r6, #1
 8003c42:	4333      	orrs	r3, r6
 8003c44:	f401 7600 	and.w	r6, r1, #512	; 0x200
 8003c48:	0c09      	lsrs	r1, r1, #16
 8003c4a:	4333      	orrs	r3, r6
 8003c4c:	69e6      	ldr	r6, [r4, #28]
 8003c4e:	f001 0104 	and.w	r1, r1, #4
 8003c52:	f006 0638 	and.w	r6, r6, #56	; 0x38
 8003c56:	4333      	orrs	r3, r6
 8003c58:	6a26      	ldr	r6, [r4, #32]
 8003c5a:	f006 0680 	and.w	r6, r6, #128	; 0x80
 8003c5e:	4333      	orrs	r3, r6
 8003c60:	6aa6      	ldr	r6, [r4, #40]	; 0x28
 8003c62:	f406 5600 	and.w	r6, r6, #8192	; 0x2000
 8003c66:	4333      	orrs	r3, r6
 8003c68:	6b66      	ldr	r6, [r4, #52]	; 0x34
 8003c6a:	6013      	str	r3, [r2, #0]
 8003c6c:	f006 0608 	and.w	r6, r6, #8
 8003c70:	6a63      	ldr	r3, [r4, #36]	; 0x24
 8003c72:	f003 0310 	and.w	r3, r3, #16
 8003c76:	4333      	orrs	r3, r6
 8003c78:	4303      	orrs	r3, r0
 8003c7a:	2000      	movs	r0, #0
 8003c7c:	430b      	orrs	r3, r1
 8003c7e:	432b      	orrs	r3, r5
 8003c80:	6053      	str	r3, [r2, #4]
 8003c82:	69d3      	ldr	r3, [r2, #28]
 8003c84:	f423 6300 	bic.w	r3, r3, #2048	; 0x800
 8003c88:	61d3      	str	r3, [r2, #28]
 8003c8a:	2301      	movs	r3, #1
 8003c8c:	6620      	str	r0, [r4, #96]	; 0x60
 8003c8e:	f884 305d 	strb.w	r3, [r4, #93]	; 0x5d
 8003c92:	bd70      	pop	{r4, r5, r6, pc}
 8003c94:	2300      	movs	r3, #0
 8003c96:	e9c0 3304 	strd	r3, r3, [r0, #16]
 8003c9a:	e7a3      	b.n	8003be4 <HAL_SPI_Init+0x18>
 8003c9c:	2001      	movs	r0, #1
 8003c9e:	e7f8      	b.n	8003c92 <HAL_SPI_Init+0xc6>
 8003ca0:	461d      	mov	r5, r3
 8003ca2:	f5b0 6f70 	cmp.w	r0, #3840	; 0xf00
 8003ca6:	e7b9      	b.n	8003c1c <HAL_SPI_Init+0x50>

08003ca8 <HAL_SPI_Transmit>:
 8003ca8:	e92d 43f7 	stmdb	sp!, {r0, r1, r2, r4, r5, r6, r7, r8, r9, lr}
 8003cac:	461f      	mov	r7, r3
 8003cae:	f890 305c 	ldrb.w	r3, [r0, #92]	; 0x5c
 8003cb2:	4604      	mov	r4, r0
 8003cb4:	460d      	mov	r5, r1
 8003cb6:	2b01      	cmp	r3, #1
 8003cb8:	4690      	mov	r8, r2
 8003cba:	f000 80b6 	beq.w	8003e2a <HAL_SPI_Transmit+0x182>
 8003cbe:	2301      	movs	r3, #1
 8003cc0:	f880 305c 	strb.w	r3, [r0, #92]	; 0x5c
 8003cc4:	f7fe fa66 	bl	8002194 <HAL_GetTick>
 8003cc8:	f894 305d 	ldrb.w	r3, [r4, #93]	; 0x5d
 8003ccc:	4681      	mov	r9, r0
 8003cce:	2b01      	cmp	r3, #1
 8003cd0:	b2d8      	uxtb	r0, r3
 8003cd2:	f040 80a8 	bne.w	8003e26 <HAL_SPI_Transmit+0x17e>
 8003cd6:	2d00      	cmp	r5, #0
 8003cd8:	d063      	beq.n	8003da2 <HAL_SPI_Transmit+0xfa>
 8003cda:	f1b8 0f00 	cmp.w	r8, #0
 8003cde:	d060      	beq.n	8003da2 <HAL_SPI_Transmit+0xfa>
 8003ce0:	2303      	movs	r3, #3
 8003ce2:	6826      	ldr	r6, [r4, #0]
 8003ce4:	63a5      	str	r5, [r4, #56]	; 0x38
 8003ce6:	f884 305d 	strb.w	r3, [r4, #93]	; 0x5d
 8003cea:	2300      	movs	r3, #0
 8003cec:	f8a4 803c 	strh.w	r8, [r4, #60]	; 0x3c
 8003cf0:	6623      	str	r3, [r4, #96]	; 0x60
 8003cf2:	6423      	str	r3, [r4, #64]	; 0x40
 8003cf4:	f8a4 803e 	strh.w	r8, [r4, #62]	; 0x3e
 8003cf8:	f8a4 3044 	strh.w	r3, [r4, #68]	; 0x44
 8003cfc:	f8a4 3046 	strh.w	r3, [r4, #70]	; 0x46
 8003d00:	e9c4 3313 	strd	r3, r3, [r4, #76]	; 0x4c
 8003d04:	68a3      	ldr	r3, [r4, #8]
 8003d06:	f5b3 4f00 	cmp.w	r3, #32768	; 0x8000
 8003d0a:	d107      	bne.n	8003d1c <HAL_SPI_Transmit+0x74>
 8003d0c:	6833      	ldr	r3, [r6, #0]
 8003d0e:	f023 0340 	bic.w	r3, r3, #64	; 0x40
 8003d12:	6033      	str	r3, [r6, #0]
 8003d14:	6833      	ldr	r3, [r6, #0]
 8003d16:	f443 4380 	orr.w	r3, r3, #16384	; 0x4000
 8003d1a:	6033      	str	r3, [r6, #0]
 8003d1c:	6833      	ldr	r3, [r6, #0]
 8003d1e:	065b      	lsls	r3, r3, #25
 8003d20:	d403      	bmi.n	8003d2a <HAL_SPI_Transmit+0x82>
 8003d22:	6833      	ldr	r3, [r6, #0]
 8003d24:	f043 0340 	orr.w	r3, r3, #64	; 0x40
 8003d28:	6033      	str	r3, [r6, #0]
 8003d2a:	68e2      	ldr	r2, [r4, #12]
 8003d2c:	6863      	ldr	r3, [r4, #4]
 8003d2e:	f5b2 6fe0 	cmp.w	r2, #1792	; 0x700
 8003d32:	d93f      	bls.n	8003db4 <HAL_SPI_Transmit+0x10c>
 8003d34:	b113      	cbz	r3, 8003d3c <HAL_SPI_Transmit+0x94>
 8003d36:	f1b8 0f01 	cmp.w	r8, #1
 8003d3a:	d107      	bne.n	8003d4c <HAL_SPI_Transmit+0xa4>
 8003d3c:	f835 3b02 	ldrh.w	r3, [r5], #2
 8003d40:	60f3      	str	r3, [r6, #12]
 8003d42:	63a5      	str	r5, [r4, #56]	; 0x38
 8003d44:	8fe3      	ldrh	r3, [r4, #62]	; 0x3e
 8003d46:	3b01      	subs	r3, #1
 8003d48:	b29b      	uxth	r3, r3
 8003d4a:	87e3      	strh	r3, [r4, #62]	; 0x3e
 8003d4c:	8fe3      	ldrh	r3, [r4, #62]	; 0x3e
 8003d4e:	b29b      	uxth	r3, r3
 8003d50:	b9a3      	cbnz	r3, 8003d7c <HAL_SPI_Transmit+0xd4>
 8003d52:	464a      	mov	r2, r9
 8003d54:	4639      	mov	r1, r7
 8003d56:	4620      	mov	r0, r4
 8003d58:	f7ff fef6 	bl	8003b48 <SPI_EndRxTxTransaction>
 8003d5c:	2800      	cmp	r0, #0
 8003d5e:	d15f      	bne.n	8003e20 <HAL_SPI_Transmit+0x178>
 8003d60:	68a3      	ldr	r3, [r4, #8]
 8003d62:	b933      	cbnz	r3, 8003d72 <HAL_SPI_Transmit+0xca>
 8003d64:	9301      	str	r3, [sp, #4]
 8003d66:	6823      	ldr	r3, [r4, #0]
 8003d68:	68da      	ldr	r2, [r3, #12]
 8003d6a:	9201      	str	r2, [sp, #4]
 8003d6c:	689b      	ldr	r3, [r3, #8]
 8003d6e:	9301      	str	r3, [sp, #4]
 8003d70:	9b01      	ldr	r3, [sp, #4]
 8003d72:	6e20      	ldr	r0, [r4, #96]	; 0x60
 8003d74:	3800      	subs	r0, #0
 8003d76:	bf18      	it	ne
 8003d78:	2001      	movne	r0, #1
 8003d7a:	e012      	b.n	8003da2 <HAL_SPI_Transmit+0xfa>
 8003d7c:	6822      	ldr	r2, [r4, #0]
 8003d7e:	6893      	ldr	r3, [r2, #8]
 8003d80:	079d      	lsls	r5, r3, #30
 8003d82:	d505      	bpl.n	8003d90 <HAL_SPI_Transmit+0xe8>
 8003d84:	6ba3      	ldr	r3, [r4, #56]	; 0x38
 8003d86:	f833 1b02 	ldrh.w	r1, [r3], #2
 8003d8a:	60d1      	str	r1, [r2, #12]
 8003d8c:	63a3      	str	r3, [r4, #56]	; 0x38
 8003d8e:	e7d9      	b.n	8003d44 <HAL_SPI_Transmit+0x9c>
 8003d90:	f7fe fa00 	bl	8002194 <HAL_GetTick>
 8003d94:	eba0 0009 	sub.w	r0, r0, r9
 8003d98:	42b8      	cmp	r0, r7
 8003d9a:	d3d7      	bcc.n	8003d4c <HAL_SPI_Transmit+0xa4>
 8003d9c:	1c78      	adds	r0, r7, #1
 8003d9e:	d0d5      	beq.n	8003d4c <HAL_SPI_Transmit+0xa4>
 8003da0:	2003      	movs	r0, #3
 8003da2:	2301      	movs	r3, #1
 8003da4:	f884 305d 	strb.w	r3, [r4, #93]	; 0x5d
 8003da8:	2300      	movs	r3, #0
 8003daa:	f884 305c 	strb.w	r3, [r4, #92]	; 0x5c
 8003dae:	b003      	add	sp, #12
 8003db0:	e8bd 83f0 	ldmia.w	sp!, {r4, r5, r6, r7, r8, r9, pc}
 8003db4:	b113      	cbz	r3, 8003dbc <HAL_SPI_Transmit+0x114>
 8003db6:	f1b8 0f01 	cmp.w	r8, #1
 8003dba:	d113      	bne.n	8003de4 <HAL_SPI_Transmit+0x13c>
 8003dbc:	8fe3      	ldrh	r3, [r4, #62]	; 0x3e
 8003dbe:	b29b      	uxth	r3, r3
 8003dc0:	2b01      	cmp	r3, #1
 8003dc2:	d906      	bls.n	8003dd2 <HAL_SPI_Transmit+0x12a>
 8003dc4:	f835 3b02 	ldrh.w	r3, [r5], #2
 8003dc8:	60f3      	str	r3, [r6, #12]
 8003dca:	63a5      	str	r5, [r4, #56]	; 0x38
 8003dcc:	8fe3      	ldrh	r3, [r4, #62]	; 0x3e
 8003dce:	3b02      	subs	r3, #2
 8003dd0:	e006      	b.n	8003de0 <HAL_SPI_Transmit+0x138>
 8003dd2:	782b      	ldrb	r3, [r5, #0]
 8003dd4:	7333      	strb	r3, [r6, #12]
 8003dd6:	6ba3      	ldr	r3, [r4, #56]	; 0x38
 8003dd8:	3301      	adds	r3, #1
 8003dda:	63a3      	str	r3, [r4, #56]	; 0x38
 8003ddc:	8fe3      	ldrh	r3, [r4, #62]	; 0x3e
 8003dde:	3b01      	subs	r3, #1
 8003de0:	b29b      	uxth	r3, r3
 8003de2:	87e3      	strh	r3, [r4, #62]	; 0x3e
 8003de4:	8fe3      	ldrh	r3, [r4, #62]	; 0x3e
 8003de6:	b29b      	uxth	r3, r3
 8003de8:	2b00      	cmp	r3, #0
 8003dea:	d0b2      	beq.n	8003d52 <HAL_SPI_Transmit+0xaa>
 8003dec:	6822      	ldr	r2, [r4, #0]
 8003dee:	6893      	ldr	r3, [r2, #8]
 8003df0:	0799      	lsls	r1, r3, #30
 8003df2:	d50c      	bpl.n	8003e0e <HAL_SPI_Transmit+0x166>
 8003df4:	8fe1      	ldrh	r1, [r4, #62]	; 0x3e
 8003df6:	6ba3      	ldr	r3, [r4, #56]	; 0x38
 8003df8:	b289      	uxth	r1, r1
 8003dfa:	2901      	cmp	r1, #1
 8003dfc:	d904      	bls.n	8003e08 <HAL_SPI_Transmit+0x160>
 8003dfe:	f833 1b02 	ldrh.w	r1, [r3], #2
 8003e02:	60d1      	str	r1, [r2, #12]
 8003e04:	63a3      	str	r3, [r4, #56]	; 0x38
 8003e06:	e7e1      	b.n	8003dcc <HAL_SPI_Transmit+0x124>
 8003e08:	781b      	ldrb	r3, [r3, #0]
 8003e0a:	7313      	strb	r3, [r2, #12]
 8003e0c:	e7e3      	b.n	8003dd6 <HAL_SPI_Transmit+0x12e>
 8003e0e:	f7fe f9c1 	bl	8002194 <HAL_GetTick>
 8003e12:	eba0 0009 	sub.w	r0, r0, r9
 8003e16:	42b8      	cmp	r0, r7
 8003e18:	d3e4      	bcc.n	8003de4 <HAL_SPI_Transmit+0x13c>
 8003e1a:	1c7b      	adds	r3, r7, #1
 8003e1c:	d0e2      	beq.n	8003de4 <HAL_SPI_Transmit+0x13c>
 8003e1e:	e7bf      	b.n	8003da0 <HAL_SPI_Transmit+0xf8>
 8003e20:	2320      	movs	r3, #32
 8003e22:	6623      	str	r3, [r4, #96]	; 0x60
 8003e24:	e79c      	b.n	8003d60 <HAL_SPI_Transmit+0xb8>
 8003e26:	2002      	movs	r0, #2
 8003e28:	e7bb      	b.n	8003da2 <HAL_SPI_Transmit+0xfa>
 8003e2a:	2002      	movs	r0, #2
 8003e2c:	e7bf      	b.n	8003dae <HAL_SPI_Transmit+0x106>
	...

08003e30 <HAL_SPI_Transmit_DMA>:
 8003e30:	b538      	push	{r3, r4, r5, lr}
 8003e32:	f890 305c 	ldrb.w	r3, [r0, #92]	; 0x5c
 8003e36:	4604      	mov	r4, r0
 8003e38:	2b01      	cmp	r3, #1
 8003e3a:	d076      	beq.n	8003f2a <HAL_SPI_Transmit_DMA+0xfa>
 8003e3c:	2301      	movs	r3, #1
 8003e3e:	f880 305c 	strb.w	r3, [r0, #92]	; 0x5c
 8003e42:	f890 305d 	ldrb.w	r3, [r0, #93]	; 0x5d
 8003e46:	2b01      	cmp	r3, #1
 8003e48:	b2dd      	uxtb	r5, r3
 8003e4a:	d16c      	bne.n	8003f26 <HAL_SPI_Transmit_DMA+0xf6>
 8003e4c:	2900      	cmp	r1, #0
 8003e4e:	d04b      	beq.n	8003ee8 <HAL_SPI_Transmit_DMA+0xb8>
 8003e50:	2a00      	cmp	r2, #0
 8003e52:	d049      	beq.n	8003ee8 <HAL_SPI_Transmit_DMA+0xb8>
 8003e54:	2303      	movs	r3, #3
 8003e56:	8782      	strh	r2, [r0, #60]	; 0x3c
 8003e58:	6381      	str	r1, [r0, #56]	; 0x38
 8003e5a:	f880 305d 	strb.w	r3, [r0, #93]	; 0x5d
 8003e5e:	2300      	movs	r3, #0
 8003e60:	6603      	str	r3, [r0, #96]	; 0x60
 8003e62:	6403      	str	r3, [r0, #64]	; 0x40
 8003e64:	87c2      	strh	r2, [r0, #62]	; 0x3e
 8003e66:	f8a0 3044 	strh.w	r3, [r0, #68]	; 0x44
 8003e6a:	f8a0 3046 	strh.w	r3, [r0, #70]	; 0x46
 8003e6e:	6802      	ldr	r2, [r0, #0]
 8003e70:	e9c0 3313 	strd	r3, r3, [r0, #76]	; 0x4c
 8003e74:	6883      	ldr	r3, [r0, #8]
 8003e76:	f5b3 4f00 	cmp.w	r3, #32768	; 0x8000
 8003e7a:	d107      	bne.n	8003e8c <HAL_SPI_Transmit_DMA+0x5c>
 8003e7c:	6813      	ldr	r3, [r2, #0]
 8003e7e:	f023 0340 	bic.w	r3, r3, #64	; 0x40
 8003e82:	6013      	str	r3, [r2, #0]
 8003e84:	6813      	ldr	r3, [r2, #0]
 8003e86:	f443 4380 	orr.w	r3, r3, #16384	; 0x4000
 8003e8a:	6013      	str	r3, [r2, #0]
 8003e8c:	6d60      	ldr	r0, [r4, #84]	; 0x54
 8003e8e:	4b28      	ldr	r3, [pc, #160]	; (8003f30 <HAL_SPI_Transmit_DMA+0x100>)
 8003e90:	6403      	str	r3, [r0, #64]	; 0x40
 8003e92:	4b28      	ldr	r3, [pc, #160]	; (8003f34 <HAL_SPI_Transmit_DMA+0x104>)
 8003e94:	63c3      	str	r3, [r0, #60]	; 0x3c
 8003e96:	4b28      	ldr	r3, [pc, #160]	; (8003f38 <HAL_SPI_Transmit_DMA+0x108>)
 8003e98:	64c3      	str	r3, [r0, #76]	; 0x4c
 8003e9a:	2300      	movs	r3, #0
 8003e9c:	6503      	str	r3, [r0, #80]	; 0x50
 8003e9e:	6853      	ldr	r3, [r2, #4]
 8003ea0:	f423 4380 	bic.w	r3, r3, #16384	; 0x4000
 8003ea4:	6053      	str	r3, [r2, #4]
 8003ea6:	68e3      	ldr	r3, [r4, #12]
 8003ea8:	f5b3 6fe0 	cmp.w	r3, #1792	; 0x700
 8003eac:	d80f      	bhi.n	8003ece <HAL_SPI_Transmit_DMA+0x9e>
 8003eae:	6983      	ldr	r3, [r0, #24]
 8003eb0:	f5b3 5f00 	cmp.w	r3, #8192	; 0x2000
 8003eb4:	d10b      	bne.n	8003ece <HAL_SPI_Transmit_DMA+0x9e>
 8003eb6:	8fe3      	ldrh	r3, [r4, #62]	; 0x3e
 8003eb8:	f013 0f01 	tst.w	r3, #1
 8003ebc:	6853      	ldr	r3, [r2, #4]
 8003ebe:	d118      	bne.n	8003ef2 <HAL_SPI_Transmit_DMA+0xc2>
 8003ec0:	f423 4380 	bic.w	r3, r3, #16384	; 0x4000
 8003ec4:	6053      	str	r3, [r2, #4]
 8003ec6:	8fe3      	ldrh	r3, [r4, #62]	; 0x3e
 8003ec8:	f3c3 034e 	ubfx	r3, r3, #1, #15
 8003ecc:	87e3      	strh	r3, [r4, #62]	; 0x3e
 8003ece:	8fe3      	ldrh	r3, [r4, #62]	; 0x3e
 8003ed0:	320c      	adds	r2, #12
 8003ed2:	b29b      	uxth	r3, r3
 8003ed4:	f7fe fb02 	bl	80024dc <HAL_DMA_Start_IT>
 8003ed8:	b198      	cbz	r0, 8003f02 <HAL_SPI_Transmit_DMA+0xd2>
 8003eda:	6e23      	ldr	r3, [r4, #96]	; 0x60
 8003edc:	f043 0310 	orr.w	r3, r3, #16
 8003ee0:	6623      	str	r3, [r4, #96]	; 0x60
 8003ee2:	2301      	movs	r3, #1
 8003ee4:	f884 305d 	strb.w	r3, [r4, #93]	; 0x5d
 8003ee8:	2300      	movs	r3, #0
 8003eea:	f884 305c 	strb.w	r3, [r4, #92]	; 0x5c
 8003eee:	4628      	mov	r0, r5
 8003ef0:	bd38      	pop	{r3, r4, r5, pc}
 8003ef2:	f443 4380 	orr.w	r3, r3, #16384	; 0x4000
 8003ef6:	6053      	str	r3, [r2, #4]
 8003ef8:	8fe3      	ldrh	r3, [r4, #62]	; 0x3e
 8003efa:	f3c3 034e 	ubfx	r3, r3, #1, #15
 8003efe:	3301      	adds	r3, #1
 8003f00:	e7e4      	b.n	8003ecc <HAL_SPI_Transmit_DMA+0x9c>
 8003f02:	6823      	ldr	r3, [r4, #0]
 8003f04:	681a      	ldr	r2, [r3, #0]
 8003f06:	0652      	lsls	r2, r2, #25
 8003f08:	d403      	bmi.n	8003f12 <HAL_SPI_Transmit_DMA+0xe2>
 8003f0a:	681a      	ldr	r2, [r3, #0]
 8003f0c:	f042 0240 	orr.w	r2, r2, #64	; 0x40
 8003f10:	601a      	str	r2, [r3, #0]
 8003f12:	685a      	ldr	r2, [r3, #4]
 8003f14:	2500      	movs	r5, #0
 8003f16:	f042 0220 	orr.w	r2, r2, #32
 8003f1a:	605a      	str	r2, [r3, #4]
 8003f1c:	685a      	ldr	r2, [r3, #4]
 8003f1e:	f042 0202 	orr.w	r2, r2, #2
 8003f22:	605a      	str	r2, [r3, #4]
 8003f24:	e7e0      	b.n	8003ee8 <HAL_SPI_Transmit_DMA+0xb8>
 8003f26:	2502      	movs	r5, #2
 8003f28:	e7de      	b.n	8003ee8 <HAL_SPI_Transmit_DMA+0xb8>
 8003f2a:	2502      	movs	r5, #2
 8003f2c:	e7df      	b.n	8003eee <HAL_SPI_Transmit_DMA+0xbe>
 8003f2e:	bf00      	nop
 8003f30:	08003f41 	.word	0x08003f41
 8003f34:	08003f6f 	.word	0x08003f6f
 8003f38:	08003f4d 	.word	0x08003f4d

08003f3c <HAL_SPI_TxCpltCallback>:
 8003f3c:	4770      	bx	lr

08003f3e <HAL_SPI_TxHalfCpltCallback>:
 8003f3e:	4770      	bx	lr

08003f40 <SPI_DMAHalfTransmitCplt>:
 8003f40:	6b80      	ldr	r0, [r0, #56]	; 0x38
 8003f42:	b508      	push	{r3, lr}
 8003f44:	f7ff fffb 	bl	8003f3e <HAL_SPI_TxHalfCpltCallback>
 8003f48:	bd08      	pop	{r3, pc}

08003f4a <HAL_SPI_ErrorCallback>:
 8003f4a:	4770      	bx	lr

08003f4c <SPI_DMAError>:
 8003f4c:	6b80      	ldr	r0, [r0, #56]	; 0x38
 8003f4e:	6802      	ldr	r2, [r0, #0]
 8003f50:	b508      	push	{r3, lr}
 8003f52:	6853      	ldr	r3, [r2, #4]
 8003f54:	f023 0303 	bic.w	r3, r3, #3
 8003f58:	6053      	str	r3, [r2, #4]
 8003f5a:	6e03      	ldr	r3, [r0, #96]	; 0x60
 8003f5c:	f043 0310 	orr.w	r3, r3, #16
 8003f60:	6603      	str	r3, [r0, #96]	; 0x60
 8003f62:	2301      	movs	r3, #1
 8003f64:	f880 305d 	strb.w	r3, [r0, #93]	; 0x5d
 8003f68:	f7ff ffef 	bl	8003f4a <HAL_SPI_ErrorCallback>
 8003f6c:	bd08      	pop	{r3, pc}

08003f6e <SPI_DMATransmitCplt>:
 8003f6e:	b537      	push	{r0, r1, r2, r4, r5, lr}
 8003f70:	4605      	mov	r5, r0
 8003f72:	6b84      	ldr	r4, [r0, #56]	; 0x38
 8003f74:	f7fe f90e 	bl	8002194 <HAL_GetTick>
 8003f78:	4602      	mov	r2, r0
 8003f7a:	682b      	ldr	r3, [r5, #0]
 8003f7c:	681b      	ldr	r3, [r3, #0]
 8003f7e:	05db      	lsls	r3, r3, #23
 8003f80:	d426      	bmi.n	8003fd0 <SPI_DMATransmitCplt+0x62>
 8003f82:	6823      	ldr	r3, [r4, #0]
 8003f84:	4620      	mov	r0, r4
 8003f86:	6859      	ldr	r1, [r3, #4]
 8003f88:	f021 0120 	bic.w	r1, r1, #32
 8003f8c:	6059      	str	r1, [r3, #4]
 8003f8e:	6859      	ldr	r1, [r3, #4]
 8003f90:	f021 0102 	bic.w	r1, r1, #2
 8003f94:	6059      	str	r1, [r3, #4]
 8003f96:	2164      	movs	r1, #100	; 0x64
 8003f98:	f7ff fdd6 	bl	8003b48 <SPI_EndRxTxTransaction>
 8003f9c:	b118      	cbz	r0, 8003fa6 <SPI_DMATransmitCplt+0x38>
 8003f9e:	6e23      	ldr	r3, [r4, #96]	; 0x60
 8003fa0:	f043 0320 	orr.w	r3, r3, #32
 8003fa4:	6623      	str	r3, [r4, #96]	; 0x60
 8003fa6:	68a3      	ldr	r3, [r4, #8]
 8003fa8:	b933      	cbnz	r3, 8003fb8 <SPI_DMATransmitCplt+0x4a>
 8003faa:	9301      	str	r3, [sp, #4]
 8003fac:	6823      	ldr	r3, [r4, #0]
 8003fae:	68da      	ldr	r2, [r3, #12]
 8003fb0:	9201      	str	r2, [sp, #4]
 8003fb2:	689b      	ldr	r3, [r3, #8]
 8003fb4:	9301      	str	r3, [sp, #4]
 8003fb6:	9b01      	ldr	r3, [sp, #4]
 8003fb8:	2300      	movs	r3, #0
 8003fba:	87e3      	strh	r3, [r4, #62]	; 0x3e
 8003fbc:	2301      	movs	r3, #1
 8003fbe:	f884 305d 	strb.w	r3, [r4, #93]	; 0x5d
 8003fc2:	6e23      	ldr	r3, [r4, #96]	; 0x60
 8003fc4:	b123      	cbz	r3, 8003fd0 <SPI_DMATransmitCplt+0x62>
 8003fc6:	4620      	mov	r0, r4
 8003fc8:	f7ff ffbf 	bl	8003f4a <HAL_SPI_ErrorCallback>
 8003fcc:	b003      	add	sp, #12
 8003fce:	bd30      	pop	{r4, r5, pc}
 8003fd0:	4620      	mov	r0, r4
 8003fd2:	f7ff ffb3 	bl	8003f3c <HAL_SPI_TxCpltCallback>
 8003fd6:	e7f9      	b.n	8003fcc <SPI_DMATransmitCplt+0x5e>

08003fd8 <TIM_OC1_SetConfig>:
 8003fd8:	6a03      	ldr	r3, [r0, #32]
 8003fda:	f023 0301 	bic.w	r3, r3, #1
 8003fde:	b570      	push	{r4, r5, r6, lr}
 8003fe0:	6203      	str	r3, [r0, #32]
 8003fe2:	6a03      	ldr	r3, [r0, #32]
 8003fe4:	6842      	ldr	r2, [r0, #4]
 8003fe6:	6984      	ldr	r4, [r0, #24]
 8003fe8:	f023 0302 	bic.w	r3, r3, #2
 8003fec:	680d      	ldr	r5, [r1, #0]
 8003fee:	f424 3480 	bic.w	r4, r4, #65536	; 0x10000
 8003ff2:	f024 0473 	bic.w	r4, r4, #115	; 0x73
 8003ff6:	432c      	orrs	r4, r5
 8003ff8:	688d      	ldr	r5, [r1, #8]
 8003ffa:	432b      	orrs	r3, r5
 8003ffc:	4d0e      	ldr	r5, [pc, #56]	; (8004038 <TIM_OC1_SetConfig+0x60>)
 8003ffe:	42a8      	cmp	r0, r5
 8004000:	d002      	beq.n	8004008 <TIM_OC1_SetConfig+0x30>
 8004002:	4e0e      	ldr	r6, [pc, #56]	; (800403c <TIM_OC1_SetConfig+0x64>)
 8004004:	42b0      	cmp	r0, r6
 8004006:	d111      	bne.n	800402c <TIM_OC1_SetConfig+0x54>
 8004008:	f023 0308 	bic.w	r3, r3, #8
 800400c:	68ce      	ldr	r6, [r1, #12]
 800400e:	42a8      	cmp	r0, r5
 8004010:	ea43 0306 	orr.w	r3, r3, r6
 8004014:	f023 0304 	bic.w	r3, r3, #4
 8004018:	d002      	beq.n	8004020 <TIM_OC1_SetConfig+0x48>
 800401a:	4d08      	ldr	r5, [pc, #32]	; (800403c <TIM_OC1_SetConfig+0x64>)
 800401c:	42a8      	cmp	r0, r5
 800401e:	d105      	bne.n	800402c <TIM_OC1_SetConfig+0x54>
 8004020:	f422 7240 	bic.w	r2, r2, #768	; 0x300
 8004024:	e9d1 5605 	ldrd	r5, r6, [r1, #20]
 8004028:	4335      	orrs	r5, r6
 800402a:	432a      	orrs	r2, r5
 800402c:	6042      	str	r2, [r0, #4]
 800402e:	684a      	ldr	r2, [r1, #4]
 8004030:	6184      	str	r4, [r0, #24]
 8004032:	6342      	str	r2, [r0, #52]	; 0x34
 8004034:	6203      	str	r3, [r0, #32]
 8004036:	bd70      	pop	{r4, r5, r6, pc}
 8004038:	40010000 	.word	0x40010000
 800403c:	40010400 	.word	0x40010400

08004040 <TIM_OC3_SetConfig>:
 8004040:	6a03      	ldr	r3, [r0, #32]
 8004042:	f423 7380 	bic.w	r3, r3, #256	; 0x100
 8004046:	b570      	push	{r4, r5, r6, lr}
 8004048:	6203      	str	r3, [r0, #32]
 800404a:	6a03      	ldr	r3, [r0, #32]
 800404c:	6842      	ldr	r2, [r0, #4]
 800404e:	69c4      	ldr	r4, [r0, #28]
 8004050:	f423 7300 	bic.w	r3, r3, #512	; 0x200
 8004054:	680d      	ldr	r5, [r1, #0]
 8004056:	f424 3480 	bic.w	r4, r4, #65536	; 0x10000
 800405a:	f024 0473 	bic.w	r4, r4, #115	; 0x73
 800405e:	432c      	orrs	r4, r5
 8004060:	688d      	ldr	r5, [r1, #8]
 8004062:	ea43 2305 	orr.w	r3, r3, r5, lsl #8
 8004066:	4d11      	ldr	r5, [pc, #68]	; (80040ac <TIM_OC3_SetConfig+0x6c>)
 8004068:	42a8      	cmp	r0, r5
 800406a:	d003      	beq.n	8004074 <TIM_OC3_SetConfig+0x34>
 800406c:	f505 6580 	add.w	r5, r5, #1024	; 0x400
 8004070:	42a8      	cmp	r0, r5
 8004072:	d114      	bne.n	800409e <TIM_OC3_SetConfig+0x5e>
 8004074:	68cd      	ldr	r5, [r1, #12]
 8004076:	f423 6300 	bic.w	r3, r3, #2048	; 0x800
 800407a:	ea43 2305 	orr.w	r3, r3, r5, lsl #8
 800407e:	4d0b      	ldr	r5, [pc, #44]	; (80040ac <TIM_OC3_SetConfig+0x6c>)
 8004080:	42a8      	cmp	r0, r5
 8004082:	f423 6380 	bic.w	r3, r3, #1024	; 0x400
 8004086:	d003      	beq.n	8004090 <TIM_OC3_SetConfig+0x50>
 8004088:	f505 6580 	add.w	r5, r5, #1024	; 0x400
 800408c:	42a8      	cmp	r0, r5
 800408e:	d106      	bne.n	800409e <TIM_OC3_SetConfig+0x5e>
 8004090:	f422 5240 	bic.w	r2, r2, #12288	; 0x3000
 8004094:	e9d1 5605 	ldrd	r5, r6, [r1, #20]
 8004098:	4335      	orrs	r5, r6
 800409a:	ea42 1205 	orr.w	r2, r2, r5, lsl #4
 800409e:	6042      	str	r2, [r0, #4]
 80040a0:	684a      	ldr	r2, [r1, #4]
 80040a2:	61c4      	str	r4, [r0, #28]
 80040a4:	63c2      	str	r2, [r0, #60]	; 0x3c
 80040a6:	6203      	str	r3, [r0, #32]
 80040a8:	bd70      	pop	{r4, r5, r6, pc}
 80040aa:	bf00      	nop
 80040ac:	40010000 	.word	0x40010000

080040b0 <TIM_OC4_SetConfig>:
 80040b0:	6a03      	ldr	r3, [r0, #32]
 80040b2:	f423 5380 	bic.w	r3, r3, #4096	; 0x1000
 80040b6:	b530      	push	{r4, r5, lr}
 80040b8:	6203      	str	r3, [r0, #32]
 80040ba:	6a02      	ldr	r2, [r0, #32]
 80040bc:	6844      	ldr	r4, [r0, #4]
 80040be:	69c3      	ldr	r3, [r0, #28]
 80040c0:	f422 5200 	bic.w	r2, r2, #8192	; 0x2000
 80040c4:	680d      	ldr	r5, [r1, #0]
 80040c6:	f023 7380 	bic.w	r3, r3, #16777216	; 0x1000000
 80040ca:	f423 43e6 	bic.w	r3, r3, #29440	; 0x7300
 80040ce:	ea43 2305 	orr.w	r3, r3, r5, lsl #8
 80040d2:	688d      	ldr	r5, [r1, #8]
 80040d4:	ea42 3205 	orr.w	r2, r2, r5, lsl #12
 80040d8:	4d08      	ldr	r5, [pc, #32]	; (80040fc <TIM_OC4_SetConfig+0x4c>)
 80040da:	42a8      	cmp	r0, r5
 80040dc:	d003      	beq.n	80040e6 <TIM_OC4_SetConfig+0x36>
 80040de:	f505 6580 	add.w	r5, r5, #1024	; 0x400
 80040e2:	42a8      	cmp	r0, r5
 80040e4:	d104      	bne.n	80040f0 <TIM_OC4_SetConfig+0x40>
 80040e6:	f424 4480 	bic.w	r4, r4, #16384	; 0x4000
 80040ea:	694d      	ldr	r5, [r1, #20]
 80040ec:	ea44 1485 	orr.w	r4, r4, r5, lsl #6
 80040f0:	6044      	str	r4, [r0, #4]
 80040f2:	61c3      	str	r3, [r0, #28]
 80040f4:	684b      	ldr	r3, [r1, #4]
 80040f6:	6403      	str	r3, [r0, #64]	; 0x40
 80040f8:	6202      	str	r2, [r0, #32]
 80040fa:	bd30      	pop	{r4, r5, pc}
 80040fc:	40010000 	.word	0x40010000

08004100 <TIM_OC5_SetConfig>:
 8004100:	6a03      	ldr	r3, [r0, #32]
 8004102:	f423 3380 	bic.w	r3, r3, #65536	; 0x10000
 8004106:	b530      	push	{r4, r5, lr}
 8004108:	6203      	str	r3, [r0, #32]
 800410a:	6a02      	ldr	r2, [r0, #32]
 800410c:	6844      	ldr	r4, [r0, #4]
 800410e:	6d43      	ldr	r3, [r0, #84]	; 0x54
 8004110:	f422 3200 	bic.w	r2, r2, #131072	; 0x20000
 8004114:	680d      	ldr	r5, [r1, #0]
 8004116:	f423 3380 	bic.w	r3, r3, #65536	; 0x10000
 800411a:	f023 0370 	bic.w	r3, r3, #112	; 0x70
 800411e:	432b      	orrs	r3, r5
 8004120:	688d      	ldr	r5, [r1, #8]
 8004122:	ea42 4205 	orr.w	r2, r2, r5, lsl #16
 8004126:	4d09      	ldr	r5, [pc, #36]	; (800414c <TIM_OC5_SetConfig+0x4c>)
 8004128:	42a8      	cmp	r0, r5
 800412a:	d003      	beq.n	8004134 <TIM_OC5_SetConfig+0x34>
 800412c:	f505 6580 	add.w	r5, r5, #1024	; 0x400
 8004130:	42a8      	cmp	r0, r5
 8004132:	d104      	bne.n	800413e <TIM_OC5_SetConfig+0x3e>
 8004134:	f424 3480 	bic.w	r4, r4, #65536	; 0x10000
 8004138:	694d      	ldr	r5, [r1, #20]
 800413a:	ea44 2405 	orr.w	r4, r4, r5, lsl #8
 800413e:	6044      	str	r4, [r0, #4]
 8004140:	6543      	str	r3, [r0, #84]	; 0x54
 8004142:	684b      	ldr	r3, [r1, #4]
 8004144:	6583      	str	r3, [r0, #88]	; 0x58
 8004146:	6202      	str	r2, [r0, #32]
 8004148:	bd30      	pop	{r4, r5, pc}
 800414a:	bf00      	nop
 800414c:	40010000 	.word	0x40010000

08004150 <TIM_OC6_SetConfig>:
 8004150:	6a03      	ldr	r3, [r0, #32]
 8004152:	f423 1380 	bic.w	r3, r3, #1048576	; 0x100000
 8004156:	b530      	push	{r4, r5, lr}
 8004158:	6203      	str	r3, [r0, #32]
 800415a:	6a02      	ldr	r2, [r0, #32]
 800415c:	6844      	ldr	r4, [r0, #4]
 800415e:	6d43      	ldr	r3, [r0, #84]	; 0x54
 8004160:	f422 1200 	bic.w	r2, r2, #2097152	; 0x200000
 8004164:	680d      	ldr	r5, [r1, #0]
 8004166:	f023 7380 	bic.w	r3, r3, #16777216	; 0x1000000
 800416a:	f423 43e0 	bic.w	r3, r3, #28672	; 0x7000
 800416e:	ea43 2305 	orr.w	r3, r3, r5, lsl #8
 8004172:	688d      	ldr	r5, [r1, #8]
 8004174:	ea42 5205 	orr.w	r2, r2, r5, lsl #20
 8004178:	4d08      	ldr	r5, [pc, #32]	; (800419c <TIM_OC6_SetConfig+0x4c>)
 800417a:	42a8      	cmp	r0, r5
 800417c:	d003      	beq.n	8004186 <TIM_OC6_SetConfig+0x36>
 800417e:	f505 6580 	add.w	r5, r5, #1024	; 0x400
 8004182:	42a8      	cmp	r0, r5
 8004184:	d104      	bne.n	8004190 <TIM_OC6_SetConfig+0x40>
 8004186:	f424 2480 	bic.w	r4, r4, #262144	; 0x40000
 800418a:	694d      	ldr	r5, [r1, #20]
 800418c:	ea44 2485 	orr.w	r4, r4, r5, lsl #10
 8004190:	6044      	str	r4, [r0, #4]
 8004192:	6543      	str	r3, [r0, #84]	; 0x54
 8004194:	684b      	ldr	r3, [r1, #4]
 8004196:	65c3      	str	r3, [r0, #92]	; 0x5c
 8004198:	6202      	str	r2, [r0, #32]
 800419a:	bd30      	pop	{r4, r5, pc}
 800419c:	40010000 	.word	0x40010000

080041a0 <HAL_TIM_Base_MspInit>:
 80041a0:	4770      	bx	lr
	...

080041a4 <HAL_TIM_Base_Start_IT>:
 80041a4:	f890 303d 	ldrb.w	r3, [r0, #61]	; 0x3d
 80041a8:	2b01      	cmp	r3, #1
 80041aa:	d133      	bne.n	8004214 <HAL_TIM_Base_Start_IT+0x70>
 80041ac:	2302      	movs	r3, #2
 80041ae:	f880 303d 	strb.w	r3, [r0, #61]	; 0x3d
 80041b2:	6803      	ldr	r3, [r0, #0]
 80041b4:	68da      	ldr	r2, [r3, #12]
 80041b6:	f042 0201 	orr.w	r2, r2, #1
 80041ba:	60da      	str	r2, [r3, #12]
 80041bc:	4a16      	ldr	r2, [pc, #88]	; (8004218 <HAL_TIM_Base_Start_IT+0x74>)
 80041be:	4293      	cmp	r3, r2
 80041c0:	d01a      	beq.n	80041f8 <HAL_TIM_Base_Start_IT+0x54>
 80041c2:	f1b3 4f80 	cmp.w	r3, #1073741824	; 0x40000000
 80041c6:	d017      	beq.n	80041f8 <HAL_TIM_Base_Start_IT+0x54>
 80041c8:	f5a2 427c 	sub.w	r2, r2, #64512	; 0xfc00
 80041cc:	4293      	cmp	r3, r2
 80041ce:	d013      	beq.n	80041f8 <HAL_TIM_Base_Start_IT+0x54>
 80041d0:	f502 6280 	add.w	r2, r2, #1024	; 0x400
 80041d4:	4293      	cmp	r3, r2
 80041d6:	d00f      	beq.n	80041f8 <HAL_TIM_Base_Start_IT+0x54>
 80041d8:	f502 6280 	add.w	r2, r2, #1024	; 0x400
 80041dc:	4293      	cmp	r3, r2
 80041de:	d00b      	beq.n	80041f8 <HAL_TIM_Base_Start_IT+0x54>
 80041e0:	f502 4278 	add.w	r2, r2, #63488	; 0xf800
 80041e4:	4293      	cmp	r3, r2
 80041e6:	d007      	beq.n	80041f8 <HAL_TIM_Base_Start_IT+0x54>
 80041e8:	f502 5270 	add.w	r2, r2, #15360	; 0x3c00
 80041ec:	4293      	cmp	r3, r2
 80041ee:	d003      	beq.n	80041f8 <HAL_TIM_Base_Start_IT+0x54>
 80041f0:	f5a2 3294 	sub.w	r2, r2, #75776	; 0x12800
 80041f4:	4293      	cmp	r3, r2
 80041f6:	d107      	bne.n	8004208 <HAL_TIM_Base_Start_IT+0x64>
 80041f8:	6899      	ldr	r1, [r3, #8]
 80041fa:	4a08      	ldr	r2, [pc, #32]	; (800421c <HAL_TIM_Base_Start_IT+0x78>)
 80041fc:	400a      	ands	r2, r1
 80041fe:	2a06      	cmp	r2, #6
 8004200:	d006      	beq.n	8004210 <HAL_TIM_Base_Start_IT+0x6c>
 8004202:	f5b2 3f80 	cmp.w	r2, #65536	; 0x10000
 8004206:	d003      	beq.n	8004210 <HAL_TIM_Base_Start_IT+0x6c>
 8004208:	681a      	ldr	r2, [r3, #0]
 800420a:	f042 0201 	orr.w	r2, r2, #1
 800420e:	601a      	str	r2, [r3, #0]
 8004210:	2000      	movs	r0, #0
 8004212:	4770      	bx	lr
 8004214:	2001      	movs	r0, #1
 8004216:	4770      	bx	lr
 8004218:	40010000 	.word	0x40010000
 800421c:	00010007 	.word	0x00010007

08004220 <HAL_TIM_OC_DelayElapsedCallback>:
 8004220:	4770      	bx	lr

08004222 <HAL_TIM_IC_CaptureCallback>:
 8004222:	4770      	bx	lr

08004224 <HAL_TIM_PWM_PulseFinishedCallback>:
 8004224:	4770      	bx	lr

08004226 <HAL_TIM_TriggerCallback>:
 8004226:	4770      	bx	lr

08004228 <HAL_TIM_IRQHandler>:
 8004228:	6803      	ldr	r3, [r0, #0]
 800422a:	691a      	ldr	r2, [r3, #16]
 800422c:	0791      	lsls	r1, r2, #30
 800422e:	b510      	push	{r4, lr}
 8004230:	4604      	mov	r4, r0
 8004232:	d50f      	bpl.n	8004254 <HAL_TIM_IRQHandler+0x2c>
 8004234:	68da      	ldr	r2, [r3, #12]
 8004236:	0792      	lsls	r2, r2, #30
 8004238:	d50c      	bpl.n	8004254 <HAL_TIM_IRQHandler+0x2c>
 800423a:	f06f 0202 	mvn.w	r2, #2
 800423e:	611a      	str	r2, [r3, #16]
 8004240:	2201      	movs	r2, #1
 8004242:	7702      	strb	r2, [r0, #28]
 8004244:	699b      	ldr	r3, [r3, #24]
 8004246:	0799      	lsls	r1, r3, #30
 8004248:	f000 8085 	beq.w	8004356 <HAL_TIM_IRQHandler+0x12e>
 800424c:	f7ff ffe9 	bl	8004222 <HAL_TIM_IC_CaptureCallback>
 8004250:	2300      	movs	r3, #0
 8004252:	7723      	strb	r3, [r4, #28]
 8004254:	6823      	ldr	r3, [r4, #0]
 8004256:	691a      	ldr	r2, [r3, #16]
 8004258:	0752      	lsls	r2, r2, #29
 800425a:	d510      	bpl.n	800427e <HAL_TIM_IRQHandler+0x56>
 800425c:	68da      	ldr	r2, [r3, #12]
 800425e:	0750      	lsls	r0, r2, #29
 8004260:	d50d      	bpl.n	800427e <HAL_TIM_IRQHandler+0x56>
 8004262:	f06f 0204 	mvn.w	r2, #4
 8004266:	4620      	mov	r0, r4
 8004268:	611a      	str	r2, [r3, #16]
 800426a:	2202      	movs	r2, #2
 800426c:	7722      	strb	r2, [r4, #28]
 800426e:	699b      	ldr	r3, [r3, #24]
 8004270:	f413 7f40 	tst.w	r3, #768	; 0x300
 8004274:	d075      	beq.n	8004362 <HAL_TIM_IRQHandler+0x13a>
 8004276:	f7ff ffd4 	bl	8004222 <HAL_TIM_IC_CaptureCallback>
 800427a:	2300      	movs	r3, #0
 800427c:	7723      	strb	r3, [r4, #28]
 800427e:	6823      	ldr	r3, [r4, #0]
 8004280:	691a      	ldr	r2, [r3, #16]
 8004282:	0711      	lsls	r1, r2, #28
 8004284:	d50f      	bpl.n	80042a6 <HAL_TIM_IRQHandler+0x7e>
 8004286:	68da      	ldr	r2, [r3, #12]
 8004288:	0712      	lsls	r2, r2, #28
 800428a:	d50c      	bpl.n	80042a6 <HAL_TIM_IRQHandler+0x7e>
 800428c:	f06f 0208 	mvn.w	r2, #8
 8004290:	4620      	mov	r0, r4
 8004292:	611a      	str	r2, [r3, #16]
 8004294:	2204      	movs	r2, #4
 8004296:	7722      	strb	r2, [r4, #28]
 8004298:	69db      	ldr	r3, [r3, #28]
 800429a:	079b      	lsls	r3, r3, #30
 800429c:	d067      	beq.n	800436e <HAL_TIM_IRQHandler+0x146>
 800429e:	f7ff ffc0 	bl	8004222 <HAL_TIM_IC_CaptureCallback>
 80042a2:	2300      	movs	r3, #0
 80042a4:	7723      	strb	r3, [r4, #28]
 80042a6:	6823      	ldr	r3, [r4, #0]
 80042a8:	691a      	ldr	r2, [r3, #16]
 80042aa:	06d0      	lsls	r0, r2, #27
 80042ac:	d510      	bpl.n	80042d0 <HAL_TIM_IRQHandler+0xa8>
 80042ae:	68da      	ldr	r2, [r3, #12]
 80042b0:	06d1      	lsls	r1, r2, #27
 80042b2:	d50d      	bpl.n	80042d0 <HAL_TIM_IRQHandler+0xa8>
 80042b4:	f06f 0210 	mvn.w	r2, #16
 80042b8:	4620      	mov	r0, r4
 80042ba:	611a      	str	r2, [r3, #16]
 80042bc:	2208      	movs	r2, #8
 80042be:	7722      	strb	r2, [r4, #28]
 80042c0:	69db      	ldr	r3, [r3, #28]
 80042c2:	f413 7f40 	tst.w	r3, #768	; 0x300
 80042c6:	d058      	beq.n	800437a <HAL_TIM_IRQHandler+0x152>
 80042c8:	f7ff ffab 	bl	8004222 <HAL_TIM_IC_CaptureCallback>
 80042cc:	2300      	movs	r3, #0
 80042ce:	7723      	strb	r3, [r4, #28]
 80042d0:	6823      	ldr	r3, [r4, #0]
 80042d2:	691a      	ldr	r2, [r3, #16]
 80042d4:	07d2      	lsls	r2, r2, #31
 80042d6:	d508      	bpl.n	80042ea <HAL_TIM_IRQHandler+0xc2>
 80042d8:	68da      	ldr	r2, [r3, #12]
 80042da:	07d0      	lsls	r0, r2, #31
 80042dc:	d505      	bpl.n	80042ea <HAL_TIM_IRQHandler+0xc2>
 80042de:	f06f 0201 	mvn.w	r2, #1
 80042e2:	4620      	mov	r0, r4
 80042e4:	611a      	str	r2, [r3, #16]
 80042e6:	f7fd f9ed 	bl	80016c4 <HAL_TIM_PeriodElapsedCallback>
 80042ea:	6823      	ldr	r3, [r4, #0]
 80042ec:	691a      	ldr	r2, [r3, #16]
 80042ee:	0611      	lsls	r1, r2, #24
 80042f0:	d508      	bpl.n	8004304 <HAL_TIM_IRQHandler+0xdc>
 80042f2:	68da      	ldr	r2, [r3, #12]
 80042f4:	0612      	lsls	r2, r2, #24
 80042f6:	d505      	bpl.n	8004304 <HAL_TIM_IRQHandler+0xdc>
 80042f8:	f06f 0280 	mvn.w	r2, #128	; 0x80
 80042fc:	4620      	mov	r0, r4
 80042fe:	611a      	str	r2, [r3, #16]
 8004300:	f000 faa7 	bl	8004852 <HAL_TIMEx_BreakCallback>
 8004304:	6823      	ldr	r3, [r4, #0]
 8004306:	691a      	ldr	r2, [r3, #16]
 8004308:	05d0      	lsls	r0, r2, #23
 800430a:	d508      	bpl.n	800431e <HAL_TIM_IRQHandler+0xf6>
 800430c:	68da      	ldr	r2, [r3, #12]
 800430e:	0611      	lsls	r1, r2, #24
 8004310:	d505      	bpl.n	800431e <HAL_TIM_IRQHandler+0xf6>
 8004312:	f46f 7280 	mvn.w	r2, #256	; 0x100
 8004316:	4620      	mov	r0, r4
 8004318:	611a      	str	r2, [r3, #16]
 800431a:	f000 fa9b 	bl	8004854 <HAL_TIMEx_Break2Callback>
 800431e:	6823      	ldr	r3, [r4, #0]
 8004320:	691a      	ldr	r2, [r3, #16]
 8004322:	0652      	lsls	r2, r2, #25
 8004324:	d508      	bpl.n	8004338 <HAL_TIM_IRQHandler+0x110>
 8004326:	68da      	ldr	r2, [r3, #12]
 8004328:	0650      	lsls	r0, r2, #25
 800432a:	d505      	bpl.n	8004338 <HAL_TIM_IRQHandler+0x110>
 800432c:	f06f 0240 	mvn.w	r2, #64	; 0x40
 8004330:	4620      	mov	r0, r4
 8004332:	611a      	str	r2, [r3, #16]
 8004334:	f7ff ff77 	bl	8004226 <HAL_TIM_TriggerCallback>
 8004338:	6823      	ldr	r3, [r4, #0]
 800433a:	691a      	ldr	r2, [r3, #16]
 800433c:	0691      	lsls	r1, r2, #26
 800433e:	d522      	bpl.n	8004386 <HAL_TIM_IRQHandler+0x15e>
 8004340:	68da      	ldr	r2, [r3, #12]
 8004342:	0692      	lsls	r2, r2, #26
 8004344:	d51f      	bpl.n	8004386 <HAL_TIM_IRQHandler+0x15e>
 8004346:	f06f 0220 	mvn.w	r2, #32
 800434a:	4620      	mov	r0, r4
 800434c:	611a      	str	r2, [r3, #16]
 800434e:	e8bd 4010 	ldmia.w	sp!, {r4, lr}
 8004352:	f000 ba7d 	b.w	8004850 <HAL_TIMEx_CommutCallback>
 8004356:	f7ff ff63 	bl	8004220 <HAL_TIM_OC_DelayElapsedCallback>
 800435a:	4620      	mov	r0, r4
 800435c:	f7ff ff62 	bl	8004224 <HAL_TIM_PWM_PulseFinishedCallback>
 8004360:	e776      	b.n	8004250 <HAL_TIM_IRQHandler+0x28>
 8004362:	f7ff ff5d 	bl	8004220 <HAL_TIM_OC_DelayElapsedCallback>
 8004366:	4620      	mov	r0, r4
 8004368:	f7ff ff5c 	bl	8004224 <HAL_TIM_PWM_PulseFinishedCallback>
 800436c:	e785      	b.n	800427a <HAL_TIM_IRQHandler+0x52>
 800436e:	f7ff ff57 	bl	8004220 <HAL_TIM_OC_DelayElapsedCallback>
 8004372:	4620      	mov	r0, r4
 8004374:	f7ff ff56 	bl	8004224 <HAL_TIM_PWM_PulseFinishedCallback>
 8004378:	e793      	b.n	80042a2 <HAL_TIM_IRQHandler+0x7a>
 800437a:	f7ff ff51 	bl	8004220 <HAL_TIM_OC_DelayElapsedCallback>
 800437e:	4620      	mov	r0, r4
 8004380:	f7ff ff50 	bl	8004224 <HAL_TIM_PWM_PulseFinishedCallback>
 8004384:	e7a2      	b.n	80042cc <HAL_TIM_IRQHandler+0xa4>
 8004386:	bd10      	pop	{r4, pc}

08004388 <TIM_Base_SetConfig>:
 8004388:	4a30      	ldr	r2, [pc, #192]	; (800444c <TIM_Base_SetConfig+0xc4>)
 800438a:	6803      	ldr	r3, [r0, #0]
 800438c:	4290      	cmp	r0, r2
 800438e:	d012      	beq.n	80043b6 <TIM_Base_SetConfig+0x2e>
 8004390:	f1b0 4f80 	cmp.w	r0, #1073741824	; 0x40000000
 8004394:	d00f      	beq.n	80043b6 <TIM_Base_SetConfig+0x2e>
 8004396:	f5a2 427c 	sub.w	r2, r2, #64512	; 0xfc00
 800439a:	4290      	cmp	r0, r2
 800439c:	d00b      	beq.n	80043b6 <TIM_Base_SetConfig+0x2e>
 800439e:	f502 6280 	add.w	r2, r2, #1024	; 0x400
 80043a2:	4290      	cmp	r0, r2
 80043a4:	d007      	beq.n	80043b6 <TIM_Base_SetConfig+0x2e>
 80043a6:	f502 6280 	add.w	r2, r2, #1024	; 0x400
 80043aa:	4290      	cmp	r0, r2
 80043ac:	d003      	beq.n	80043b6 <TIM_Base_SetConfig+0x2e>
 80043ae:	f502 4278 	add.w	r2, r2, #63488	; 0xf800
 80043b2:	4290      	cmp	r0, r2
 80043b4:	d119      	bne.n	80043ea <TIM_Base_SetConfig+0x62>
 80043b6:	684a      	ldr	r2, [r1, #4]
 80043b8:	f023 0370 	bic.w	r3, r3, #112	; 0x70
 80043bc:	4313      	orrs	r3, r2
 80043be:	4a23      	ldr	r2, [pc, #140]	; (800444c <TIM_Base_SetConfig+0xc4>)
 80043c0:	4290      	cmp	r0, r2
 80043c2:	d029      	beq.n	8004418 <TIM_Base_SetConfig+0x90>
 80043c4:	f1b0 4f80 	cmp.w	r0, #1073741824	; 0x40000000
 80043c8:	d026      	beq.n	8004418 <TIM_Base_SetConfig+0x90>
 80043ca:	f5a2 427c 	sub.w	r2, r2, #64512	; 0xfc00
 80043ce:	4290      	cmp	r0, r2
 80043d0:	d022      	beq.n	8004418 <TIM_Base_SetConfig+0x90>
 80043d2:	f502 6280 	add.w	r2, r2, #1024	; 0x400
 80043d6:	4290      	cmp	r0, r2
 80043d8:	d01e      	beq.n	8004418 <TIM_Base_SetConfig+0x90>
 80043da:	f502 6280 	add.w	r2, r2, #1024	; 0x400
 80043de:	4290      	cmp	r0, r2
 80043e0:	d01a      	beq.n	8004418 <TIM_Base_SetConfig+0x90>
 80043e2:	f502 4278 	add.w	r2, r2, #63488	; 0xf800
 80043e6:	4290      	cmp	r0, r2
 80043e8:	d016      	beq.n	8004418 <TIM_Base_SetConfig+0x90>
 80043ea:	4a19      	ldr	r2, [pc, #100]	; (8004450 <TIM_Base_SetConfig+0xc8>)
 80043ec:	4290      	cmp	r0, r2
 80043ee:	d013      	beq.n	8004418 <TIM_Base_SetConfig+0x90>
 80043f0:	f502 6280 	add.w	r2, r2, #1024	; 0x400
 80043f4:	4290      	cmp	r0, r2
 80043f6:	d00f      	beq.n	8004418 <TIM_Base_SetConfig+0x90>
 80043f8:	f502 6280 	add.w	r2, r2, #1024	; 0x400
 80043fc:	4290      	cmp	r0, r2
 80043fe:	d00b      	beq.n	8004418 <TIM_Base_SetConfig+0x90>
 8004400:	f5a2 3298 	sub.w	r2, r2, #77824	; 0x13000
 8004404:	4290      	cmp	r0, r2
 8004406:	d007      	beq.n	8004418 <TIM_Base_SetConfig+0x90>
 8004408:	f502 6280 	add.w	r2, r2, #1024	; 0x400
 800440c:	4290      	cmp	r0, r2
 800440e:	d003      	beq.n	8004418 <TIM_Base_SetConfig+0x90>
 8004410:	f502 6280 	add.w	r2, r2, #1024	; 0x400
 8004414:	4290      	cmp	r0, r2
 8004416:	d103      	bne.n	8004420 <TIM_Base_SetConfig+0x98>
 8004418:	f423 7340 	bic.w	r3, r3, #768	; 0x300
 800441c:	68ca      	ldr	r2, [r1, #12]
 800441e:	4313      	orrs	r3, r2
 8004420:	694a      	ldr	r2, [r1, #20]
 8004422:	f023 0380 	bic.w	r3, r3, #128	; 0x80
 8004426:	4313      	orrs	r3, r2
 8004428:	6003      	str	r3, [r0, #0]
 800442a:	688b      	ldr	r3, [r1, #8]
 800442c:	62c3      	str	r3, [r0, #44]	; 0x2c
 800442e:	680b      	ldr	r3, [r1, #0]
 8004430:	6283      	str	r3, [r0, #40]	; 0x28
 8004432:	4b06      	ldr	r3, [pc, #24]	; (800444c <TIM_Base_SetConfig+0xc4>)
 8004434:	4298      	cmp	r0, r3
 8004436:	d003      	beq.n	8004440 <TIM_Base_SetConfig+0xb8>
 8004438:	f503 6380 	add.w	r3, r3, #1024	; 0x400
 800443c:	4298      	cmp	r0, r3
 800443e:	d101      	bne.n	8004444 <TIM_Base_SetConfig+0xbc>
 8004440:	690b      	ldr	r3, [r1, #16]
 8004442:	6303      	str	r3, [r0, #48]	; 0x30
 8004444:	2301      	movs	r3, #1
 8004446:	6143      	str	r3, [r0, #20]
 8004448:	4770      	bx	lr
 800444a:	bf00      	nop
 800444c:	40010000 	.word	0x40010000
 8004450:	40014000 	.word	0x40014000

08004454 <HAL_TIM_Base_Init>:
 8004454:	b510      	push	{r4, lr}
 8004456:	4604      	mov	r4, r0
 8004458:	b350      	cbz	r0, 80044b0 <HAL_TIM_Base_Init+0x5c>
 800445a:	f890 303d 	ldrb.w	r3, [r0, #61]	; 0x3d
 800445e:	f003 02ff 	and.w	r2, r3, #255	; 0xff
 8004462:	b91b      	cbnz	r3, 800446c <HAL_TIM_Base_Init+0x18>
 8004464:	f880 203c 	strb.w	r2, [r0, #60]	; 0x3c
 8004468:	f7ff fe9a 	bl	80041a0 <HAL_TIM_Base_MspInit>
 800446c:	2302      	movs	r3, #2
 800446e:	6820      	ldr	r0, [r4, #0]
 8004470:	1d21      	adds	r1, r4, #4
 8004472:	f884 303d 	strb.w	r3, [r4, #61]	; 0x3d
 8004476:	f7ff ff87 	bl	8004388 <TIM_Base_SetConfig>
 800447a:	2301      	movs	r3, #1
 800447c:	2000      	movs	r0, #0
 800447e:	f884 3048 	strb.w	r3, [r4, #72]	; 0x48
 8004482:	f884 303e 	strb.w	r3, [r4, #62]	; 0x3e
 8004486:	f884 303f 	strb.w	r3, [r4, #63]	; 0x3f
 800448a:	f884 3040 	strb.w	r3, [r4, #64]	; 0x40
 800448e:	f884 3041 	strb.w	r3, [r4, #65]	; 0x41
 8004492:	f884 3042 	strb.w	r3, [r4, #66]	; 0x42
 8004496:	f884 3043 	strb.w	r3, [r4, #67]	; 0x43
 800449a:	f884 3044 	strb.w	r3, [r4, #68]	; 0x44
 800449e:	f884 3045 	strb.w	r3, [r4, #69]	; 0x45
 80044a2:	f884 3046 	strb.w	r3, [r4, #70]	; 0x46
 80044a6:	f884 3047 	strb.w	r3, [r4, #71]	; 0x47
 80044aa:	f884 303d 	strb.w	r3, [r4, #61]	; 0x3d
 80044ae:	bd10      	pop	{r4, pc}
 80044b0:	2001      	movs	r0, #1
 80044b2:	e7fc      	b.n	80044ae <HAL_TIM_Base_Init+0x5a>

080044b4 <HAL_TIM_PWM_Init>:
 80044b4:	b510      	push	{r4, lr}
 80044b6:	4604      	mov	r4, r0
 80044b8:	b350      	cbz	r0, 8004510 <HAL_TIM_PWM_Init+0x5c>
 80044ba:	f890 303d 	ldrb.w	r3, [r0, #61]	; 0x3d
 80044be:	f003 02ff 	and.w	r2, r3, #255	; 0xff
 80044c2:	b91b      	cbnz	r3, 80044cc <HAL_TIM_PWM_Init+0x18>
 80044c4:	f880 203c 	strb.w	r2, [r0, #60]	; 0x3c
 80044c8:	f7fd fbc8 	bl	8001c5c <HAL_TIM_PWM_MspInit>
 80044cc:	2302      	movs	r3, #2
 80044ce:	6820      	ldr	r0, [r4, #0]
 80044d0:	1d21      	adds	r1, r4, #4
 80044d2:	f884 303d 	strb.w	r3, [r4, #61]	; 0x3d
 80044d6:	f7ff ff57 	bl	8004388 <TIM_Base_SetConfig>
 80044da:	2301      	movs	r3, #1
 80044dc:	2000      	movs	r0, #0
 80044de:	f884 3048 	strb.w	r3, [r4, #72]	; 0x48
 80044e2:	f884 303e 	strb.w	r3, [r4, #62]	; 0x3e
 80044e6:	f884 303f 	strb.w	r3, [r4, #63]	; 0x3f
 80044ea:	f884 3040 	strb.w	r3, [r4, #64]	; 0x40
 80044ee:	f884 3041 	strb.w	r3, [r4, #65]	; 0x41
 80044f2:	f884 3042 	strb.w	r3, [r4, #66]	; 0x42
 80044f6:	f884 3043 	strb.w	r3, [r4, #67]	; 0x43
 80044fa:	f884 3044 	strb.w	r3, [r4, #68]	; 0x44
 80044fe:	f884 3045 	strb.w	r3, [r4, #69]	; 0x45
 8004502:	f884 3046 	strb.w	r3, [r4, #70]	; 0x46
 8004506:	f884 3047 	strb.w	r3, [r4, #71]	; 0x47
 800450a:	f884 303d 	strb.w	r3, [r4, #61]	; 0x3d
 800450e:	bd10      	pop	{r4, pc}
 8004510:	2001      	movs	r0, #1
 8004512:	e7fc      	b.n	800450e <HAL_TIM_PWM_Init+0x5a>

08004514 <TIM_OC2_SetConfig>:
 8004514:	6a03      	ldr	r3, [r0, #32]
 8004516:	f023 0310 	bic.w	r3, r3, #16
 800451a:	b570      	push	{r4, r5, r6, lr}
 800451c:	6203      	str	r3, [r0, #32]
 800451e:	6a03      	ldr	r3, [r0, #32]
 8004520:	6842      	ldr	r2, [r0, #4]
 8004522:	6984      	ldr	r4, [r0, #24]
 8004524:	f023 0320 	bic.w	r3, r3, #32
 8004528:	680d      	ldr	r5, [r1, #0]
 800452a:	f024 7480 	bic.w	r4, r4, #16777216	; 0x1000000
 800452e:	f424 44e6 	bic.w	r4, r4, #29440	; 0x7300
 8004532:	ea44 2405 	orr.w	r4, r4, r5, lsl #8
 8004536:	688d      	ldr	r5, [r1, #8]
 8004538:	ea43 1305 	orr.w	r3, r3, r5, lsl #4
 800453c:	4d10      	ldr	r5, [pc, #64]	; (8004580 <TIM_OC2_SetConfig+0x6c>)
 800453e:	42a8      	cmp	r0, r5
 8004540:	d003      	beq.n	800454a <TIM_OC2_SetConfig+0x36>
 8004542:	f505 6580 	add.w	r5, r5, #1024	; 0x400
 8004546:	42a8      	cmp	r0, r5
 8004548:	d114      	bne.n	8004574 <TIM_OC2_SetConfig+0x60>
 800454a:	68cd      	ldr	r5, [r1, #12]
 800454c:	f023 0380 	bic.w	r3, r3, #128	; 0x80
 8004550:	ea43 1305 	orr.w	r3, r3, r5, lsl #4
 8004554:	4d0a      	ldr	r5, [pc, #40]	; (8004580 <TIM_OC2_SetConfig+0x6c>)
 8004556:	42a8      	cmp	r0, r5
 8004558:	f023 0340 	bic.w	r3, r3, #64	; 0x40
 800455c:	d003      	beq.n	8004566 <TIM_OC2_SetConfig+0x52>
 800455e:	f505 6580 	add.w	r5, r5, #1024	; 0x400
 8004562:	42a8      	cmp	r0, r5
 8004564:	d106      	bne.n	8004574 <TIM_OC2_SetConfig+0x60>
 8004566:	f422 6240 	bic.w	r2, r2, #3072	; 0xc00
 800456a:	e9d1 5605 	ldrd	r5, r6, [r1, #20]
 800456e:	4335      	orrs	r5, r6
 8004570:	ea42 0285 	orr.w	r2, r2, r5, lsl #2
 8004574:	6042      	str	r2, [r0, #4]
 8004576:	684a      	ldr	r2, [r1, #4]
 8004578:	6184      	str	r4, [r0, #24]
 800457a:	6382      	str	r2, [r0, #56]	; 0x38
 800457c:	6203      	str	r3, [r0, #32]
 800457e:	bd70      	pop	{r4, r5, r6, pc}
 8004580:	40010000 	.word	0x40010000

08004584 <HAL_TIM_PWM_ConfigChannel>:
 8004584:	b570      	push	{r4, r5, r6, lr}
 8004586:	f890 303c 	ldrb.w	r3, [r0, #60]	; 0x3c
 800458a:	4605      	mov	r5, r0
 800458c:	2b01      	cmp	r3, #1
 800458e:	d074      	beq.n	800467a <HAL_TIM_PWM_ConfigChannel+0xf6>
 8004590:	2301      	movs	r3, #1
 8004592:	2a0c      	cmp	r2, #12
 8004594:	f880 303c 	strb.w	r3, [r0, #60]	; 0x3c
 8004598:	d04f      	beq.n	800463a <HAL_TIM_PWM_ConfigChannel+0xb6>
 800459a:	d809      	bhi.n	80045b0 <HAL_TIM_PWM_ConfigChannel+0x2c>
 800459c:	2a04      	cmp	r2, #4
 800459e:	d02c      	beq.n	80045fa <HAL_TIM_PWM_ConfigChannel+0x76>
 80045a0:	2a08      	cmp	r2, #8
 80045a2:	d03a      	beq.n	800461a <HAL_TIM_PWM_ConfigChannel+0x96>
 80045a4:	b1c2      	cbz	r2, 80045d8 <HAL_TIM_PWM_ConfigChannel+0x54>
 80045a6:	4618      	mov	r0, r3
 80045a8:	2300      	movs	r3, #0
 80045aa:	f885 303c 	strb.w	r3, [r5, #60]	; 0x3c
 80045ae:	bd70      	pop	{r4, r5, r6, pc}
 80045b0:	2a10      	cmp	r2, #16
 80045b2:	d052      	beq.n	800465a <HAL_TIM_PWM_ConfigChannel+0xd6>
 80045b4:	2a14      	cmp	r2, #20
 80045b6:	d1f6      	bne.n	80045a6 <HAL_TIM_PWM_ConfigChannel+0x22>
 80045b8:	6800      	ldr	r0, [r0, #0]
 80045ba:	f7ff fdc9 	bl	8004150 <TIM_OC6_SetConfig>
 80045be:	690a      	ldr	r2, [r1, #16]
 80045c0:	6d43      	ldr	r3, [r0, #84]	; 0x54
 80045c2:	f443 6300 	orr.w	r3, r3, #2048	; 0x800
 80045c6:	6543      	str	r3, [r0, #84]	; 0x54
 80045c8:	6d43      	ldr	r3, [r0, #84]	; 0x54
 80045ca:	f423 6380 	bic.w	r3, r3, #1024	; 0x400
 80045ce:	6543      	str	r3, [r0, #84]	; 0x54
 80045d0:	6d43      	ldr	r3, [r0, #84]	; 0x54
 80045d2:	ea43 2302 	orr.w	r3, r3, r2, lsl #8
 80045d6:	e04e      	b.n	8004676 <HAL_TIM_PWM_ConfigChannel+0xf2>
 80045d8:	6800      	ldr	r0, [r0, #0]
 80045da:	f7ff fcfd 	bl	8003fd8 <TIM_OC1_SetConfig>
 80045de:	690a      	ldr	r2, [r1, #16]
 80045e0:	6983      	ldr	r3, [r0, #24]
 80045e2:	f043 0308 	orr.w	r3, r3, #8
 80045e6:	6183      	str	r3, [r0, #24]
 80045e8:	6983      	ldr	r3, [r0, #24]
 80045ea:	f023 0304 	bic.w	r3, r3, #4
 80045ee:	6183      	str	r3, [r0, #24]
 80045f0:	6983      	ldr	r3, [r0, #24]
 80045f2:	4313      	orrs	r3, r2
 80045f4:	6183      	str	r3, [r0, #24]
 80045f6:	2000      	movs	r0, #0
 80045f8:	e7d6      	b.n	80045a8 <HAL_TIM_PWM_ConfigChannel+0x24>
 80045fa:	6800      	ldr	r0, [r0, #0]
 80045fc:	f7ff ff8a 	bl	8004514 <TIM_OC2_SetConfig>
 8004600:	690a      	ldr	r2, [r1, #16]
 8004602:	6983      	ldr	r3, [r0, #24]
 8004604:	f443 6300 	orr.w	r3, r3, #2048	; 0x800
 8004608:	6183      	str	r3, [r0, #24]
 800460a:	6983      	ldr	r3, [r0, #24]
 800460c:	f423 6380 	bic.w	r3, r3, #1024	; 0x400
 8004610:	6183      	str	r3, [r0, #24]
 8004612:	6983      	ldr	r3, [r0, #24]
 8004614:	ea43 2302 	orr.w	r3, r3, r2, lsl #8
 8004618:	e7ec      	b.n	80045f4 <HAL_TIM_PWM_ConfigChannel+0x70>
 800461a:	6800      	ldr	r0, [r0, #0]
 800461c:	f7ff fd10 	bl	8004040 <TIM_OC3_SetConfig>
 8004620:	690a      	ldr	r2, [r1, #16]
 8004622:	69c3      	ldr	r3, [r0, #28]
 8004624:	f043 0308 	orr.w	r3, r3, #8
 8004628:	61c3      	str	r3, [r0, #28]
 800462a:	69c3      	ldr	r3, [r0, #28]
 800462c:	f023 0304 	bic.w	r3, r3, #4
 8004630:	61c3      	str	r3, [r0, #28]
 8004632:	69c3      	ldr	r3, [r0, #28]
 8004634:	4313      	orrs	r3, r2
 8004636:	61c3      	str	r3, [r0, #28]
 8004638:	e7dd      	b.n	80045f6 <HAL_TIM_PWM_ConfigChannel+0x72>
 800463a:	6800      	ldr	r0, [r0, #0]
 800463c:	f7ff fd38 	bl	80040b0 <TIM_OC4_SetConfig>
 8004640:	690a      	ldr	r2, [r1, #16]
 8004642:	69c3      	ldr	r3, [r0, #28]
 8004644:	f443 6300 	orr.w	r3, r3, #2048	; 0x800
 8004648:	61c3      	str	r3, [r0, #28]
 800464a:	69c3      	ldr	r3, [r0, #28]
 800464c:	f423 6380 	bic.w	r3, r3, #1024	; 0x400
 8004650:	61c3      	str	r3, [r0, #28]
 8004652:	69c3      	ldr	r3, [r0, #28]
 8004654:	ea43 2302 	orr.w	r3, r3, r2, lsl #8
 8004658:	e7ed      	b.n	8004636 <HAL_TIM_PWM_ConfigChannel+0xb2>
 800465a:	6800      	ldr	r0, [r0, #0]
 800465c:	f7ff fd50 	bl	8004100 <TIM_OC5_SetConfig>
 8004660:	690a      	ldr	r2, [r1, #16]
 8004662:	6d43      	ldr	r3, [r0, #84]	; 0x54
 8004664:	f043 0308 	orr.w	r3, r3, #8
 8004668:	6543      	str	r3, [r0, #84]	; 0x54
 800466a:	6d43      	ldr	r3, [r0, #84]	; 0x54
 800466c:	f023 0304 	bic.w	r3, r3, #4
 8004670:	6543      	str	r3, [r0, #84]	; 0x54
 8004672:	6d43      	ldr	r3, [r0, #84]	; 0x54
 8004674:	4313      	orrs	r3, r2
 8004676:	6543      	str	r3, [r0, #84]	; 0x54
 8004678:	e7bd      	b.n	80045f6 <HAL_TIM_PWM_ConfigChannel+0x72>
 800467a:	2002      	movs	r0, #2
 800467c:	e797      	b.n	80045ae <HAL_TIM_PWM_ConfigChannel+0x2a>

0800467e <TIM_CCxChannelCmd>:
 800467e:	f001 011f 	and.w	r1, r1, #31
 8004682:	6a03      	ldr	r3, [r0, #32]
 8004684:	b510      	push	{r4, lr}
 8004686:	2401      	movs	r4, #1
 8004688:	408a      	lsls	r2, r1
 800468a:	408c      	lsls	r4, r1
 800468c:	ea23 0304 	bic.w	r3, r3, r4
 8004690:	6203      	str	r3, [r0, #32]
 8004692:	6a03      	ldr	r3, [r0, #32]
 8004694:	431a      	orrs	r2, r3
 8004696:	6202      	str	r2, [r0, #32]
 8004698:	bd10      	pop	{r4, pc}
	...

0800469c <HAL_TIM_OC_Start>:
 800469c:	2908      	cmp	r1, #8
 800469e:	b508      	push	{r3, lr}
 80046a0:	d025      	beq.n	80046ee <HAL_TIM_OC_Start+0x52>
 80046a2:	d80f      	bhi.n	80046c4 <HAL_TIM_OC_Start+0x28>
 80046a4:	b1a9      	cbz	r1, 80046d2 <HAL_TIM_OC_Start+0x36>
 80046a6:	2904      	cmp	r1, #4
 80046a8:	d019      	beq.n	80046de <HAL_TIM_OC_Start+0x42>
 80046aa:	f890 3043 	ldrb.w	r3, [r0, #67]	; 0x43
 80046ae:	2b01      	cmp	r3, #1
 80046b0:	d113      	bne.n	80046da <HAL_TIM_OC_Start+0x3e>
 80046b2:	2908      	cmp	r1, #8
 80046b4:	d82b      	bhi.n	800470e <HAL_TIM_OC_Start+0x72>
 80046b6:	b399      	cbz	r1, 8004720 <HAL_TIM_OC_Start+0x84>
 80046b8:	2904      	cmp	r1, #4
 80046ba:	d014      	beq.n	80046e6 <HAL_TIM_OC_Start+0x4a>
 80046bc:	2302      	movs	r3, #2
 80046be:	f880 3043 	strb.w	r3, [r0, #67]	; 0x43
 80046c2:	e030      	b.n	8004726 <HAL_TIM_OC_Start+0x8a>
 80046c4:	290c      	cmp	r1, #12
 80046c6:	d01f      	beq.n	8004708 <HAL_TIM_OC_Start+0x6c>
 80046c8:	2910      	cmp	r1, #16
 80046ca:	d1ee      	bne.n	80046aa <HAL_TIM_OC_Start+0xe>
 80046cc:	f890 3042 	ldrb.w	r3, [r0, #66]	; 0x42
 80046d0:	e00f      	b.n	80046f2 <HAL_TIM_OC_Start+0x56>
 80046d2:	f890 303e 	ldrb.w	r3, [r0, #62]	; 0x3e
 80046d6:	2b01      	cmp	r3, #1
 80046d8:	d022      	beq.n	8004720 <HAL_TIM_OC_Start+0x84>
 80046da:	2001      	movs	r0, #1
 80046dc:	e036      	b.n	800474c <HAL_TIM_OC_Start+0xb0>
 80046de:	f890 303f 	ldrb.w	r3, [r0, #63]	; 0x3f
 80046e2:	2b01      	cmp	r3, #1
 80046e4:	d1f9      	bne.n	80046da <HAL_TIM_OC_Start+0x3e>
 80046e6:	2302      	movs	r3, #2
 80046e8:	f880 303f 	strb.w	r3, [r0, #63]	; 0x3f
 80046ec:	e01b      	b.n	8004726 <HAL_TIM_OC_Start+0x8a>
 80046ee:	f890 3040 	ldrb.w	r3, [r0, #64]	; 0x40
 80046f2:	3b01      	subs	r3, #1
 80046f4:	bf18      	it	ne
 80046f6:	2301      	movne	r3, #1
 80046f8:	2b00      	cmp	r3, #0
 80046fa:	d1ee      	bne.n	80046da <HAL_TIM_OC_Start+0x3e>
 80046fc:	2908      	cmp	r1, #8
 80046fe:	d1d8      	bne.n	80046b2 <HAL_TIM_OC_Start+0x16>
 8004700:	2302      	movs	r3, #2
 8004702:	f880 3040 	strb.w	r3, [r0, #64]	; 0x40
 8004706:	e00e      	b.n	8004726 <HAL_TIM_OC_Start+0x8a>
 8004708:	f890 3041 	ldrb.w	r3, [r0, #65]	; 0x41
 800470c:	e7f1      	b.n	80046f2 <HAL_TIM_OC_Start+0x56>
 800470e:	290c      	cmp	r1, #12
 8004710:	f04f 0302 	mov.w	r3, #2
 8004714:	d01b      	beq.n	800474e <HAL_TIM_OC_Start+0xb2>
 8004716:	2910      	cmp	r1, #16
 8004718:	d1d0      	bne.n	80046bc <HAL_TIM_OC_Start+0x20>
 800471a:	f880 3042 	strb.w	r3, [r0, #66]	; 0x42
 800471e:	e002      	b.n	8004726 <HAL_TIM_OC_Start+0x8a>
 8004720:	2302      	movs	r3, #2
 8004722:	f880 303e 	strb.w	r3, [r0, #62]	; 0x3e
 8004726:	6800      	ldr	r0, [r0, #0]
 8004728:	2201      	movs	r2, #1
 800472a:	f7ff ffa8 	bl	800467e <TIM_CCxChannelCmd>
 800472e:	4a1d      	ldr	r2, [pc, #116]	; (80047a4 <HAL_TIM_OC_Start+0x108>)
 8004730:	4290      	cmp	r0, r2
 8004732:	d00f      	beq.n	8004754 <HAL_TIM_OC_Start+0xb8>
 8004734:	4b1c      	ldr	r3, [pc, #112]	; (80047a8 <HAL_TIM_OC_Start+0x10c>)
 8004736:	4298      	cmp	r0, r3
 8004738:	d00c      	beq.n	8004754 <HAL_TIM_OC_Start+0xb8>
 800473a:	f1b0 4f80 	cmp.w	r0, #1073741824	; 0x40000000
 800473e:	d110      	bne.n	8004762 <HAL_TIM_OC_Start+0xc6>
 8004740:	6882      	ldr	r2, [r0, #8]
 8004742:	4b1a      	ldr	r3, [pc, #104]	; (80047ac <HAL_TIM_OC_Start+0x110>)
 8004744:	4013      	ands	r3, r2
 8004746:	2b06      	cmp	r3, #6
 8004748:	d127      	bne.n	800479a <HAL_TIM_OC_Start+0xfe>
 800474a:	2000      	movs	r0, #0
 800474c:	bd08      	pop	{r3, pc}
 800474e:	f880 3041 	strb.w	r3, [r0, #65]	; 0x41
 8004752:	e7e8      	b.n	8004726 <HAL_TIM_OC_Start+0x8a>
 8004754:	6c43      	ldr	r3, [r0, #68]	; 0x44
 8004756:	4290      	cmp	r0, r2
 8004758:	f443 4300 	orr.w	r3, r3, #32768	; 0x8000
 800475c:	6443      	str	r3, [r0, #68]	; 0x44
 800475e:	d0ef      	beq.n	8004740 <HAL_TIM_OC_Start+0xa4>
 8004760:	e7eb      	b.n	800473a <HAL_TIM_OC_Start+0x9e>
 8004762:	4b13      	ldr	r3, [pc, #76]	; (80047b0 <HAL_TIM_OC_Start+0x114>)
 8004764:	4298      	cmp	r0, r3
 8004766:	d0eb      	beq.n	8004740 <HAL_TIM_OC_Start+0xa4>
 8004768:	f503 6380 	add.w	r3, r3, #1024	; 0x400
 800476c:	4298      	cmp	r0, r3
 800476e:	d0e7      	beq.n	8004740 <HAL_TIM_OC_Start+0xa4>
 8004770:	f503 6380 	add.w	r3, r3, #1024	; 0x400
 8004774:	4298      	cmp	r0, r3
 8004776:	d0e3      	beq.n	8004740 <HAL_TIM_OC_Start+0xa4>
 8004778:	f503 4378 	add.w	r3, r3, #63488	; 0xf800
 800477c:	4298      	cmp	r0, r3
 800477e:	d0df      	beq.n	8004740 <HAL_TIM_OC_Start+0xa4>
 8004780:	f503 5370 	add.w	r3, r3, #15360	; 0x3c00
 8004784:	4298      	cmp	r0, r3
 8004786:	d0db      	beq.n	8004740 <HAL_TIM_OC_Start+0xa4>
 8004788:	f5a3 3394 	sub.w	r3, r3, #75776	; 0x12800
 800478c:	4298      	cmp	r0, r3
 800478e:	d0d7      	beq.n	8004740 <HAL_TIM_OC_Start+0xa4>
 8004790:	6803      	ldr	r3, [r0, #0]
 8004792:	f043 0301 	orr.w	r3, r3, #1
 8004796:	6003      	str	r3, [r0, #0]
 8004798:	e7d7      	b.n	800474a <HAL_TIM_OC_Start+0xae>
 800479a:	f5b3 3f80 	cmp.w	r3, #65536	; 0x10000
 800479e:	d1f7      	bne.n	8004790 <HAL_TIM_OC_Start+0xf4>
 80047a0:	e7d3      	b.n	800474a <HAL_TIM_OC_Start+0xae>
 80047a2:	bf00      	nop
 80047a4:	40010000 	.word	0x40010000
 80047a8:	40010400 	.word	0x40010400
 80047ac:	00010007 	.word	0x00010007
 80047b0:	40000400 	.word	0x40000400

080047b4 <HAL_TIM_PWM_Start>:
 80047b4:	f7ff bf72 	b.w	800469c <HAL_TIM_OC_Start>

080047b8 <HAL_TIMEx_MasterConfigSynchronization>:
 80047b8:	b570      	push	{r4, r5, r6, lr}
 80047ba:	f890 303c 	ldrb.w	r3, [r0, #60]	; 0x3c
 80047be:	2b01      	cmp	r3, #1
 80047c0:	f04f 0302 	mov.w	r3, #2
 80047c4:	d03b      	beq.n	800483e <HAL_TIMEx_MasterConfigSynchronization+0x86>
 80047c6:	f880 303d 	strb.w	r3, [r0, #61]	; 0x3d
 80047ca:	4d1e      	ldr	r5, [pc, #120]	; (8004844 <HAL_TIMEx_MasterConfigSynchronization+0x8c>)
 80047cc:	6803      	ldr	r3, [r0, #0]
 80047ce:	42ab      	cmp	r3, r5
 80047d0:	685a      	ldr	r2, [r3, #4]
 80047d2:	689c      	ldr	r4, [r3, #8]
 80047d4:	d002      	beq.n	80047dc <HAL_TIMEx_MasterConfigSynchronization+0x24>
 80047d6:	4e1c      	ldr	r6, [pc, #112]	; (8004848 <HAL_TIMEx_MasterConfigSynchronization+0x90>)
 80047d8:	42b3      	cmp	r3, r6
 80047da:	d103      	bne.n	80047e4 <HAL_TIMEx_MasterConfigSynchronization+0x2c>
 80047dc:	f422 0270 	bic.w	r2, r2, #15728640	; 0xf00000
 80047e0:	684e      	ldr	r6, [r1, #4]
 80047e2:	4332      	orrs	r2, r6
 80047e4:	680e      	ldr	r6, [r1, #0]
 80047e6:	f022 0270 	bic.w	r2, r2, #112	; 0x70
 80047ea:	42ab      	cmp	r3, r5
 80047ec:	ea42 0206 	orr.w	r2, r2, r6
 80047f0:	605a      	str	r2, [r3, #4]
 80047f2:	d019      	beq.n	8004828 <HAL_TIMEx_MasterConfigSynchronization+0x70>
 80047f4:	f1b3 4f80 	cmp.w	r3, #1073741824	; 0x40000000
 80047f8:	d016      	beq.n	8004828 <HAL_TIMEx_MasterConfigSynchronization+0x70>
 80047fa:	4a14      	ldr	r2, [pc, #80]	; (800484c <HAL_TIMEx_MasterConfigSynchronization+0x94>)
 80047fc:	4293      	cmp	r3, r2
 80047fe:	d013      	beq.n	8004828 <HAL_TIMEx_MasterConfigSynchronization+0x70>
 8004800:	f502 6280 	add.w	r2, r2, #1024	; 0x400
 8004804:	4293      	cmp	r3, r2
 8004806:	d00f      	beq.n	8004828 <HAL_TIMEx_MasterConfigSynchronization+0x70>
 8004808:	f502 6280 	add.w	r2, r2, #1024	; 0x400
 800480c:	4293      	cmp	r3, r2
 800480e:	d00b      	beq.n	8004828 <HAL_TIMEx_MasterConfigSynchronization+0x70>
 8004810:	f502 4278 	add.w	r2, r2, #63488	; 0xf800
 8004814:	4293      	cmp	r3, r2
 8004816:	d007      	beq.n	8004828 <HAL_TIMEx_MasterConfigSynchronization+0x70>
 8004818:	f502 5270 	add.w	r2, r2, #15360	; 0x3c00
 800481c:	4293      	cmp	r3, r2
 800481e:	d003      	beq.n	8004828 <HAL_TIMEx_MasterConfigSynchronization+0x70>
 8004820:	f5a2 3294 	sub.w	r2, r2, #75776	; 0x12800
 8004824:	4293      	cmp	r3, r2
 8004826:	d104      	bne.n	8004832 <HAL_TIMEx_MasterConfigSynchronization+0x7a>
 8004828:	6889      	ldr	r1, [r1, #8]
 800482a:	f024 0280 	bic.w	r2, r4, #128	; 0x80
 800482e:	430a      	orrs	r2, r1
 8004830:	609a      	str	r2, [r3, #8]
 8004832:	2301      	movs	r3, #1
 8004834:	f880 303d 	strb.w	r3, [r0, #61]	; 0x3d
 8004838:	2300      	movs	r3, #0
 800483a:	f880 303c 	strb.w	r3, [r0, #60]	; 0x3c
 800483e:	4618      	mov	r0, r3
 8004840:	bd70      	pop	{r4, r5, r6, pc}
 8004842:	bf00      	nop
 8004844:	40010000 	.word	0x40010000
 8004848:	40010400 	.word	0x40010400
 800484c:	40000400 	.word	0x40000400

08004850 <HAL_TIMEx_CommutCallback>:
 8004850:	4770      	bx	lr

08004852 <HAL_TIMEx_BreakCallback>:
 8004852:	4770      	bx	lr

08004854 <HAL_TIMEx_Break2Callback>:
 8004854:	4770      	bx	lr

08004856 <UART_EndRxTransfer>:
 8004856:	6802      	ldr	r2, [r0, #0]
 8004858:	e852 3f00 	ldrex	r3, [r2]
 800485c:	f423 7390 	bic.w	r3, r3, #288	; 0x120
 8004860:	e842 3100 	strex	r1, r3, [r2]
 8004864:	6802      	ldr	r2, [r0, #0]
 8004866:	2900      	cmp	r1, #0
 8004868:	d1f5      	bne.n	8004856 <UART_EndRxTransfer>
 800486a:	f102 0308 	add.w	r3, r2, #8
 800486e:	e853 3f00 	ldrex	r3, [r3]
 8004872:	f023 0301 	bic.w	r3, r3, #1
 8004876:	f102 0c08 	add.w	ip, r2, #8
 800487a:	e84c 3100 	strex	r1, r3, [ip]
 800487e:	2900      	cmp	r1, #0
 8004880:	d1f3      	bne.n	800486a <UART_EndRxTransfer+0x14>
 8004882:	6e03      	ldr	r3, [r0, #96]	; 0x60
 8004884:	2b01      	cmp	r3, #1
 8004886:	d107      	bne.n	8004898 <UART_EndRxTransfer+0x42>
 8004888:	e852 3f00 	ldrex	r3, [r2]
 800488c:	f023 0310 	bic.w	r3, r3, #16
 8004890:	e842 3100 	strex	r1, r3, [r2]
 8004894:	2900      	cmp	r1, #0
 8004896:	d1f7      	bne.n	8004888 <UART_EndRxTransfer+0x32>
 8004898:	2320      	movs	r3, #32
 800489a:	f8c0 3080 	str.w	r3, [r0, #128]	; 0x80
 800489e:	2300      	movs	r3, #0
 80048a0:	6603      	str	r3, [r0, #96]	; 0x60
 80048a2:	6683      	str	r3, [r0, #104]	; 0x68
 80048a4:	4770      	bx	lr

080048a6 <HAL_UART_TxCpltCallback>:
 80048a6:	4770      	bx	lr

080048a8 <HAL_UART_ErrorCallback>:
 80048a8:	4770      	bx	lr

080048aa <UART_DMAAbortOnError>:
 80048aa:	b508      	push	{r3, lr}
 80048ac:	6b80      	ldr	r0, [r0, #56]	; 0x38
 80048ae:	2300      	movs	r3, #0
 80048b0:	f8a0 305a 	strh.w	r3, [r0, #90]	; 0x5a
 80048b4:	f8a0 3052 	strh.w	r3, [r0, #82]	; 0x52
 80048b8:	f7ff fff6 	bl	80048a8 <HAL_UART_ErrorCallback>
 80048bc:	bd08      	pop	{r3, pc}

080048be <HAL_UARTEx_RxEventCallback>:
 80048be:	4770      	bx	lr

080048c0 <UART_RxISR_8BIT>:
 80048c0:	f8d0 2080 	ldr.w	r2, [r0, #128]	; 0x80
 80048c4:	f8b0 105c 	ldrh.w	r1, [r0, #92]	; 0x5c
 80048c8:	2a22      	cmp	r2, #34	; 0x22
 80048ca:	b508      	push	{r3, lr}
 80048cc:	6803      	ldr	r3, [r0, #0]
 80048ce:	d143      	bne.n	8004958 <UART_RxISR_8BIT+0x98>
 80048d0:	6a5b      	ldr	r3, [r3, #36]	; 0x24
 80048d2:	6d42      	ldr	r2, [r0, #84]	; 0x54
 80048d4:	400b      	ands	r3, r1
 80048d6:	7013      	strb	r3, [r2, #0]
 80048d8:	6d43      	ldr	r3, [r0, #84]	; 0x54
 80048da:	3301      	adds	r3, #1
 80048dc:	6543      	str	r3, [r0, #84]	; 0x54
 80048de:	f8b0 305a 	ldrh.w	r3, [r0, #90]	; 0x5a
 80048e2:	3b01      	subs	r3, #1
 80048e4:	b29b      	uxth	r3, r3
 80048e6:	f8a0 305a 	strh.w	r3, [r0, #90]	; 0x5a
 80048ea:	f8b0 305a 	ldrh.w	r3, [r0, #90]	; 0x5a
 80048ee:	b29b      	uxth	r3, r3
 80048f0:	bb73      	cbnz	r3, 8004950 <UART_RxISR_8BIT+0x90>
 80048f2:	6802      	ldr	r2, [r0, #0]
 80048f4:	e852 3f00 	ldrex	r3, [r2]
 80048f8:	f423 7390 	bic.w	r3, r3, #288	; 0x120
 80048fc:	e842 3100 	strex	r1, r3, [r2]
 8004900:	6803      	ldr	r3, [r0, #0]
 8004902:	2900      	cmp	r1, #0
 8004904:	d1f5      	bne.n	80048f2 <UART_RxISR_8BIT+0x32>
 8004906:	f103 0208 	add.w	r2, r3, #8
 800490a:	e852 1f00 	ldrex	r1, [r2]
 800490e:	f021 0101 	bic.w	r1, r1, #1
 8004912:	4694      	mov	ip, r2
 8004914:	e84c 1200 	strex	r2, r1, [ip]
 8004918:	2a00      	cmp	r2, #0
 800491a:	d1f4      	bne.n	8004906 <UART_RxISR_8BIT+0x46>
 800491c:	2120      	movs	r1, #32
 800491e:	6682      	str	r2, [r0, #104]	; 0x68
 8004920:	f8c0 1080 	str.w	r1, [r0, #128]	; 0x80
 8004924:	6642      	str	r2, [r0, #100]	; 0x64
 8004926:	6e01      	ldr	r1, [r0, #96]	; 0x60
 8004928:	2901      	cmp	r1, #1
 800492a:	d112      	bne.n	8004952 <UART_RxISR_8BIT+0x92>
 800492c:	6602      	str	r2, [r0, #96]	; 0x60
 800492e:	e853 2f00 	ldrex	r2, [r3]
 8004932:	f022 0210 	bic.w	r2, r2, #16
 8004936:	e843 2100 	strex	r1, r2, [r3]
 800493a:	2900      	cmp	r1, #0
 800493c:	d1f7      	bne.n	800492e <UART_RxISR_8BIT+0x6e>
 800493e:	69da      	ldr	r2, [r3, #28]
 8004940:	06d2      	lsls	r2, r2, #27
 8004942:	d501      	bpl.n	8004948 <UART_RxISR_8BIT+0x88>
 8004944:	2210      	movs	r2, #16
 8004946:	621a      	str	r2, [r3, #32]
 8004948:	f8b0 1058 	ldrh.w	r1, [r0, #88]	; 0x58
 800494c:	f7ff ffb7 	bl	80048be <HAL_UARTEx_RxEventCallback>
 8004950:	bd08      	pop	{r3, pc}
 8004952:	f7fc fe99 	bl	8001688 <HAL_UART_RxCpltCallback>
 8004956:	e7fb      	b.n	8004950 <UART_RxISR_8BIT+0x90>
 8004958:	699a      	ldr	r2, [r3, #24]
 800495a:	f042 0208 	orr.w	r2, r2, #8
 800495e:	619a      	str	r2, [r3, #24]
 8004960:	e7f6      	b.n	8004950 <UART_RxISR_8BIT+0x90>

08004962 <UART_RxISR_16BIT>:
 8004962:	f8d0 2080 	ldr.w	r2, [r0, #128]	; 0x80
 8004966:	f8b0 105c 	ldrh.w	r1, [r0, #92]	; 0x5c
 800496a:	2a22      	cmp	r2, #34	; 0x22
 800496c:	b508      	push	{r3, lr}
 800496e:	6803      	ldr	r3, [r0, #0]
 8004970:	d140      	bne.n	80049f4 <UART_RxISR_16BIT+0x92>
 8004972:	6a5a      	ldr	r2, [r3, #36]	; 0x24
 8004974:	4011      	ands	r1, r2
 8004976:	6d42      	ldr	r2, [r0, #84]	; 0x54
 8004978:	f822 1b02 	strh.w	r1, [r2], #2
 800497c:	6542      	str	r2, [r0, #84]	; 0x54
 800497e:	f8b0 205a 	ldrh.w	r2, [r0, #90]	; 0x5a
 8004982:	3a01      	subs	r2, #1
 8004984:	b292      	uxth	r2, r2
 8004986:	f8a0 205a 	strh.w	r2, [r0, #90]	; 0x5a
 800498a:	f8b0 205a 	ldrh.w	r2, [r0, #90]	; 0x5a
 800498e:	b292      	uxth	r2, r2
 8004990:	bb62      	cbnz	r2, 80049ec <UART_RxISR_16BIT+0x8a>
 8004992:	e853 2f00 	ldrex	r2, [r3]
 8004996:	f422 7290 	bic.w	r2, r2, #288	; 0x120
 800499a:	e843 2100 	strex	r1, r2, [r3]
 800499e:	2900      	cmp	r1, #0
 80049a0:	d1f7      	bne.n	8004992 <UART_RxISR_16BIT+0x30>
 80049a2:	f103 0208 	add.w	r2, r3, #8
 80049a6:	e852 1f00 	ldrex	r1, [r2]
 80049aa:	f021 0101 	bic.w	r1, r1, #1
 80049ae:	4694      	mov	ip, r2
 80049b0:	e84c 1200 	strex	r2, r1, [ip]
 80049b4:	2a00      	cmp	r2, #0
 80049b6:	d1f4      	bne.n	80049a2 <UART_RxISR_16BIT+0x40>
 80049b8:	2120      	movs	r1, #32
 80049ba:	6682      	str	r2, [r0, #104]	; 0x68
 80049bc:	f8c0 1080 	str.w	r1, [r0, #128]	; 0x80
 80049c0:	6642      	str	r2, [r0, #100]	; 0x64
 80049c2:	6e01      	ldr	r1, [r0, #96]	; 0x60
 80049c4:	2901      	cmp	r1, #1
 80049c6:	d112      	bne.n	80049ee <UART_RxISR_16BIT+0x8c>
 80049c8:	6602      	str	r2, [r0, #96]	; 0x60
 80049ca:	e853 2f00 	ldrex	r2, [r3]
 80049ce:	f022 0210 	bic.w	r2, r2, #16
 80049d2:	e843 2100 	strex	r1, r2, [r3]
 80049d6:	2900      	cmp	r1, #0
 80049d8:	d1f7      	bne.n	80049ca <UART_RxISR_16BIT+0x68>
 80049da:	69da      	ldr	r2, [r3, #28]
 80049dc:	06d2      	lsls	r2, r2, #27
 80049de:	d501      	bpl.n	80049e4 <UART_RxISR_16BIT+0x82>
 80049e0:	2210      	movs	r2, #16
 80049e2:	621a      	str	r2, [r3, #32]
 80049e4:	f8b0 1058 	ldrh.w	r1, [r0, #88]	; 0x58
 80049e8:	f7ff ff69 	bl	80048be <HAL_UARTEx_RxEventCallback>
 80049ec:	bd08      	pop	{r3, pc}
 80049ee:	f7fc fe4b 	bl	8001688 <HAL_UART_RxCpltCallback>
 80049f2:	e7fb      	b.n	80049ec <UART_RxISR_16BIT+0x8a>
 80049f4:	699a      	ldr	r2, [r3, #24]
 80049f6:	f042 0208 	orr.w	r2, r2, #8
 80049fa:	619a      	str	r2, [r3, #24]
 80049fc:	e7f6      	b.n	80049ec <UART_RxISR_16BIT+0x8a>

080049fe <HAL_UARTEx_WakeupCallback>:
 80049fe:	4770      	bx	lr

08004a00 <HAL_UART_IRQHandler>:
 8004a00:	6803      	ldr	r3, [r0, #0]
 8004a02:	b570      	push	{r4, r5, r6, lr}
 8004a04:	69da      	ldr	r2, [r3, #28]
 8004a06:	f640 060f 	movw	r6, #2063	; 0x80f
 8004a0a:	6819      	ldr	r1, [r3, #0]
 8004a0c:	4604      	mov	r4, r0
 8004a0e:	4232      	tst	r2, r6
 8004a10:	689d      	ldr	r5, [r3, #8]
 8004a12:	d10b      	bne.n	8004a2c <HAL_UART_IRQHandler+0x2c>
 8004a14:	0696      	lsls	r6, r2, #26
 8004a16:	f140 8088 	bpl.w	8004b2a <HAL_UART_IRQHandler+0x12a>
 8004a1a:	068e      	lsls	r6, r1, #26
 8004a1c:	f140 8085 	bpl.w	8004b2a <HAL_UART_IRQHandler+0x12a>
 8004a20:	6e83      	ldr	r3, [r0, #104]	; 0x68
 8004a22:	2b00      	cmp	r3, #0
 8004a24:	d07b      	beq.n	8004b1e <HAL_UART_IRQHandler+0x11e>
 8004a26:	e8bd 4070 	ldmia.w	sp!, {r4, r5, r6, lr}
 8004a2a:	4718      	bx	r3
 8004a2c:	4e9a      	ldr	r6, [pc, #616]	; (8004c98 <HAL_UART_IRQHandler+0x298>)
 8004a2e:	f005 0001 	and.w	r0, r5, #1
 8004a32:	400e      	ands	r6, r1
 8004a34:	4306      	orrs	r6, r0
 8004a36:	d078      	beq.n	8004b2a <HAL_UART_IRQHandler+0x12a>
 8004a38:	07d5      	lsls	r5, r2, #31
 8004a3a:	d509      	bpl.n	8004a50 <HAL_UART_IRQHandler+0x50>
 8004a3c:	05ce      	lsls	r6, r1, #23
 8004a3e:	d507      	bpl.n	8004a50 <HAL_UART_IRQHandler+0x50>
 8004a40:	2501      	movs	r5, #1
 8004a42:	621d      	str	r5, [r3, #32]
 8004a44:	f8d4 5084 	ldr.w	r5, [r4, #132]	; 0x84
 8004a48:	f045 0501 	orr.w	r5, r5, #1
 8004a4c:	f8c4 5084 	str.w	r5, [r4, #132]	; 0x84
 8004a50:	0795      	lsls	r5, r2, #30
 8004a52:	d508      	bpl.n	8004a66 <HAL_UART_IRQHandler+0x66>
 8004a54:	b138      	cbz	r0, 8004a66 <HAL_UART_IRQHandler+0x66>
 8004a56:	2502      	movs	r5, #2
 8004a58:	621d      	str	r5, [r3, #32]
 8004a5a:	f8d4 5084 	ldr.w	r5, [r4, #132]	; 0x84
 8004a5e:	f045 0504 	orr.w	r5, r5, #4
 8004a62:	f8c4 5084 	str.w	r5, [r4, #132]	; 0x84
 8004a66:	0756      	lsls	r6, r2, #29
 8004a68:	d508      	bpl.n	8004a7c <HAL_UART_IRQHandler+0x7c>
 8004a6a:	b138      	cbz	r0, 8004a7c <HAL_UART_IRQHandler+0x7c>
 8004a6c:	2504      	movs	r5, #4
 8004a6e:	621d      	str	r5, [r3, #32]
 8004a70:	f8d4 5084 	ldr.w	r5, [r4, #132]	; 0x84
 8004a74:	f045 0502 	orr.w	r5, r5, #2
 8004a78:	f8c4 5084 	str.w	r5, [r4, #132]	; 0x84
 8004a7c:	0715      	lsls	r5, r2, #28
 8004a7e:	d50b      	bpl.n	8004a98 <HAL_UART_IRQHandler+0x98>
 8004a80:	f001 0520 	and.w	r5, r1, #32
 8004a84:	4305      	orrs	r5, r0
 8004a86:	d007      	beq.n	8004a98 <HAL_UART_IRQHandler+0x98>
 8004a88:	2008      	movs	r0, #8
 8004a8a:	6218      	str	r0, [r3, #32]
 8004a8c:	f8d4 0084 	ldr.w	r0, [r4, #132]	; 0x84
 8004a90:	f040 0008 	orr.w	r0, r0, #8
 8004a94:	f8c4 0084 	str.w	r0, [r4, #132]	; 0x84
 8004a98:	0516      	lsls	r6, r2, #20
 8004a9a:	d50a      	bpl.n	8004ab2 <HAL_UART_IRQHandler+0xb2>
 8004a9c:	014d      	lsls	r5, r1, #5
 8004a9e:	d508      	bpl.n	8004ab2 <HAL_UART_IRQHandler+0xb2>
 8004aa0:	f44f 6000 	mov.w	r0, #2048	; 0x800
 8004aa4:	6218      	str	r0, [r3, #32]
 8004aa6:	f8d4 3084 	ldr.w	r3, [r4, #132]	; 0x84
 8004aaa:	f043 0320 	orr.w	r3, r3, #32
 8004aae:	f8c4 3084 	str.w	r3, [r4, #132]	; 0x84
 8004ab2:	f8d4 3084 	ldr.w	r3, [r4, #132]	; 0x84
 8004ab6:	2b00      	cmp	r3, #0
 8004ab8:	d031      	beq.n	8004b1e <HAL_UART_IRQHandler+0x11e>
 8004aba:	0690      	lsls	r0, r2, #26
 8004abc:	d505      	bpl.n	8004aca <HAL_UART_IRQHandler+0xca>
 8004abe:	068a      	lsls	r2, r1, #26
 8004ac0:	d503      	bpl.n	8004aca <HAL_UART_IRQHandler+0xca>
 8004ac2:	6ea3      	ldr	r3, [r4, #104]	; 0x68
 8004ac4:	b10b      	cbz	r3, 8004aca <HAL_UART_IRQHandler+0xca>
 8004ac6:	4620      	mov	r0, r4
 8004ac8:	4798      	blx	r3
 8004aca:	6826      	ldr	r6, [r4, #0]
 8004acc:	4620      	mov	r0, r4
 8004ace:	f8d4 2084 	ldr.w	r2, [r4, #132]	; 0x84
 8004ad2:	68b3      	ldr	r3, [r6, #8]
 8004ad4:	f002 0228 	and.w	r2, r2, #40	; 0x28
 8004ad8:	f003 0340 	and.w	r3, r3, #64	; 0x40
 8004adc:	ea53 0502 	orrs.w	r5, r3, r2
 8004ae0:	d01e      	beq.n	8004b20 <HAL_UART_IRQHandler+0x120>
 8004ae2:	f7ff feb8 	bl	8004856 <UART_EndRxTransfer>
 8004ae6:	68b3      	ldr	r3, [r6, #8]
 8004ae8:	065b      	lsls	r3, r3, #25
 8004aea:	d515      	bpl.n	8004b18 <HAL_UART_IRQHandler+0x118>
 8004aec:	6822      	ldr	r2, [r4, #0]
 8004aee:	f102 0308 	add.w	r3, r2, #8
 8004af2:	e853 3f00 	ldrex	r3, [r3]
 8004af6:	f023 0340 	bic.w	r3, r3, #64	; 0x40
 8004afa:	3208      	adds	r2, #8
 8004afc:	e842 3100 	strex	r1, r3, [r2]
 8004b00:	2900      	cmp	r1, #0
 8004b02:	d1f3      	bne.n	8004aec <HAL_UART_IRQHandler+0xec>
 8004b04:	6f60      	ldr	r0, [r4, #116]	; 0x74
 8004b06:	b138      	cbz	r0, 8004b18 <HAL_UART_IRQHandler+0x118>
 8004b08:	4b64      	ldr	r3, [pc, #400]	; (8004c9c <HAL_UART_IRQHandler+0x29c>)
 8004b0a:	6503      	str	r3, [r0, #80]	; 0x50
 8004b0c:	f7fd fd62 	bl	80025d4 <HAL_DMA_Abort_IT>
 8004b10:	b128      	cbz	r0, 8004b1e <HAL_UART_IRQHandler+0x11e>
 8004b12:	6f60      	ldr	r0, [r4, #116]	; 0x74
 8004b14:	6d03      	ldr	r3, [r0, #80]	; 0x50
 8004b16:	e786      	b.n	8004a26 <HAL_UART_IRQHandler+0x26>
 8004b18:	4620      	mov	r0, r4
 8004b1a:	f7ff fec5 	bl	80048a8 <HAL_UART_ErrorCallback>
 8004b1e:	bd70      	pop	{r4, r5, r6, pc}
 8004b20:	f7ff fec2 	bl	80048a8 <HAL_UART_ErrorCallback>
 8004b24:	f8c4 5084 	str.w	r5, [r4, #132]	; 0x84
 8004b28:	e7f9      	b.n	8004b1e <HAL_UART_IRQHandler+0x11e>
 8004b2a:	6e20      	ldr	r0, [r4, #96]	; 0x60
 8004b2c:	2801      	cmp	r0, #1
 8004b2e:	f040 8088 	bne.w	8004c42 <HAL_UART_IRQHandler+0x242>
 8004b32:	06d6      	lsls	r6, r2, #27
 8004b34:	f140 8085 	bpl.w	8004c42 <HAL_UART_IRQHandler+0x242>
 8004b38:	06c8      	lsls	r0, r1, #27
 8004b3a:	f140 8082 	bpl.w	8004c42 <HAL_UART_IRQHandler+0x242>
 8004b3e:	2210      	movs	r2, #16
 8004b40:	621a      	str	r2, [r3, #32]
 8004b42:	689a      	ldr	r2, [r3, #8]
 8004b44:	0652      	lsls	r2, r2, #25
 8004b46:	d54a      	bpl.n	8004bde <HAL_UART_IRQHandler+0x1de>
 8004b48:	6f61      	ldr	r1, [r4, #116]	; 0x74
 8004b4a:	680a      	ldr	r2, [r1, #0]
 8004b4c:	6852      	ldr	r2, [r2, #4]
 8004b4e:	b292      	uxth	r2, r2
 8004b50:	2a00      	cmp	r2, #0
 8004b52:	d0e4      	beq.n	8004b1e <HAL_UART_IRQHandler+0x11e>
 8004b54:	f8b4 0058 	ldrh.w	r0, [r4, #88]	; 0x58
 8004b58:	4290      	cmp	r0, r2
 8004b5a:	d9e0      	bls.n	8004b1e <HAL_UART_IRQHandler+0x11e>
 8004b5c:	f8a4 205a 	strh.w	r2, [r4, #90]	; 0x5a
 8004b60:	69ca      	ldr	r2, [r1, #28]
 8004b62:	f5b2 7f80 	cmp.w	r2, #256	; 0x100
 8004b66:	d02e      	beq.n	8004bc6 <HAL_UART_IRQHandler+0x1c6>
 8004b68:	e853 2f00 	ldrex	r2, [r3]
 8004b6c:	f422 7280 	bic.w	r2, r2, #256	; 0x100
 8004b70:	e843 2100 	strex	r1, r2, [r3]
 8004b74:	2900      	cmp	r1, #0
 8004b76:	d1f7      	bne.n	8004b68 <HAL_UART_IRQHandler+0x168>
 8004b78:	f103 0208 	add.w	r2, r3, #8
 8004b7c:	e852 2f00 	ldrex	r2, [r2]
 8004b80:	f022 0201 	bic.w	r2, r2, #1
 8004b84:	f103 0008 	add.w	r0, r3, #8
 8004b88:	e840 2100 	strex	r1, r2, [r0]
 8004b8c:	2900      	cmp	r1, #0
 8004b8e:	d1f3      	bne.n	8004b78 <HAL_UART_IRQHandler+0x178>
 8004b90:	f103 0208 	add.w	r2, r3, #8
 8004b94:	e852 2f00 	ldrex	r2, [r2]
 8004b98:	f022 0240 	bic.w	r2, r2, #64	; 0x40
 8004b9c:	f103 0008 	add.w	r0, r3, #8
 8004ba0:	e840 2100 	strex	r1, r2, [r0]
 8004ba4:	2900      	cmp	r1, #0
 8004ba6:	d1f3      	bne.n	8004b90 <HAL_UART_IRQHandler+0x190>
 8004ba8:	2220      	movs	r2, #32
 8004baa:	f8c4 2080 	str.w	r2, [r4, #128]	; 0x80
 8004bae:	6621      	str	r1, [r4, #96]	; 0x60
 8004bb0:	e853 2f00 	ldrex	r2, [r3]
 8004bb4:	f022 0210 	bic.w	r2, r2, #16
 8004bb8:	e843 2100 	strex	r1, r2, [r3]
 8004bbc:	2900      	cmp	r1, #0
 8004bbe:	d1f7      	bne.n	8004bb0 <HAL_UART_IRQHandler+0x1b0>
 8004bc0:	6f60      	ldr	r0, [r4, #116]	; 0x74
 8004bc2:	f7fd fcc8 	bl	8002556 <HAL_DMA_Abort>
 8004bc6:	2302      	movs	r3, #2
 8004bc8:	f8b4 1058 	ldrh.w	r1, [r4, #88]	; 0x58
 8004bcc:	6663      	str	r3, [r4, #100]	; 0x64
 8004bce:	f8b4 305a 	ldrh.w	r3, [r4, #90]	; 0x5a
 8004bd2:	1ac9      	subs	r1, r1, r3
 8004bd4:	b289      	uxth	r1, r1
 8004bd6:	4620      	mov	r0, r4
 8004bd8:	f7ff fe71 	bl	80048be <HAL_UARTEx_RxEventCallback>
 8004bdc:	e79f      	b.n	8004b1e <HAL_UART_IRQHandler+0x11e>
 8004bde:	f8b4 205a 	ldrh.w	r2, [r4, #90]	; 0x5a
 8004be2:	f8b4 005a 	ldrh.w	r0, [r4, #90]	; 0x5a
 8004be6:	f8b4 1058 	ldrh.w	r1, [r4, #88]	; 0x58
 8004bea:	b292      	uxth	r2, r2
 8004bec:	b280      	uxth	r0, r0
 8004bee:	2800      	cmp	r0, #0
 8004bf0:	d095      	beq.n	8004b1e <HAL_UART_IRQHandler+0x11e>
 8004bf2:	1a89      	subs	r1, r1, r2
 8004bf4:	b289      	uxth	r1, r1
 8004bf6:	2900      	cmp	r1, #0
 8004bf8:	d091      	beq.n	8004b1e <HAL_UART_IRQHandler+0x11e>
 8004bfa:	e853 2f00 	ldrex	r2, [r3]
 8004bfe:	f422 7290 	bic.w	r2, r2, #288	; 0x120
 8004c02:	e843 2000 	strex	r0, r2, [r3]
 8004c06:	2800      	cmp	r0, #0
 8004c08:	d1f7      	bne.n	8004bfa <HAL_UART_IRQHandler+0x1fa>
 8004c0a:	f103 0208 	add.w	r2, r3, #8
 8004c0e:	e852 2f00 	ldrex	r2, [r2]
 8004c12:	f022 0201 	bic.w	r2, r2, #1
 8004c16:	f103 0508 	add.w	r5, r3, #8
 8004c1a:	e845 2000 	strex	r0, r2, [r5]
 8004c1e:	2800      	cmp	r0, #0
 8004c20:	d1f3      	bne.n	8004c0a <HAL_UART_IRQHandler+0x20a>
 8004c22:	2220      	movs	r2, #32
 8004c24:	66a0      	str	r0, [r4, #104]	; 0x68
 8004c26:	f8c4 2080 	str.w	r2, [r4, #128]	; 0x80
 8004c2a:	6620      	str	r0, [r4, #96]	; 0x60
 8004c2c:	e853 2f00 	ldrex	r2, [r3]
 8004c30:	f022 0210 	bic.w	r2, r2, #16
 8004c34:	e843 2000 	strex	r0, r2, [r3]
 8004c38:	2800      	cmp	r0, #0
 8004c3a:	d1f7      	bne.n	8004c2c <HAL_UART_IRQHandler+0x22c>
 8004c3c:	2302      	movs	r3, #2
 8004c3e:	6663      	str	r3, [r4, #100]	; 0x64
 8004c40:	e7c9      	b.n	8004bd6 <HAL_UART_IRQHandler+0x1d6>
 8004c42:	02d6      	lsls	r6, r2, #11
 8004c44:	d508      	bpl.n	8004c58 <HAL_UART_IRQHandler+0x258>
 8004c46:	0268      	lsls	r0, r5, #9
 8004c48:	d506      	bpl.n	8004c58 <HAL_UART_IRQHandler+0x258>
 8004c4a:	f44f 1280 	mov.w	r2, #1048576	; 0x100000
 8004c4e:	4620      	mov	r0, r4
 8004c50:	621a      	str	r2, [r3, #32]
 8004c52:	f7ff fed4 	bl	80049fe <HAL_UARTEx_WakeupCallback>
 8004c56:	e762      	b.n	8004b1e <HAL_UART_IRQHandler+0x11e>
 8004c58:	0616      	lsls	r6, r2, #24
 8004c5a:	d507      	bpl.n	8004c6c <HAL_UART_IRQHandler+0x26c>
 8004c5c:	060d      	lsls	r5, r1, #24
 8004c5e:	d505      	bpl.n	8004c6c <HAL_UART_IRQHandler+0x26c>
 8004c60:	6ee3      	ldr	r3, [r4, #108]	; 0x6c
 8004c62:	2b00      	cmp	r3, #0
 8004c64:	f43f af5b 	beq.w	8004b1e <HAL_UART_IRQHandler+0x11e>
 8004c68:	4620      	mov	r0, r4
 8004c6a:	e6dc      	b.n	8004a26 <HAL_UART_IRQHandler+0x26>
 8004c6c:	0650      	lsls	r0, r2, #25
 8004c6e:	f57f af56 	bpl.w	8004b1e <HAL_UART_IRQHandler+0x11e>
 8004c72:	064a      	lsls	r2, r1, #25
 8004c74:	f57f af53 	bpl.w	8004b1e <HAL_UART_IRQHandler+0x11e>
 8004c78:	e853 2f00 	ldrex	r2, [r3]
 8004c7c:	f022 0240 	bic.w	r2, r2, #64	; 0x40
 8004c80:	e843 2100 	strex	r1, r2, [r3]
 8004c84:	2900      	cmp	r1, #0
 8004c86:	d1f7      	bne.n	8004c78 <HAL_UART_IRQHandler+0x278>
 8004c88:	2320      	movs	r3, #32
 8004c8a:	4620      	mov	r0, r4
 8004c8c:	66e1      	str	r1, [r4, #108]	; 0x6c
 8004c8e:	67e3      	str	r3, [r4, #124]	; 0x7c
 8004c90:	f7ff fe09 	bl	80048a6 <HAL_UART_TxCpltCallback>
 8004c94:	e743      	b.n	8004b1e <HAL_UART_IRQHandler+0x11e>
 8004c96:	bf00      	nop
 8004c98:	04000120 	.word	0x04000120
 8004c9c:	080048ab 	.word	0x080048ab

08004ca0 <UART_SetConfig>:
 8004ca0:	b538      	push	{r3, r4, r5, lr}
 8004ca2:	4604      	mov	r4, r0
 8004ca4:	69c0      	ldr	r0, [r0, #28]
 8004ca6:	6921      	ldr	r1, [r4, #16]
 8004ca8:	68a2      	ldr	r2, [r4, #8]
 8004caa:	6823      	ldr	r3, [r4, #0]
 8004cac:	430a      	orrs	r2, r1
 8004cae:	6961      	ldr	r1, [r4, #20]
 8004cb0:	681d      	ldr	r5, [r3, #0]
 8004cb2:	430a      	orrs	r2, r1
 8004cb4:	498e      	ldr	r1, [pc, #568]	; (8004ef0 <UART_SetConfig+0x250>)
 8004cb6:	4302      	orrs	r2, r0
 8004cb8:	4029      	ands	r1, r5
 8004cba:	6a25      	ldr	r5, [r4, #32]
 8004cbc:	430a      	orrs	r2, r1
 8004cbe:	68e1      	ldr	r1, [r4, #12]
 8004cc0:	601a      	str	r2, [r3, #0]
 8004cc2:	685a      	ldr	r2, [r3, #4]
 8004cc4:	f422 5240 	bic.w	r2, r2, #12288	; 0x3000
 8004cc8:	430a      	orrs	r2, r1
 8004cca:	605a      	str	r2, [r3, #4]
 8004ccc:	69a2      	ldr	r2, [r4, #24]
 8004cce:	6899      	ldr	r1, [r3, #8]
 8004cd0:	432a      	orrs	r2, r5
 8004cd2:	f421 6130 	bic.w	r1, r1, #2816	; 0xb00
 8004cd6:	430a      	orrs	r2, r1
 8004cd8:	609a      	str	r2, [r3, #8]
 8004cda:	4a86      	ldr	r2, [pc, #536]	; (8004ef4 <UART_SetConfig+0x254>)
 8004cdc:	4293      	cmp	r3, r2
 8004cde:	d117      	bne.n	8004d10 <UART_SetConfig+0x70>
 8004ce0:	4b85      	ldr	r3, [pc, #532]	; (8004ef8 <UART_SetConfig+0x258>)
 8004ce2:	f8d3 3090 	ldr.w	r3, [r3, #144]	; 0x90
 8004ce6:	f003 0303 	and.w	r3, r3, #3
 8004cea:	3b01      	subs	r3, #1
 8004cec:	2b02      	cmp	r3, #2
 8004cee:	f200 80e2 	bhi.w	8004eb6 <UART_SetConfig+0x216>
 8004cf2:	4a82      	ldr	r2, [pc, #520]	; (8004efc <UART_SetConfig+0x25c>)
 8004cf4:	f5b0 4f00 	cmp.w	r0, #32768	; 0x8000
 8004cf8:	5cd3      	ldrb	r3, [r2, r3]
 8004cfa:	f040 80b3 	bne.w	8004e64 <UART_SetConfig+0x1c4>
 8004cfe:	2b08      	cmp	r3, #8
 8004d00:	d822      	bhi.n	8004d48 <UART_SetConfig+0xa8>
 8004d02:	e8df f003 	tbb	[pc, r3]
 8004d06:	db90      	.short	0xdb90
 8004d08:	21d52198 	.word	0x21d52198
 8004d0c:	2121      	.short	0x2121
 8004d0e:	99          	.byte	0x99
 8004d0f:	00          	.byte	0x00
 8004d10:	4a7b      	ldr	r2, [pc, #492]	; (8004f00 <UART_SetConfig+0x260>)
 8004d12:	4293      	cmp	r3, r2
 8004d14:	d106      	bne.n	8004d24 <UART_SetConfig+0x84>
 8004d16:	4b78      	ldr	r3, [pc, #480]	; (8004ef8 <UART_SetConfig+0x258>)
 8004d18:	4a7a      	ldr	r2, [pc, #488]	; (8004f04 <UART_SetConfig+0x264>)
 8004d1a:	f8d3 3090 	ldr.w	r3, [r3, #144]	; 0x90
 8004d1e:	f003 030c 	and.w	r3, r3, #12
 8004d22:	e7e7      	b.n	8004cf4 <UART_SetConfig+0x54>
 8004d24:	4a78      	ldr	r2, [pc, #480]	; (8004f08 <UART_SetConfig+0x268>)
 8004d26:	4293      	cmp	r3, r2
 8004d28:	d118      	bne.n	8004d5c <UART_SetConfig+0xbc>
 8004d2a:	4b73      	ldr	r3, [pc, #460]	; (8004ef8 <UART_SetConfig+0x258>)
 8004d2c:	f8d3 3090 	ldr.w	r3, [r3, #144]	; 0x90
 8004d30:	f003 0330 	and.w	r3, r3, #48	; 0x30
 8004d34:	2b20      	cmp	r3, #32
 8004d36:	f000 80b3 	beq.w	8004ea0 <UART_SetConfig+0x200>
 8004d3a:	d807      	bhi.n	8004d4c <UART_SetConfig+0xac>
 8004d3c:	2b00      	cmp	r3, #0
 8004d3e:	f000 80c0 	beq.w	8004ec2 <UART_SetConfig+0x222>
 8004d42:	2b10      	cmp	r3, #16
 8004d44:	f000 80b1 	beq.w	8004eaa <UART_SetConfig+0x20a>
 8004d48:	2001      	movs	r0, #1
 8004d4a:	e070      	b.n	8004e2e <UART_SetConfig+0x18e>
 8004d4c:	2b30      	cmp	r3, #48	; 0x30
 8004d4e:	d1fb      	bne.n	8004d48 <UART_SetConfig+0xa8>
 8004d50:	f5b0 4f00 	cmp.w	r0, #32768	; 0x8000
 8004d54:	d070      	beq.n	8004e38 <UART_SetConfig+0x198>
 8004d56:	f44f 4000 	mov.w	r0, #32768	; 0x8000
 8004d5a:	e0b9      	b.n	8004ed0 <UART_SetConfig+0x230>
 8004d5c:	4a6b      	ldr	r2, [pc, #428]	; (8004f0c <UART_SetConfig+0x26c>)
 8004d5e:	4293      	cmp	r3, r2
 8004d60:	d10f      	bne.n	8004d82 <UART_SetConfig+0xe2>
 8004d62:	4b65      	ldr	r3, [pc, #404]	; (8004ef8 <UART_SetConfig+0x258>)
 8004d64:	f8d3 3090 	ldr.w	r3, [r3, #144]	; 0x90
 8004d68:	f003 03c0 	and.w	r3, r3, #192	; 0xc0
 8004d6c:	2b80      	cmp	r3, #128	; 0x80
 8004d6e:	f000 8097 	beq.w	8004ea0 <UART_SetConfig+0x200>
 8004d72:	d804      	bhi.n	8004d7e <UART_SetConfig+0xde>
 8004d74:	2b00      	cmp	r3, #0
 8004d76:	f000 80a4 	beq.w	8004ec2 <UART_SetConfig+0x222>
 8004d7a:	2b40      	cmp	r3, #64	; 0x40
 8004d7c:	e7e2      	b.n	8004d44 <UART_SetConfig+0xa4>
 8004d7e:	2bc0      	cmp	r3, #192	; 0xc0
 8004d80:	e7e5      	b.n	8004d4e <UART_SetConfig+0xae>
 8004d82:	4a63      	ldr	r2, [pc, #396]	; (8004f10 <UART_SetConfig+0x270>)
 8004d84:	4293      	cmp	r3, r2
 8004d86:	d112      	bne.n	8004dae <UART_SetConfig+0x10e>
 8004d88:	4b5b      	ldr	r3, [pc, #364]	; (8004ef8 <UART_SetConfig+0x258>)
 8004d8a:	f8d3 3090 	ldr.w	r3, [r3, #144]	; 0x90
 8004d8e:	f403 7340 	and.w	r3, r3, #768	; 0x300
 8004d92:	f5b3 7f00 	cmp.w	r3, #512	; 0x200
 8004d96:	f000 8083 	beq.w	8004ea0 <UART_SetConfig+0x200>
 8004d9a:	d805      	bhi.n	8004da8 <UART_SetConfig+0x108>
 8004d9c:	2b00      	cmp	r3, #0
 8004d9e:	f000 8090 	beq.w	8004ec2 <UART_SetConfig+0x222>
 8004da2:	f5b3 7f80 	cmp.w	r3, #256	; 0x100
 8004da6:	e7cd      	b.n	8004d44 <UART_SetConfig+0xa4>
 8004da8:	f5b3 7f40 	cmp.w	r3, #768	; 0x300
 8004dac:	e7cf      	b.n	8004d4e <UART_SetConfig+0xae>
 8004dae:	4a59      	ldr	r2, [pc, #356]	; (8004f14 <UART_SetConfig+0x274>)
 8004db0:	4293      	cmp	r3, r2
 8004db2:	d110      	bne.n	8004dd6 <UART_SetConfig+0x136>
 8004db4:	4b50      	ldr	r3, [pc, #320]	; (8004ef8 <UART_SetConfig+0x258>)
 8004db6:	f8d3 3090 	ldr.w	r3, [r3, #144]	; 0x90
 8004dba:	f403 6340 	and.w	r3, r3, #3072	; 0xc00
 8004dbe:	f5b3 6f00 	cmp.w	r3, #2048	; 0x800
 8004dc2:	d06d      	beq.n	8004ea0 <UART_SetConfig+0x200>
 8004dc4:	d804      	bhi.n	8004dd0 <UART_SetConfig+0x130>
 8004dc6:	2b00      	cmp	r3, #0
 8004dc8:	d075      	beq.n	8004eb6 <UART_SetConfig+0x216>
 8004dca:	f5b3 6f80 	cmp.w	r3, #1024	; 0x400
 8004dce:	e7b9      	b.n	8004d44 <UART_SetConfig+0xa4>
 8004dd0:	f5b3 6f40 	cmp.w	r3, #3072	; 0xc00
 8004dd4:	e7bb      	b.n	8004d4e <UART_SetConfig+0xae>
 8004dd6:	4a50      	ldr	r2, [pc, #320]	; (8004f18 <UART_SetConfig+0x278>)
 8004dd8:	4293      	cmp	r3, r2
 8004dda:	d110      	bne.n	8004dfe <UART_SetConfig+0x15e>
 8004ddc:	4b46      	ldr	r3, [pc, #280]	; (8004ef8 <UART_SetConfig+0x258>)
 8004dde:	f8d3 3090 	ldr.w	r3, [r3, #144]	; 0x90
 8004de2:	f403 5340 	and.w	r3, r3, #12288	; 0x3000
 8004de6:	f5b3 5f00 	cmp.w	r3, #8192	; 0x2000
 8004dea:	d059      	beq.n	8004ea0 <UART_SetConfig+0x200>
 8004dec:	d804      	bhi.n	8004df8 <UART_SetConfig+0x158>
 8004dee:	2b00      	cmp	r3, #0
 8004df0:	d067      	beq.n	8004ec2 <UART_SetConfig+0x222>
 8004df2:	f5b3 5f80 	cmp.w	r3, #4096	; 0x1000
 8004df6:	e7a5      	b.n	8004d44 <UART_SetConfig+0xa4>
 8004df8:	f5b3 5f40 	cmp.w	r3, #12288	; 0x3000
 8004dfc:	e7a7      	b.n	8004d4e <UART_SetConfig+0xae>
 8004dfe:	4a47      	ldr	r2, [pc, #284]	; (8004f1c <UART_SetConfig+0x27c>)
 8004e00:	4293      	cmp	r3, r2
 8004e02:	d1a1      	bne.n	8004d48 <UART_SetConfig+0xa8>
 8004e04:	4b3c      	ldr	r3, [pc, #240]	; (8004ef8 <UART_SetConfig+0x258>)
 8004e06:	f8d3 3090 	ldr.w	r3, [r3, #144]	; 0x90
 8004e0a:	f403 4340 	and.w	r3, r3, #49152	; 0xc000
 8004e0e:	f5b3 4f00 	cmp.w	r3, #32768	; 0x8000
 8004e12:	d045      	beq.n	8004ea0 <UART_SetConfig+0x200>
 8004e14:	d804      	bhi.n	8004e20 <UART_SetConfig+0x180>
 8004e16:	2b00      	cmp	r3, #0
 8004e18:	d053      	beq.n	8004ec2 <UART_SetConfig+0x222>
 8004e1a:	f5b3 4f80 	cmp.w	r3, #16384	; 0x4000
 8004e1e:	e791      	b.n	8004d44 <UART_SetConfig+0xa4>
 8004e20:	f5b3 4f40 	cmp.w	r3, #49152	; 0xc000
 8004e24:	e793      	b.n	8004d4e <UART_SetConfig+0xae>
 8004e26:	f7fe faed 	bl	8003404 <HAL_RCC_GetPCLK1Freq>
 8004e2a:	b928      	cbnz	r0, 8004e38 <UART_SetConfig+0x198>
 8004e2c:	2000      	movs	r0, #0
 8004e2e:	2300      	movs	r3, #0
 8004e30:	e9c4 331a 	strd	r3, r3, [r4, #104]	; 0x68
 8004e34:	bd38      	pop	{r3, r4, r5, pc}
 8004e36:	483a      	ldr	r0, [pc, #232]	; (8004f20 <UART_SetConfig+0x280>)
 8004e38:	6862      	ldr	r2, [r4, #4]
 8004e3a:	0853      	lsrs	r3, r2, #1
 8004e3c:	eb03 0340 	add.w	r3, r3, r0, lsl #1
 8004e40:	fbb3 f3f2 	udiv	r3, r3, r2
 8004e44:	f64f 72ef 	movw	r2, #65519	; 0xffef
 8004e48:	f1a3 0110 	sub.w	r1, r3, #16
 8004e4c:	4291      	cmp	r1, r2
 8004e4e:	f63f af7b 	bhi.w	8004d48 <UART_SetConfig+0xa8>
 8004e52:	f023 020f 	bic.w	r2, r3, #15
 8004e56:	f3c3 0342 	ubfx	r3, r3, #1, #3
 8004e5a:	6821      	ldr	r1, [r4, #0]
 8004e5c:	b292      	uxth	r2, r2
 8004e5e:	4313      	orrs	r3, r2
 8004e60:	60cb      	str	r3, [r1, #12]
 8004e62:	e7e3      	b.n	8004e2c <UART_SetConfig+0x18c>
 8004e64:	2b08      	cmp	r3, #8
 8004e66:	f63f af6f 	bhi.w	8004d48 <UART_SetConfig+0xa8>
 8004e6a:	a201      	add	r2, pc, #4	; (adr r2, 8004e70 <UART_SetConfig+0x1d0>)
 8004e6c:	f852 f023 	ldr.w	pc, [r2, r3, lsl #2]
 8004e70:	08004ec9 	.word	0x08004ec9
 8004e74:	08004e95 	.word	0x08004e95
 8004e78:	08004ea7 	.word	0x08004ea7
 8004e7c:	08004d49 	.word	0x08004d49
 8004e80:	08004e9b 	.word	0x08004e9b
 8004e84:	08004d49 	.word	0x08004d49
 8004e88:	08004d49 	.word	0x08004d49
 8004e8c:	08004d49 	.word	0x08004d49
 8004e90:	08004d57 	.word	0x08004d57
 8004e94:	f7fe fac6 	bl	8003424 <HAL_RCC_GetPCLK2Freq>
 8004e98:	e018      	b.n	8004ecc <UART_SetConfig+0x22c>
 8004e9a:	f7fe f9e7 	bl	800326c <HAL_RCC_GetSysClockFreq>
 8004e9e:	e015      	b.n	8004ecc <UART_SetConfig+0x22c>
 8004ea0:	f5b0 4f00 	cmp.w	r0, #32768	; 0x8000
 8004ea4:	d0c7      	beq.n	8004e36 <UART_SetConfig+0x196>
 8004ea6:	481e      	ldr	r0, [pc, #120]	; (8004f20 <UART_SetConfig+0x280>)
 8004ea8:	e012      	b.n	8004ed0 <UART_SetConfig+0x230>
 8004eaa:	f5b0 4f00 	cmp.w	r0, #32768	; 0x8000
 8004eae:	d1f4      	bne.n	8004e9a <UART_SetConfig+0x1fa>
 8004eb0:	f7fe f9dc 	bl	800326c <HAL_RCC_GetSysClockFreq>
 8004eb4:	e7b9      	b.n	8004e2a <UART_SetConfig+0x18a>
 8004eb6:	f5b0 4f00 	cmp.w	r0, #32768	; 0x8000
 8004eba:	d1eb      	bne.n	8004e94 <UART_SetConfig+0x1f4>
 8004ebc:	f7fe fab2 	bl	8003424 <HAL_RCC_GetPCLK2Freq>
 8004ec0:	e7b3      	b.n	8004e2a <UART_SetConfig+0x18a>
 8004ec2:	f5b0 4f00 	cmp.w	r0, #32768	; 0x8000
 8004ec6:	d0ae      	beq.n	8004e26 <UART_SetConfig+0x186>
 8004ec8:	f7fe fa9c 	bl	8003404 <HAL_RCC_GetPCLK1Freq>
 8004ecc:	2800      	cmp	r0, #0
 8004ece:	d0ad      	beq.n	8004e2c <UART_SetConfig+0x18c>
 8004ed0:	6862      	ldr	r2, [r4, #4]
 8004ed2:	eb00 0352 	add.w	r3, r0, r2, lsr #1
 8004ed6:	fbb3 f3f2 	udiv	r3, r3, r2
 8004eda:	f64f 72ef 	movw	r2, #65519	; 0xffef
 8004ede:	f1a3 0110 	sub.w	r1, r3, #16
 8004ee2:	4291      	cmp	r1, r2
 8004ee4:	f63f af30 	bhi.w	8004d48 <UART_SetConfig+0xa8>
 8004ee8:	6822      	ldr	r2, [r4, #0]
 8004eea:	60d3      	str	r3, [r2, #12]
 8004eec:	e79e      	b.n	8004e2c <UART_SetConfig+0x18c>
 8004eee:	bf00      	nop
 8004ef0:	efff69f3 	.word	0xefff69f3
 8004ef4:	40011000 	.word	0x40011000
 8004ef8:	40023800 	.word	0x40023800
 8004efc:	08009b38 	.word	0x08009b38
 8004f00:	40004400 	.word	0x40004400
 8004f04:	08009b3b 	.word	0x08009b3b
 8004f08:	40004800 	.word	0x40004800
 8004f0c:	40004c00 	.word	0x40004c00
 8004f10:	40005000 	.word	0x40005000
 8004f14:	40011400 	.word	0x40011400
 8004f18:	40007800 	.word	0x40007800
 8004f1c:	40007c00 	.word	0x40007c00
 8004f20:	00f42400 	.word	0x00f42400

08004f24 <UART_AdvFeatureConfig>:
 8004f24:	6a43      	ldr	r3, [r0, #36]	; 0x24
 8004f26:	07da      	lsls	r2, r3, #31
 8004f28:	b510      	push	{r4, lr}
 8004f2a:	d506      	bpl.n	8004f3a <UART_AdvFeatureConfig+0x16>
 8004f2c:	6801      	ldr	r1, [r0, #0]
 8004f2e:	6a84      	ldr	r4, [r0, #40]	; 0x28
 8004f30:	684a      	ldr	r2, [r1, #4]
 8004f32:	f422 3200 	bic.w	r2, r2, #131072	; 0x20000
 8004f36:	4322      	orrs	r2, r4
 8004f38:	604a      	str	r2, [r1, #4]
 8004f3a:	079c      	lsls	r4, r3, #30
 8004f3c:	d506      	bpl.n	8004f4c <UART_AdvFeatureConfig+0x28>
 8004f3e:	6801      	ldr	r1, [r0, #0]
 8004f40:	6ac4      	ldr	r4, [r0, #44]	; 0x2c
 8004f42:	684a      	ldr	r2, [r1, #4]
 8004f44:	f422 3280 	bic.w	r2, r2, #65536	; 0x10000
 8004f48:	4322      	orrs	r2, r4
 8004f4a:	604a      	str	r2, [r1, #4]
 8004f4c:	0759      	lsls	r1, r3, #29
 8004f4e:	d506      	bpl.n	8004f5e <UART_AdvFeatureConfig+0x3a>
 8004f50:	6801      	ldr	r1, [r0, #0]
 8004f52:	6b04      	ldr	r4, [r0, #48]	; 0x30
 8004f54:	684a      	ldr	r2, [r1, #4]
 8004f56:	f422 2280 	bic.w	r2, r2, #262144	; 0x40000
 8004f5a:	4322      	orrs	r2, r4
 8004f5c:	604a      	str	r2, [r1, #4]
 8004f5e:	071a      	lsls	r2, r3, #28
 8004f60:	d506      	bpl.n	8004f70 <UART_AdvFeatureConfig+0x4c>
 8004f62:	6801      	ldr	r1, [r0, #0]
 8004f64:	6b44      	ldr	r4, [r0, #52]	; 0x34
 8004f66:	684a      	ldr	r2, [r1, #4]
 8004f68:	f422 4200 	bic.w	r2, r2, #32768	; 0x8000
 8004f6c:	4322      	orrs	r2, r4
 8004f6e:	604a      	str	r2, [r1, #4]
 8004f70:	06dc      	lsls	r4, r3, #27
 8004f72:	d506      	bpl.n	8004f82 <UART_AdvFeatureConfig+0x5e>
 8004f74:	6801      	ldr	r1, [r0, #0]
 8004f76:	6b84      	ldr	r4, [r0, #56]	; 0x38
 8004f78:	688a      	ldr	r2, [r1, #8]
 8004f7a:	f422 5280 	bic.w	r2, r2, #4096	; 0x1000
 8004f7e:	4322      	orrs	r2, r4
 8004f80:	608a      	str	r2, [r1, #8]
 8004f82:	0699      	lsls	r1, r3, #26
 8004f84:	d506      	bpl.n	8004f94 <UART_AdvFeatureConfig+0x70>
 8004f86:	6801      	ldr	r1, [r0, #0]
 8004f88:	6bc4      	ldr	r4, [r0, #60]	; 0x3c
 8004f8a:	688a      	ldr	r2, [r1, #8]
 8004f8c:	f422 5200 	bic.w	r2, r2, #8192	; 0x2000
 8004f90:	4322      	orrs	r2, r4
 8004f92:	608a      	str	r2, [r1, #8]
 8004f94:	065a      	lsls	r2, r3, #25
 8004f96:	d510      	bpl.n	8004fba <UART_AdvFeatureConfig+0x96>
 8004f98:	6801      	ldr	r1, [r0, #0]
 8004f9a:	6c04      	ldr	r4, [r0, #64]	; 0x40
 8004f9c:	684a      	ldr	r2, [r1, #4]
 8004f9e:	f5b4 1f80 	cmp.w	r4, #1048576	; 0x100000
 8004fa2:	f422 1280 	bic.w	r2, r2, #1048576	; 0x100000
 8004fa6:	ea42 0204 	orr.w	r2, r2, r4
 8004faa:	604a      	str	r2, [r1, #4]
 8004fac:	d105      	bne.n	8004fba <UART_AdvFeatureConfig+0x96>
 8004fae:	684a      	ldr	r2, [r1, #4]
 8004fb0:	6c44      	ldr	r4, [r0, #68]	; 0x44
 8004fb2:	f422 02c0 	bic.w	r2, r2, #6291456	; 0x600000
 8004fb6:	4322      	orrs	r2, r4
 8004fb8:	604a      	str	r2, [r1, #4]
 8004fba:	061b      	lsls	r3, r3, #24
 8004fbc:	d506      	bpl.n	8004fcc <UART_AdvFeatureConfig+0xa8>
 8004fbe:	6802      	ldr	r2, [r0, #0]
 8004fc0:	6c81      	ldr	r1, [r0, #72]	; 0x48
 8004fc2:	6853      	ldr	r3, [r2, #4]
 8004fc4:	f423 2300 	bic.w	r3, r3, #524288	; 0x80000
 8004fc8:	430b      	orrs	r3, r1
 8004fca:	6053      	str	r3, [r2, #4]
 8004fcc:	bd10      	pop	{r4, pc}

08004fce <UART_WaitOnFlagUntilTimeout>:
 8004fce:	e92d 41f0 	stmdb	sp!, {r4, r5, r6, r7, r8, lr}
 8004fd2:	f8dd 8018 	ldr.w	r8, [sp, #24]
 8004fd6:	4604      	mov	r4, r0
 8004fd8:	460e      	mov	r6, r1
 8004fda:	4615      	mov	r5, r2
 8004fdc:	461f      	mov	r7, r3
 8004fde:	6822      	ldr	r2, [r4, #0]
 8004fe0:	69d3      	ldr	r3, [r2, #28]
 8004fe2:	ea36 0303 	bics.w	r3, r6, r3
 8004fe6:	bf0c      	ite	eq
 8004fe8:	2301      	moveq	r3, #1
 8004fea:	2300      	movne	r3, #0
 8004fec:	42ab      	cmp	r3, r5
 8004fee:	d001      	beq.n	8004ff4 <UART_WaitOnFlagUntilTimeout+0x26>
 8004ff0:	2000      	movs	r0, #0
 8004ff2:	e026      	b.n	8005042 <UART_WaitOnFlagUntilTimeout+0x74>
 8004ff4:	f1b8 3fff 	cmp.w	r8, #4294967295
 8004ff8:	d0f2      	beq.n	8004fe0 <UART_WaitOnFlagUntilTimeout+0x12>
 8004ffa:	f7fd f8cb 	bl	8002194 <HAL_GetTick>
 8004ffe:	1bc0      	subs	r0, r0, r7
 8005000:	4540      	cmp	r0, r8
 8005002:	6820      	ldr	r0, [r4, #0]
 8005004:	d802      	bhi.n	800500c <UART_WaitOnFlagUntilTimeout+0x3e>
 8005006:	f1b8 0f00 	cmp.w	r8, #0
 800500a:	d11c      	bne.n	8005046 <UART_WaitOnFlagUntilTimeout+0x78>
 800500c:	e850 3f00 	ldrex	r3, [r0]
 8005010:	f423 73d0 	bic.w	r3, r3, #416	; 0x1a0
 8005014:	e840 3200 	strex	r2, r3, [r0]
 8005018:	2a00      	cmp	r2, #0
 800501a:	d1f7      	bne.n	800500c <UART_WaitOnFlagUntilTimeout+0x3e>
 800501c:	f100 0308 	add.w	r3, r0, #8
 8005020:	e853 3f00 	ldrex	r3, [r3]
 8005024:	f023 0301 	bic.w	r3, r3, #1
 8005028:	f100 0108 	add.w	r1, r0, #8
 800502c:	e841 3200 	strex	r2, r3, [r1]
 8005030:	2a00      	cmp	r2, #0
 8005032:	d1f3      	bne.n	800501c <UART_WaitOnFlagUntilTimeout+0x4e>
 8005034:	2320      	movs	r3, #32
 8005036:	67e3      	str	r3, [r4, #124]	; 0x7c
 8005038:	f8c4 3080 	str.w	r3, [r4, #128]	; 0x80
 800503c:	2003      	movs	r0, #3
 800503e:	f884 2078 	strb.w	r2, [r4, #120]	; 0x78
 8005042:	e8bd 81f0 	ldmia.w	sp!, {r4, r5, r6, r7, r8, pc}
 8005046:	6803      	ldr	r3, [r0, #0]
 8005048:	075a      	lsls	r2, r3, #29
 800504a:	d5c8      	bpl.n	8004fde <UART_WaitOnFlagUntilTimeout+0x10>
 800504c:	69c3      	ldr	r3, [r0, #28]
 800504e:	051b      	lsls	r3, r3, #20
 8005050:	d5c5      	bpl.n	8004fde <UART_WaitOnFlagUntilTimeout+0x10>
 8005052:	f44f 6300 	mov.w	r3, #2048	; 0x800
 8005056:	6203      	str	r3, [r0, #32]
 8005058:	e850 3f00 	ldrex	r3, [r0]
 800505c:	f423 73d0 	bic.w	r3, r3, #416	; 0x1a0
 8005060:	e840 3200 	strex	r2, r3, [r0]
 8005064:	2a00      	cmp	r2, #0
 8005066:	d1f7      	bne.n	8005058 <UART_WaitOnFlagUntilTimeout+0x8a>
 8005068:	f100 0308 	add.w	r3, r0, #8
 800506c:	e853 3f00 	ldrex	r3, [r3]
 8005070:	f023 0301 	bic.w	r3, r3, #1
 8005074:	f100 0108 	add.w	r1, r0, #8
 8005078:	e841 3200 	strex	r2, r3, [r1]
 800507c:	2a00      	cmp	r2, #0
 800507e:	d1f3      	bne.n	8005068 <UART_WaitOnFlagUntilTimeout+0x9a>
 8005080:	2320      	movs	r3, #32
 8005082:	67e3      	str	r3, [r4, #124]	; 0x7c
 8005084:	f8c4 3080 	str.w	r3, [r4, #128]	; 0x80
 8005088:	f8c4 3084 	str.w	r3, [r4, #132]	; 0x84
 800508c:	e7d6      	b.n	800503c <UART_WaitOnFlagUntilTimeout+0x6e>

0800508e <UART_CheckIdleState>:
 800508e:	b530      	push	{r4, r5, lr}
 8005090:	2500      	movs	r5, #0
 8005092:	4604      	mov	r4, r0
 8005094:	b085      	sub	sp, #20
 8005096:	f8c0 5084 	str.w	r5, [r0, #132]	; 0x84
 800509a:	f7fd f87b 	bl	8002194 <HAL_GetTick>
 800509e:	6822      	ldr	r2, [r4, #0]
 80050a0:	4603      	mov	r3, r0
 80050a2:	6812      	ldr	r2, [r2, #0]
 80050a4:	0711      	lsls	r1, r2, #28
 80050a6:	d417      	bmi.n	80050d8 <UART_CheckIdleState+0x4a>
 80050a8:	6822      	ldr	r2, [r4, #0]
 80050aa:	6812      	ldr	r2, [r2, #0]
 80050ac:	0752      	lsls	r2, r2, #29
 80050ae:	d509      	bpl.n	80050c4 <UART_CheckIdleState+0x36>
 80050b0:	f06f 427e 	mvn.w	r2, #4261412864	; 0xfe000000
 80050b4:	f44f 0180 	mov.w	r1, #4194304	; 0x400000
 80050b8:	4620      	mov	r0, r4
 80050ba:	9200      	str	r2, [sp, #0]
 80050bc:	2200      	movs	r2, #0
 80050be:	f7ff ff86 	bl	8004fce <UART_WaitOnFlagUntilTimeout>
 80050c2:	b9b0      	cbnz	r0, 80050f2 <UART_CheckIdleState+0x64>
 80050c4:	2000      	movs	r0, #0
 80050c6:	2320      	movs	r3, #32
 80050c8:	f884 0078 	strb.w	r0, [r4, #120]	; 0x78
 80050cc:	67e3      	str	r3, [r4, #124]	; 0x7c
 80050ce:	f8c4 3080 	str.w	r3, [r4, #128]	; 0x80
 80050d2:	6620      	str	r0, [r4, #96]	; 0x60
 80050d4:	6660      	str	r0, [r4, #100]	; 0x64
 80050d6:	e00d      	b.n	80050f4 <UART_CheckIdleState+0x66>
 80050d8:	f06f 427e 	mvn.w	r2, #4261412864	; 0xfe000000
 80050dc:	9003      	str	r0, [sp, #12]
 80050de:	f44f 1100 	mov.w	r1, #2097152	; 0x200000
 80050e2:	4620      	mov	r0, r4
 80050e4:	9200      	str	r2, [sp, #0]
 80050e6:	462a      	mov	r2, r5
 80050e8:	f7ff ff71 	bl	8004fce <UART_WaitOnFlagUntilTimeout>
 80050ec:	9b03      	ldr	r3, [sp, #12]
 80050ee:	2800      	cmp	r0, #0
 80050f0:	d0da      	beq.n	80050a8 <UART_CheckIdleState+0x1a>
 80050f2:	2003      	movs	r0, #3
 80050f4:	b005      	add	sp, #20
 80050f6:	bd30      	pop	{r4, r5, pc}

080050f8 <HAL_UART_Init>:
 80050f8:	b510      	push	{r4, lr}
 80050fa:	4604      	mov	r4, r0
 80050fc:	b340      	cbz	r0, 8005150 <HAL_UART_Init+0x58>
 80050fe:	6fc3      	ldr	r3, [r0, #124]	; 0x7c
 8005100:	b91b      	cbnz	r3, 800510a <HAL_UART_Init+0x12>
 8005102:	f880 3078 	strb.w	r3, [r0, #120]	; 0x78
 8005106:	f7fc fe3f 	bl	8001d88 <HAL_UART_MspInit>
 800510a:	6822      	ldr	r2, [r4, #0]
 800510c:	2324      	movs	r3, #36	; 0x24
 800510e:	4620      	mov	r0, r4
 8005110:	67e3      	str	r3, [r4, #124]	; 0x7c
 8005112:	6813      	ldr	r3, [r2, #0]
 8005114:	f023 0301 	bic.w	r3, r3, #1
 8005118:	6013      	str	r3, [r2, #0]
 800511a:	f7ff fdc1 	bl	8004ca0 <UART_SetConfig>
 800511e:	2801      	cmp	r0, #1
 8005120:	d016      	beq.n	8005150 <HAL_UART_Init+0x58>
 8005122:	6a63      	ldr	r3, [r4, #36]	; 0x24
 8005124:	b113      	cbz	r3, 800512c <HAL_UART_Init+0x34>
 8005126:	4620      	mov	r0, r4
 8005128:	f7ff fefc 	bl	8004f24 <UART_AdvFeatureConfig>
 800512c:	6823      	ldr	r3, [r4, #0]
 800512e:	4620      	mov	r0, r4
 8005130:	685a      	ldr	r2, [r3, #4]
 8005132:	f422 4290 	bic.w	r2, r2, #18432	; 0x4800
 8005136:	605a      	str	r2, [r3, #4]
 8005138:	689a      	ldr	r2, [r3, #8]
 800513a:	f022 022a 	bic.w	r2, r2, #42	; 0x2a
 800513e:	609a      	str	r2, [r3, #8]
 8005140:	681a      	ldr	r2, [r3, #0]
 8005142:	f042 0201 	orr.w	r2, r2, #1
 8005146:	e8bd 4010 	ldmia.w	sp!, {r4, lr}
 800514a:	601a      	str	r2, [r3, #0]
 800514c:	f7ff bf9f 	b.w	800508e <UART_CheckIdleState>
 8005150:	2001      	movs	r0, #1
 8005152:	bd10      	pop	{r4, pc}

08005154 <UART_Start_Receive_IT>:
 8005154:	b510      	push	{r4, lr}
 8005156:	f8a0 2058 	strh.w	r2, [r0, #88]	; 0x58
 800515a:	2300      	movs	r3, #0
 800515c:	f8a0 205a 	strh.w	r2, [r0, #90]	; 0x5a
 8005160:	6882      	ldr	r2, [r0, #8]
 8005162:	6541      	str	r1, [r0, #84]	; 0x54
 8005164:	f5b2 5f80 	cmp.w	r2, #4096	; 0x1000
 8005168:	6683      	str	r3, [r0, #104]	; 0x68
 800516a:	d130      	bne.n	80051ce <UART_Start_Receive_IT+0x7a>
 800516c:	6903      	ldr	r3, [r0, #16]
 800516e:	2b00      	cmp	r3, #0
 8005170:	f240 13ff 	movw	r3, #511	; 0x1ff
 8005174:	bf18      	it	ne
 8005176:	23ff      	movne	r3, #255	; 0xff
 8005178:	f8a0 305c 	strh.w	r3, [r0, #92]	; 0x5c
 800517c:	2300      	movs	r3, #0
 800517e:	f8c0 3084 	str.w	r3, [r0, #132]	; 0x84
 8005182:	2322      	movs	r3, #34	; 0x22
 8005184:	f8c0 3080 	str.w	r3, [r0, #128]	; 0x80
 8005188:	6802      	ldr	r2, [r0, #0]
 800518a:	f102 0308 	add.w	r3, r2, #8
 800518e:	e853 3f00 	ldrex	r3, [r3]
 8005192:	f043 0301 	orr.w	r3, r3, #1
 8005196:	3208      	adds	r2, #8
 8005198:	e842 3100 	strex	r1, r3, [r2]
 800519c:	6802      	ldr	r2, [r0, #0]
 800519e:	2900      	cmp	r1, #0
 80051a0:	d1f2      	bne.n	8005188 <UART_Start_Receive_IT+0x34>
 80051a2:	6883      	ldr	r3, [r0, #8]
 80051a4:	6901      	ldr	r1, [r0, #16]
 80051a6:	f5b3 5f80 	cmp.w	r3, #4096	; 0x1000
 80051aa:	d120      	bne.n	80051ee <UART_Start_Receive_IT+0x9a>
 80051ac:	4b15      	ldr	r3, [pc, #84]	; (8005204 <UART_Start_Receive_IT+0xb0>)
 80051ae:	4c16      	ldr	r4, [pc, #88]	; (8005208 <UART_Start_Receive_IT+0xb4>)
 80051b0:	2900      	cmp	r1, #0
 80051b2:	bf18      	it	ne
 80051b4:	4623      	movne	r3, r4
 80051b6:	6683      	str	r3, [r0, #104]	; 0x68
 80051b8:	b1d9      	cbz	r1, 80051f2 <UART_Start_Receive_IT+0x9e>
 80051ba:	e852 3f00 	ldrex	r3, [r2]
 80051be:	f443 7390 	orr.w	r3, r3, #288	; 0x120
 80051c2:	e842 3100 	strex	r1, r3, [r2]
 80051c6:	2900      	cmp	r1, #0
 80051c8:	d1f7      	bne.n	80051ba <UART_Start_Receive_IT+0x66>
 80051ca:	2000      	movs	r0, #0
 80051cc:	bd10      	pop	{r4, pc}
 80051ce:	b92a      	cbnz	r2, 80051dc <UART_Start_Receive_IT+0x88>
 80051d0:	6903      	ldr	r3, [r0, #16]
 80051d2:	2b00      	cmp	r3, #0
 80051d4:	bf14      	ite	ne
 80051d6:	237f      	movne	r3, #127	; 0x7f
 80051d8:	23ff      	moveq	r3, #255	; 0xff
 80051da:	e7cd      	b.n	8005178 <UART_Start_Receive_IT+0x24>
 80051dc:	f1b2 5f80 	cmp.w	r2, #268435456	; 0x10000000
 80051e0:	d1ca      	bne.n	8005178 <UART_Start_Receive_IT+0x24>
 80051e2:	6903      	ldr	r3, [r0, #16]
 80051e4:	2b00      	cmp	r3, #0
 80051e6:	bf0c      	ite	eq
 80051e8:	237f      	moveq	r3, #127	; 0x7f
 80051ea:	233f      	movne	r3, #63	; 0x3f
 80051ec:	e7c4      	b.n	8005178 <UART_Start_Receive_IT+0x24>
 80051ee:	4b06      	ldr	r3, [pc, #24]	; (8005208 <UART_Start_Receive_IT+0xb4>)
 80051f0:	e7e1      	b.n	80051b6 <UART_Start_Receive_IT+0x62>
 80051f2:	e852 3f00 	ldrex	r3, [r2]
 80051f6:	f043 0320 	orr.w	r3, r3, #32
 80051fa:	e842 3100 	strex	r1, r3, [r2]
 80051fe:	2900      	cmp	r1, #0
 8005200:	d1f7      	bne.n	80051f2 <UART_Start_Receive_IT+0x9e>
 8005202:	e7e2      	b.n	80051ca <UART_Start_Receive_IT+0x76>
 8005204:	08004963 	.word	0x08004963
 8005208:	080048c1 	.word	0x080048c1

0800520c <HAL_UART_Receive_IT>:
 800520c:	f8d0 3080 	ldr.w	r3, [r0, #128]	; 0x80
 8005210:	2b20      	cmp	r3, #32
 8005212:	b430      	push	{r4, r5}
 8005214:	d112      	bne.n	800523c <HAL_UART_Receive_IT+0x30>
 8005216:	b1a1      	cbz	r1, 8005242 <HAL_UART_Receive_IT+0x36>
 8005218:	b19a      	cbz	r2, 8005242 <HAL_UART_Receive_IT+0x36>
 800521a:	2300      	movs	r3, #0
 800521c:	6804      	ldr	r4, [r0, #0]
 800521e:	6603      	str	r3, [r0, #96]	; 0x60
 8005220:	6863      	ldr	r3, [r4, #4]
 8005222:	021b      	lsls	r3, r3, #8
 8005224:	d507      	bpl.n	8005236 <HAL_UART_Receive_IT+0x2a>
 8005226:	e854 3f00 	ldrex	r3, [r4]
 800522a:	f043 6380 	orr.w	r3, r3, #67108864	; 0x4000000
 800522e:	e844 3500 	strex	r5, r3, [r4]
 8005232:	2d00      	cmp	r5, #0
 8005234:	d1f7      	bne.n	8005226 <HAL_UART_Receive_IT+0x1a>
 8005236:	bc30      	pop	{r4, r5}
 8005238:	f7ff bf8c 	b.w	8005154 <UART_Start_Receive_IT>
 800523c:	2002      	movs	r0, #2
 800523e:	bc30      	pop	{r4, r5}
 8005240:	4770      	bx	lr
 8005242:	2001      	movs	r0, #1
 8005244:	e7fb      	b.n	800523e <HAL_UART_Receive_IT+0x32>

08005246 <TimerCallback>:
 8005246:	b510      	push	{r4, lr}
 8005248:	f001 fd52 	bl	8006cf0 <pvTimerGetTimerID>
 800524c:	b120      	cbz	r0, 8005258 <TimerCallback+0x12>
 800524e:	e9d0 3000 	ldrd	r3, r0, [r0]
 8005252:	e8bd 4010 	ldmia.w	sp!, {r4, lr}
 8005256:	4718      	bx	r3
 8005258:	bd10      	pop	{r4, pc}
	...

0800525c <osKernelInitialize>:
 800525c:	f3ef 8305 	mrs	r3, IPSR
 8005260:	b113      	cbz	r3, 8005268 <osKernelInitialize+0xc>
 8005262:	f06f 0005 	mvn.w	r0, #5
 8005266:	4770      	bx	lr
 8005268:	f3ef 8210 	mrs	r2, PRIMASK
 800526c:	4b07      	ldr	r3, [pc, #28]	; (800528c <osKernelInitialize+0x30>)
 800526e:	b912      	cbnz	r2, 8005276 <osKernelInitialize+0x1a>
 8005270:	f3ef 8211 	mrs	r2, BASEPRI
 8005274:	b112      	cbz	r2, 800527c <osKernelInitialize+0x20>
 8005276:	681a      	ldr	r2, [r3, #0]
 8005278:	2a02      	cmp	r2, #2
 800527a:	d0f2      	beq.n	8005262 <osKernelInitialize+0x6>
 800527c:	6818      	ldr	r0, [r3, #0]
 800527e:	b910      	cbnz	r0, 8005286 <osKernelInitialize+0x2a>
 8005280:	2201      	movs	r2, #1
 8005282:	601a      	str	r2, [r3, #0]
 8005284:	4770      	bx	lr
 8005286:	f04f 30ff 	mov.w	r0, #4294967295
 800528a:	4770      	bx	lr
 800528c:	20000a8c 	.word	0x20000a8c

08005290 <osKernelStart>:
 8005290:	b508      	push	{r3, lr}
 8005292:	f3ef 8305 	mrs	r3, IPSR
 8005296:	b113      	cbz	r3, 800529e <osKernelStart+0xe>
 8005298:	f06f 0005 	mvn.w	r0, #5
 800529c:	bd08      	pop	{r3, pc}
 800529e:	f3ef 8210 	mrs	r2, PRIMASK
 80052a2:	4b0a      	ldr	r3, [pc, #40]	; (80052cc <osKernelStart+0x3c>)
 80052a4:	b912      	cbnz	r2, 80052ac <osKernelStart+0x1c>
 80052a6:	f3ef 8211 	mrs	r2, BASEPRI
 80052aa:	b112      	cbz	r2, 80052b2 <osKernelStart+0x22>
 80052ac:	681a      	ldr	r2, [r3, #0]
 80052ae:	2a02      	cmp	r2, #2
 80052b0:	d0f2      	beq.n	8005298 <osKernelStart+0x8>
 80052b2:	681a      	ldr	r2, [r3, #0]
 80052b4:	2a01      	cmp	r2, #1
 80052b6:	d105      	bne.n	80052c4 <osKernelStart+0x34>
 80052b8:	2202      	movs	r2, #2
 80052ba:	601a      	str	r2, [r3, #0]
 80052bc:	f000 ff54 	bl	8006168 <vTaskStartScheduler>
 80052c0:	2000      	movs	r0, #0
 80052c2:	e7eb      	b.n	800529c <osKernelStart+0xc>
 80052c4:	f04f 30ff 	mov.w	r0, #4294967295
 80052c8:	e7e8      	b.n	800529c <osKernelStart+0xc>
 80052ca:	bf00      	nop
 80052cc:	20000a8c 	.word	0x20000a8c

080052d0 <osThreadNew>:
 80052d0:	b5f0      	push	{r4, r5, r6, r7, lr}
 80052d2:	4614      	mov	r4, r2
 80052d4:	b087      	sub	sp, #28
 80052d6:	2200      	movs	r2, #0
 80052d8:	460b      	mov	r3, r1
 80052da:	9205      	str	r2, [sp, #20]
 80052dc:	f3ef 8205 	mrs	r2, IPSR
 80052e0:	bb1a      	cbnz	r2, 800532a <osThreadNew+0x5a>
 80052e2:	f3ef 8210 	mrs	r2, PRIMASK
 80052e6:	b912      	cbnz	r2, 80052ee <osThreadNew+0x1e>
 80052e8:	f3ef 8211 	mrs	r2, BASEPRI
 80052ec:	b11a      	cbz	r2, 80052f6 <osThreadNew+0x26>
 80052ee:	4a21      	ldr	r2, [pc, #132]	; (8005374 <osThreadNew+0xa4>)
 80052f0:	6812      	ldr	r2, [r2, #0]
 80052f2:	2a02      	cmp	r2, #2
 80052f4:	d019      	beq.n	800532a <osThreadNew+0x5a>
 80052f6:	b1c0      	cbz	r0, 800532a <osThreadNew+0x5a>
 80052f8:	b36c      	cbz	r4, 8005356 <osThreadNew+0x86>
 80052fa:	69a5      	ldr	r5, [r4, #24]
 80052fc:	2d00      	cmp	r5, #0
 80052fe:	bf08      	it	eq
 8005300:	2518      	moveq	r5, #24
 8005302:	1e6a      	subs	r2, r5, #1
 8005304:	46ac      	mov	ip, r5
 8005306:	2a37      	cmp	r2, #55	; 0x37
 8005308:	d82a      	bhi.n	8005360 <osThreadNew+0x90>
 800530a:	6862      	ldr	r2, [r4, #4]
 800530c:	07d2      	lsls	r2, r2, #31
 800530e:	d427      	bmi.n	8005360 <osThreadNew+0x90>
 8005310:	6966      	ldr	r6, [r4, #20]
 8005312:	b16e      	cbz	r6, 8005330 <osThreadNew+0x60>
 8005314:	08b2      	lsrs	r2, r6, #2
 8005316:	6821      	ldr	r1, [r4, #0]
 8005318:	e9d4 7e02 	ldrd	r7, lr, [r4, #8]
 800531c:	b157      	cbz	r7, 8005334 <osThreadNew+0x64>
 800531e:	f1be 0fa7 	cmp.w	lr, #167	; 0xa7
 8005322:	d902      	bls.n	800532a <osThreadNew+0x5a>
 8005324:	6924      	ldr	r4, [r4, #16]
 8005326:	b104      	cbz	r4, 800532a <osThreadNew+0x5a>
 8005328:	b9e6      	cbnz	r6, 8005364 <osThreadNew+0x94>
 800532a:	9805      	ldr	r0, [sp, #20]
 800532c:	b007      	add	sp, #28
 800532e:	bdf0      	pop	{r4, r5, r6, r7, pc}
 8005330:	2280      	movs	r2, #128	; 0x80
 8005332:	e7f0      	b.n	8005316 <osThreadNew+0x46>
 8005334:	f1be 0f00 	cmp.w	lr, #0
 8005338:	d1f7      	bne.n	800532a <osThreadNew+0x5a>
 800533a:	6924      	ldr	r4, [r4, #16]
 800533c:	2c00      	cmp	r4, #0
 800533e:	d1f4      	bne.n	800532a <osThreadNew+0x5a>
 8005340:	ac05      	add	r4, sp, #20
 8005342:	b292      	uxth	r2, r2
 8005344:	e9cd c400 	strd	ip, r4, [sp]
 8005348:	f000 fdec 	bl	8005f24 <xTaskCreate>
 800534c:	2801      	cmp	r0, #1
 800534e:	bf1c      	itt	ne
 8005350:	2300      	movne	r3, #0
 8005352:	9305      	strne	r3, [sp, #20]
 8005354:	e7e9      	b.n	800532a <osThreadNew+0x5a>
 8005356:	4621      	mov	r1, r4
 8005358:	f04f 0c18 	mov.w	ip, #24
 800535c:	2280      	movs	r2, #128	; 0x80
 800535e:	e7ef      	b.n	8005340 <osThreadNew+0x70>
 8005360:	2000      	movs	r0, #0
 8005362:	e7e3      	b.n	800532c <osThreadNew+0x5c>
 8005364:	e9cd 4701 	strd	r4, r7, [sp, #4]
 8005368:	9500      	str	r5, [sp, #0]
 800536a:	f000 fd9d 	bl	8005ea8 <xTaskCreateStatic>
 800536e:	9005      	str	r0, [sp, #20]
 8005370:	e7db      	b.n	800532a <osThreadNew+0x5a>
 8005372:	bf00      	nop
 8005374:	20000a8c 	.word	0x20000a8c

08005378 <osDelay>:
 8005378:	b508      	push	{r3, lr}
 800537a:	f3ef 8305 	mrs	r3, IPSR
 800537e:	b113      	cbz	r3, 8005386 <osDelay+0xe>
 8005380:	f06f 0005 	mvn.w	r0, #5
 8005384:	bd08      	pop	{r3, pc}
 8005386:	f3ef 8310 	mrs	r3, PRIMASK
 800538a:	b913      	cbnz	r3, 8005392 <osDelay+0x1a>
 800538c:	f3ef 8311 	mrs	r3, BASEPRI
 8005390:	b11b      	cbz	r3, 800539a <osDelay+0x22>
 8005392:	4b05      	ldr	r3, [pc, #20]	; (80053a8 <osDelay+0x30>)
 8005394:	681b      	ldr	r3, [r3, #0]
 8005396:	2b02      	cmp	r3, #2
 8005398:	d0f2      	beq.n	8005380 <osDelay+0x8>
 800539a:	2800      	cmp	r0, #0
 800539c:	d0f2      	beq.n	8005384 <osDelay+0xc>
 800539e:	f001 f853 	bl	8006448 <vTaskDelay>
 80053a2:	2000      	movs	r0, #0
 80053a4:	e7ee      	b.n	8005384 <osDelay+0xc>
 80053a6:	bf00      	nop
 80053a8:	20000a8c 	.word	0x20000a8c

080053ac <osTimerNew>:
 80053ac:	b5f7      	push	{r0, r1, r2, r4, r5, r6, r7, lr}
 80053ae:	4606      	mov	r6, r0
 80053b0:	460d      	mov	r5, r1
 80053b2:	4617      	mov	r7, r2
 80053b4:	461c      	mov	r4, r3
 80053b6:	f3ef 8305 	mrs	r3, IPSR
 80053ba:	b113      	cbz	r3, 80053c2 <osTimerNew+0x16>
 80053bc:	2000      	movs	r0, #0
 80053be:	b003      	add	sp, #12
 80053c0:	bdf0      	pop	{r4, r5, r6, r7, pc}
 80053c2:	f3ef 8310 	mrs	r3, PRIMASK
 80053c6:	b913      	cbnz	r3, 80053ce <osTimerNew+0x22>
 80053c8:	f3ef 8311 	mrs	r3, BASEPRI
 80053cc:	b11b      	cbz	r3, 80053d6 <osTimerNew+0x2a>
 80053ce:	4b14      	ldr	r3, [pc, #80]	; (8005420 <osTimerNew+0x74>)
 80053d0:	681b      	ldr	r3, [r3, #0]
 80053d2:	2b02      	cmp	r3, #2
 80053d4:	d0f2      	beq.n	80053bc <osTimerNew+0x10>
 80053d6:	2e00      	cmp	r6, #0
 80053d8:	d0f0      	beq.n	80053bc <osTimerNew+0x10>
 80053da:	2008      	movs	r0, #8
 80053dc:	f001 fe62 	bl	80070a4 <pvPortMalloc>
 80053e0:	4603      	mov	r3, r0
 80053e2:	2800      	cmp	r0, #0
 80053e4:	d0ea      	beq.n	80053bc <osTimerNew+0x10>
 80053e6:	1e2a      	subs	r2, r5, #0
 80053e8:	e9c0 6700 	strd	r6, r7, [r0]
 80053ec:	bf18      	it	ne
 80053ee:	2201      	movne	r2, #1
 80053f0:	b1a4      	cbz	r4, 800541c <osTimerNew+0x70>
 80053f2:	6820      	ldr	r0, [r4, #0]
 80053f4:	e9d4 1402 	ldrd	r1, r4, [r4, #8]
 80053f8:	b141      	cbz	r1, 800540c <osTimerNew+0x60>
 80053fa:	2c2b      	cmp	r4, #43	; 0x2b
 80053fc:	d9de      	bls.n	80053bc <osTimerNew+0x10>
 80053fe:	9101      	str	r1, [sp, #4]
 8005400:	4908      	ldr	r1, [pc, #32]	; (8005424 <osTimerNew+0x78>)
 8005402:	9100      	str	r1, [sp, #0]
 8005404:	2101      	movs	r1, #1
 8005406:	f001 fad7 	bl	80069b8 <xTimerCreateStatic>
 800540a:	e7d8      	b.n	80053be <osTimerNew+0x12>
 800540c:	2c00      	cmp	r4, #0
 800540e:	d1d5      	bne.n	80053bc <osTimerNew+0x10>
 8005410:	4904      	ldr	r1, [pc, #16]	; (8005424 <osTimerNew+0x78>)
 8005412:	9100      	str	r1, [sp, #0]
 8005414:	2101      	movs	r1, #1
 8005416:	f001 fab5 	bl	8006984 <xTimerCreate>
 800541a:	e7d0      	b.n	80053be <osTimerNew+0x12>
 800541c:	4620      	mov	r0, r4
 800541e:	e7f7      	b.n	8005410 <osTimerNew+0x64>
 8005420:	20000a8c 	.word	0x20000a8c
 8005424:	08005247 	.word	0x08005247

08005428 <osTimerStart>:
 8005428:	b507      	push	{r0, r1, r2, lr}
 800542a:	460a      	mov	r2, r1
 800542c:	f3ef 8305 	mrs	r3, IPSR
 8005430:	b123      	cbz	r3, 800543c <osTimerStart+0x14>
 8005432:	f06f 0005 	mvn.w	r0, #5
 8005436:	b003      	add	sp, #12
 8005438:	f85d fb04 	ldr.w	pc, [sp], #4
 800543c:	f3ef 8310 	mrs	r3, PRIMASK
 8005440:	b913      	cbnz	r3, 8005448 <osTimerStart+0x20>
 8005442:	f3ef 8311 	mrs	r3, BASEPRI
 8005446:	b11b      	cbz	r3, 8005450 <osTimerStart+0x28>
 8005448:	4b09      	ldr	r3, [pc, #36]	; (8005470 <osTimerStart+0x48>)
 800544a:	681b      	ldr	r3, [r3, #0]
 800544c:	2b02      	cmp	r3, #2
 800544e:	d0f0      	beq.n	8005432 <osTimerStart+0xa>
 8005450:	b150      	cbz	r0, 8005468 <osTimerStart+0x40>
 8005452:	2300      	movs	r3, #0
 8005454:	2104      	movs	r1, #4
 8005456:	9300      	str	r3, [sp, #0]
 8005458:	f001 fada 	bl	8006a10 <xTimerGenericCommand>
 800545c:	2801      	cmp	r0, #1
 800545e:	bf0c      	ite	eq
 8005460:	2000      	moveq	r0, #0
 8005462:	f06f 0002 	mvnne.w	r0, #2
 8005466:	e7e6      	b.n	8005436 <osTimerStart+0xe>
 8005468:	f06f 0003 	mvn.w	r0, #3
 800546c:	e7e3      	b.n	8005436 <osTimerStart+0xe>
 800546e:	bf00      	nop
 8005470:	20000a8c 	.word	0x20000a8c

08005474 <vApplicationGetIdleTaskMemory>:
 8005474:	4b03      	ldr	r3, [pc, #12]	; (8005484 <vApplicationGetIdleTaskMemory+0x10>)
 8005476:	6003      	str	r3, [r0, #0]
 8005478:	4b03      	ldr	r3, [pc, #12]	; (8005488 <vApplicationGetIdleTaskMemory+0x14>)
 800547a:	600b      	str	r3, [r1, #0]
 800547c:	2380      	movs	r3, #128	; 0x80
 800547e:	6013      	str	r3, [r2, #0]
 8005480:	4770      	bx	lr
 8005482:	bf00      	nop
 8005484:	200009e4 	.word	0x200009e4
 8005488:	200007e4 	.word	0x200007e4

0800548c <vApplicationGetTimerTaskMemory>:
 800548c:	4b03      	ldr	r3, [pc, #12]	; (800549c <vApplicationGetTimerTaskMemory+0x10>)
 800548e:	6003      	str	r3, [r0, #0]
 8005490:	4b03      	ldr	r3, [pc, #12]	; (80054a0 <vApplicationGetTimerTaskMemory+0x14>)
 8005492:	600b      	str	r3, [r1, #0]
 8005494:	f44f 7380 	mov.w	r3, #256	; 0x100
 8005498:	6013      	str	r3, [r2, #0]
 800549a:	4770      	bx	lr
 800549c:	20000e90 	.word	0x20000e90
 80054a0:	20000a90 	.word	0x20000a90

080054a4 <vListInitialise>:
 80054a4:	f100 0308 	add.w	r3, r0, #8
 80054a8:	f04f 32ff 	mov.w	r2, #4294967295
 80054ac:	6043      	str	r3, [r0, #4]
 80054ae:	6103      	str	r3, [r0, #16]
 80054b0:	e9c0 2302 	strd	r2, r3, [r0, #8]
 80054b4:	2300      	movs	r3, #0
 80054b6:	6003      	str	r3, [r0, #0]
 80054b8:	4770      	bx	lr

080054ba <vListInitialiseItem>:
 80054ba:	2300      	movs	r3, #0
 80054bc:	6103      	str	r3, [r0, #16]
 80054be:	4770      	bx	lr

080054c0 <vListInsertEnd>:
 80054c0:	6843      	ldr	r3, [r0, #4]
 80054c2:	689a      	ldr	r2, [r3, #8]
 80054c4:	604b      	str	r3, [r1, #4]
 80054c6:	608a      	str	r2, [r1, #8]
 80054c8:	689a      	ldr	r2, [r3, #8]
 80054ca:	6051      	str	r1, [r2, #4]
 80054cc:	6099      	str	r1, [r3, #8]
 80054ce:	6803      	ldr	r3, [r0, #0]
 80054d0:	6108      	str	r0, [r1, #16]
 80054d2:	3301      	adds	r3, #1
 80054d4:	6003      	str	r3, [r0, #0]
 80054d6:	4770      	bx	lr

080054d8 <vListInsert>:
 80054d8:	b530      	push	{r4, r5, lr}
 80054da:	680c      	ldr	r4, [r1, #0]
 80054dc:	1c63      	adds	r3, r4, #1
 80054de:	d10a      	bne.n	80054f6 <vListInsert+0x1e>
 80054e0:	6903      	ldr	r3, [r0, #16]
 80054e2:	685a      	ldr	r2, [r3, #4]
 80054e4:	604a      	str	r2, [r1, #4]
 80054e6:	6091      	str	r1, [r2, #8]
 80054e8:	608b      	str	r3, [r1, #8]
 80054ea:	6059      	str	r1, [r3, #4]
 80054ec:	6803      	ldr	r3, [r0, #0]
 80054ee:	6108      	str	r0, [r1, #16]
 80054f0:	3301      	adds	r3, #1
 80054f2:	6003      	str	r3, [r0, #0]
 80054f4:	bd30      	pop	{r4, r5, pc}
 80054f6:	f100 0208 	add.w	r2, r0, #8
 80054fa:	4613      	mov	r3, r2
 80054fc:	6852      	ldr	r2, [r2, #4]
 80054fe:	6815      	ldr	r5, [r2, #0]
 8005500:	42a5      	cmp	r5, r4
 8005502:	d9fa      	bls.n	80054fa <vListInsert+0x22>
 8005504:	e7ed      	b.n	80054e2 <vListInsert+0xa>

08005506 <uxListRemove>:
 8005506:	6903      	ldr	r3, [r0, #16]
 8005508:	e9d0 1201 	ldrd	r1, r2, [r0, #4]
 800550c:	608a      	str	r2, [r1, #8]
 800550e:	6051      	str	r1, [r2, #4]
 8005510:	6859      	ldr	r1, [r3, #4]
 8005512:	4281      	cmp	r1, r0
 8005514:	bf08      	it	eq
 8005516:	605a      	streq	r2, [r3, #4]
 8005518:	2200      	movs	r2, #0
 800551a:	6102      	str	r2, [r0, #16]
 800551c:	681a      	ldr	r2, [r3, #0]
 800551e:	3a01      	subs	r2, #1
 8005520:	601a      	str	r2, [r3, #0]
 8005522:	6818      	ldr	r0, [r3, #0]
 8005524:	4770      	bx	lr

08005526 <prvIsQueueEmpty>:
 8005526:	b510      	push	{r4, lr}
 8005528:	4604      	mov	r4, r0
 800552a:	f001 fc63 	bl	8006df4 <vPortEnterCritical>
 800552e:	6ba4      	ldr	r4, [r4, #56]	; 0x38
 8005530:	f001 fc84 	bl	8006e3c <vPortExitCritical>
 8005534:	fab4 f084 	clz	r0, r4
 8005538:	0940      	lsrs	r0, r0, #5
 800553a:	bd10      	pop	{r4, pc}

0800553c <prvCopyDataToQueue>:
 800553c:	b5f8      	push	{r3, r4, r5, r6, r7, lr}
 800553e:	4615      	mov	r5, r2
 8005540:	6c02      	ldr	r2, [r0, #64]	; 0x40
 8005542:	4604      	mov	r4, r0
 8005544:	6b86      	ldr	r6, [r0, #56]	; 0x38
 8005546:	b952      	cbnz	r2, 800555e <prvCopyDataToQueue+0x22>
 8005548:	6807      	ldr	r7, [r0, #0]
 800554a:	bb47      	cbnz	r7, 800559e <prvCopyDataToQueue+0x62>
 800554c:	6880      	ldr	r0, [r0, #8]
 800554e:	f001 f923 	bl	8006798 <xTaskPriorityDisinherit>
 8005552:	4605      	mov	r5, r0
 8005554:	60a7      	str	r7, [r4, #8]
 8005556:	3601      	adds	r6, #1
 8005558:	4628      	mov	r0, r5
 800555a:	63a6      	str	r6, [r4, #56]	; 0x38
 800555c:	bdf8      	pop	{r3, r4, r5, r6, r7, pc}
 800555e:	b965      	cbnz	r5, 800557a <prvCopyDataToQueue+0x3e>
 8005560:	6840      	ldr	r0, [r0, #4]
 8005562:	f002 f853 	bl	800760c <memcpy>
 8005566:	6863      	ldr	r3, [r4, #4]
 8005568:	6c22      	ldr	r2, [r4, #64]	; 0x40
 800556a:	4413      	add	r3, r2
 800556c:	68a2      	ldr	r2, [r4, #8]
 800556e:	4293      	cmp	r3, r2
 8005570:	6063      	str	r3, [r4, #4]
 8005572:	d3f0      	bcc.n	8005556 <prvCopyDataToQueue+0x1a>
 8005574:	6823      	ldr	r3, [r4, #0]
 8005576:	6063      	str	r3, [r4, #4]
 8005578:	e7ed      	b.n	8005556 <prvCopyDataToQueue+0x1a>
 800557a:	68c0      	ldr	r0, [r0, #12]
 800557c:	f002 f846 	bl	800760c <memcpy>
 8005580:	6c22      	ldr	r2, [r4, #64]	; 0x40
 8005582:	68e3      	ldr	r3, [r4, #12]
 8005584:	4251      	negs	r1, r2
 8005586:	1a9b      	subs	r3, r3, r2
 8005588:	6822      	ldr	r2, [r4, #0]
 800558a:	4293      	cmp	r3, r2
 800558c:	60e3      	str	r3, [r4, #12]
 800558e:	bf3e      	ittt	cc
 8005590:	68a3      	ldrcc	r3, [r4, #8]
 8005592:	185b      	addcc	r3, r3, r1
 8005594:	60e3      	strcc	r3, [r4, #12]
 8005596:	2d02      	cmp	r5, #2
 8005598:	d101      	bne.n	800559e <prvCopyDataToQueue+0x62>
 800559a:	b116      	cbz	r6, 80055a2 <prvCopyDataToQueue+0x66>
 800559c:	3e01      	subs	r6, #1
 800559e:	2500      	movs	r5, #0
 80055a0:	e7d9      	b.n	8005556 <prvCopyDataToQueue+0x1a>
 80055a2:	4635      	mov	r5, r6
 80055a4:	e7d7      	b.n	8005556 <prvCopyDataToQueue+0x1a>

080055a6 <prvCopyDataFromQueue>:
 80055a6:	4603      	mov	r3, r0
 80055a8:	4608      	mov	r0, r1
 80055aa:	6c1a      	ldr	r2, [r3, #64]	; 0x40
 80055ac:	b410      	push	{r4}
 80055ae:	b162      	cbz	r2, 80055ca <prvCopyDataFromQueue+0x24>
 80055b0:	68dc      	ldr	r4, [r3, #12]
 80055b2:	6899      	ldr	r1, [r3, #8]
 80055b4:	4414      	add	r4, r2
 80055b6:	428c      	cmp	r4, r1
 80055b8:	60dc      	str	r4, [r3, #12]
 80055ba:	f85d 4b04 	ldr.w	r4, [sp], #4
 80055be:	bf24      	itt	cs
 80055c0:	6819      	ldrcs	r1, [r3, #0]
 80055c2:	60d9      	strcs	r1, [r3, #12]
 80055c4:	68d9      	ldr	r1, [r3, #12]
 80055c6:	f002 b821 	b.w	800760c <memcpy>
 80055ca:	f85d 4b04 	ldr.w	r4, [sp], #4
 80055ce:	4770      	bx	lr

080055d0 <prvUnlockQueue>:
 80055d0:	b570      	push	{r4, r5, r6, lr}
 80055d2:	4604      	mov	r4, r0
 80055d4:	f001 fc0e 	bl	8006df4 <vPortEnterCritical>
 80055d8:	f894 5045 	ldrb.w	r5, [r4, #69]	; 0x45
 80055dc:	f104 0624 	add.w	r6, r4, #36	; 0x24
 80055e0:	b26d      	sxtb	r5, r5
 80055e2:	2d00      	cmp	r5, #0
 80055e4:	dc14      	bgt.n	8005610 <prvUnlockQueue+0x40>
 80055e6:	23ff      	movs	r3, #255	; 0xff
 80055e8:	f104 0610 	add.w	r6, r4, #16
 80055ec:	f884 3045 	strb.w	r3, [r4, #69]	; 0x45
 80055f0:	f001 fc24 	bl	8006e3c <vPortExitCritical>
 80055f4:	f001 fbfe 	bl	8006df4 <vPortEnterCritical>
 80055f8:	f894 5044 	ldrb.w	r5, [r4, #68]	; 0x44
 80055fc:	b26d      	sxtb	r5, r5
 80055fe:	2d00      	cmp	r5, #0
 8005600:	dc12      	bgt.n	8005628 <prvUnlockQueue+0x58>
 8005602:	23ff      	movs	r3, #255	; 0xff
 8005604:	f884 3044 	strb.w	r3, [r4, #68]	; 0x44
 8005608:	e8bd 4070 	ldmia.w	sp!, {r4, r5, r6, lr}
 800560c:	f001 bc16 	b.w	8006e3c <vPortExitCritical>
 8005610:	6a63      	ldr	r3, [r4, #36]	; 0x24
 8005612:	2b00      	cmp	r3, #0
 8005614:	d0e7      	beq.n	80055e6 <prvUnlockQueue+0x16>
 8005616:	4630      	mov	r0, r6
 8005618:	f001 f816 	bl	8006648 <xTaskRemoveFromEventList>
 800561c:	b108      	cbz	r0, 8005622 <prvUnlockQueue+0x52>
 800561e:	f001 f8a5 	bl	800676c <vTaskMissedYield>
 8005622:	3d01      	subs	r5, #1
 8005624:	b26d      	sxtb	r5, r5
 8005626:	e7dc      	b.n	80055e2 <prvUnlockQueue+0x12>
 8005628:	6923      	ldr	r3, [r4, #16]
 800562a:	2b00      	cmp	r3, #0
 800562c:	d0e9      	beq.n	8005602 <prvUnlockQueue+0x32>
 800562e:	4630      	mov	r0, r6
 8005630:	f001 f80a 	bl	8006648 <xTaskRemoveFromEventList>
 8005634:	b108      	cbz	r0, 800563a <prvUnlockQueue+0x6a>
 8005636:	f001 f899 	bl	800676c <vTaskMissedYield>
 800563a:	3d01      	subs	r5, #1
 800563c:	b26d      	sxtb	r5, r5
 800563e:	e7de      	b.n	80055fe <prvUnlockQueue+0x2e>

08005640 <xQueueGenericReset>:
 8005640:	b538      	push	{r3, r4, r5, lr}
 8005642:	460d      	mov	r5, r1
 8005644:	4604      	mov	r4, r0
 8005646:	b950      	cbnz	r0, 800565e <xQueueGenericReset+0x1e>
 8005648:	f04f 0350 	mov.w	r3, #80	; 0x50
 800564c:	b672      	cpsid	i
 800564e:	f383 8811 	msr	BASEPRI, r3
 8005652:	f3bf 8f6f 	isb	sy
 8005656:	f3bf 8f4f 	dsb	sy
 800565a:	b662      	cpsie	i
 800565c:	e7fe      	b.n	800565c <xQueueGenericReset+0x1c>
 800565e:	f001 fbc9 	bl	8006df4 <vPortEnterCritical>
 8005662:	6822      	ldr	r2, [r4, #0]
 8005664:	e9d4 310f 	ldrd	r3, r1, [r4, #60]	; 0x3c
 8005668:	6062      	str	r2, [r4, #4]
 800566a:	434b      	muls	r3, r1
 800566c:	18d0      	adds	r0, r2, r3
 800566e:	1a5b      	subs	r3, r3, r1
 8005670:	60a0      	str	r0, [r4, #8]
 8005672:	441a      	add	r2, r3
 8005674:	2000      	movs	r0, #0
 8005676:	23ff      	movs	r3, #255	; 0xff
 8005678:	60e2      	str	r2, [r4, #12]
 800567a:	63a0      	str	r0, [r4, #56]	; 0x38
 800567c:	f884 3044 	strb.w	r3, [r4, #68]	; 0x44
 8005680:	f884 3045 	strb.w	r3, [r4, #69]	; 0x45
 8005684:	b9a5      	cbnz	r5, 80056b0 <xQueueGenericReset+0x70>
 8005686:	6923      	ldr	r3, [r4, #16]
 8005688:	b173      	cbz	r3, 80056a8 <xQueueGenericReset+0x68>
 800568a:	f104 0010 	add.w	r0, r4, #16
 800568e:	f000 ffdb 	bl	8006648 <xTaskRemoveFromEventList>
 8005692:	b148      	cbz	r0, 80056a8 <xQueueGenericReset+0x68>
 8005694:	f04f 23e0 	mov.w	r3, #3758153728	; 0xe000e000
 8005698:	f04f 5280 	mov.w	r2, #268435456	; 0x10000000
 800569c:	f8c3 2d04 	str.w	r2, [r3, #3332]	; 0xd04
 80056a0:	f3bf 8f4f 	dsb	sy
 80056a4:	f3bf 8f6f 	isb	sy
 80056a8:	f001 fbc8 	bl	8006e3c <vPortExitCritical>
 80056ac:	2001      	movs	r0, #1
 80056ae:	bd38      	pop	{r3, r4, r5, pc}
 80056b0:	f104 0010 	add.w	r0, r4, #16
 80056b4:	f7ff fef6 	bl	80054a4 <vListInitialise>
 80056b8:	f104 0024 	add.w	r0, r4, #36	; 0x24
 80056bc:	f7ff fef2 	bl	80054a4 <vListInitialise>
 80056c0:	e7f2      	b.n	80056a8 <xQueueGenericReset+0x68>

080056c2 <xQueueGenericCreateStatic.part.0>:
 80056c2:	b513      	push	{r0, r1, r4, lr}
 80056c4:	461c      	mov	r4, r3
 80056c6:	b953      	cbnz	r3, 80056de <xQueueGenericCreateStatic.part.0+0x1c>
 80056c8:	f04f 0350 	mov.w	r3, #80	; 0x50
 80056cc:	b672      	cpsid	i
 80056ce:	f383 8811 	msr	BASEPRI, r3
 80056d2:	f3bf 8f6f 	isb	sy
 80056d6:	f3bf 8f4f 	dsb	sy
 80056da:	b662      	cpsie	i
 80056dc:	e7fe      	b.n	80056dc <xQueueGenericCreateStatic.part.0+0x1a>
 80056de:	b15a      	cbz	r2, 80056f8 <xQueueGenericCreateStatic.part.0+0x36>
 80056e0:	b9b1      	cbnz	r1, 8005710 <xQueueGenericCreateStatic.part.0+0x4e>
 80056e2:	f04f 0350 	mov.w	r3, #80	; 0x50
 80056e6:	b672      	cpsid	i
 80056e8:	f383 8811 	msr	BASEPRI, r3
 80056ec:	f3bf 8f6f 	isb	sy
 80056f0:	f3bf 8f4f 	dsb	sy
 80056f4:	b662      	cpsie	i
 80056f6:	e7fe      	b.n	80056f6 <xQueueGenericCreateStatic.part.0+0x34>
 80056f8:	b151      	cbz	r1, 8005710 <xQueueGenericCreateStatic.part.0+0x4e>
 80056fa:	f04f 0350 	mov.w	r3, #80	; 0x50
 80056fe:	b672      	cpsid	i
 8005700:	f383 8811 	msr	BASEPRI, r3
 8005704:	f3bf 8f6f 	isb	sy
 8005708:	f3bf 8f4f 	dsb	sy
 800570c:	b662      	cpsie	i
 800570e:	e7fe      	b.n	800570e <xQueueGenericCreateStatic.part.0+0x4c>
 8005710:	2350      	movs	r3, #80	; 0x50
 8005712:	9301      	str	r3, [sp, #4]
 8005714:	9b01      	ldr	r3, [sp, #4]
 8005716:	2b50      	cmp	r3, #80	; 0x50
 8005718:	d00a      	beq.n	8005730 <xQueueGenericCreateStatic.part.0+0x6e>
 800571a:	f04f 0350 	mov.w	r3, #80	; 0x50
 800571e:	b672      	cpsid	i
 8005720:	f383 8811 	msr	BASEPRI, r3
 8005724:	f3bf 8f6f 	isb	sy
 8005728:	f3bf 8f4f 	dsb	sy
 800572c:	b662      	cpsie	i
 800572e:	e7fe      	b.n	800572e <xQueueGenericCreateStatic.part.0+0x6c>
 8005730:	2900      	cmp	r1, #0
 8005732:	bf08      	it	eq
 8005734:	4622      	moveq	r2, r4
 8005736:	9b01      	ldr	r3, [sp, #4]
 8005738:	2301      	movs	r3, #1
 800573a:	6022      	str	r2, [r4, #0]
 800573c:	f884 3046 	strb.w	r3, [r4, #70]	; 0x46
 8005740:	e9c4 010f 	strd	r0, r1, [r4, #60]	; 0x3c
 8005744:	4619      	mov	r1, r3
 8005746:	4620      	mov	r0, r4
 8005748:	f7ff ff7a 	bl	8005640 <xQueueGenericReset>
 800574c:	f89d 3010 	ldrb.w	r3, [sp, #16]
 8005750:	4620      	mov	r0, r4
 8005752:	f884 304c 	strb.w	r3, [r4, #76]	; 0x4c
 8005756:	b002      	add	sp, #8
 8005758:	bd10      	pop	{r4, pc}

0800575a <xQueueGenericCreateStatic>:
 800575a:	b410      	push	{r4}
 800575c:	f89d 4004 	ldrb.w	r4, [sp, #4]
 8005760:	b950      	cbnz	r0, 8005778 <xQueueGenericCreateStatic+0x1e>
 8005762:	f04f 0350 	mov.w	r3, #80	; 0x50
 8005766:	b672      	cpsid	i
 8005768:	f383 8811 	msr	BASEPRI, r3
 800576c:	f3bf 8f6f 	isb	sy
 8005770:	f3bf 8f4f 	dsb	sy
 8005774:	b662      	cpsie	i
 8005776:	e7fe      	b.n	8005776 <xQueueGenericCreateStatic+0x1c>
 8005778:	9401      	str	r4, [sp, #4]
 800577a:	f85d 4b04 	ldr.w	r4, [sp], #4
 800577e:	f7ff bfa0 	b.w	80056c2 <xQueueGenericCreateStatic.part.0>

08005782 <xQueueGenericSend>:
 8005782:	e92d 43f0 	stmdb	sp!, {r4, r5, r6, r7, r8, r9, lr}
 8005786:	b085      	sub	sp, #20
 8005788:	4688      	mov	r8, r1
 800578a:	461f      	mov	r7, r3
 800578c:	4604      	mov	r4, r0
 800578e:	9201      	str	r2, [sp, #4]
 8005790:	b950      	cbnz	r0, 80057a8 <xQueueGenericSend+0x26>
 8005792:	f04f 0350 	mov.w	r3, #80	; 0x50
 8005796:	b672      	cpsid	i
 8005798:	f383 8811 	msr	BASEPRI, r3
 800579c:	f3bf 8f6f 	isb	sy
 80057a0:	f3bf 8f4f 	dsb	sy
 80057a4:	b662      	cpsie	i
 80057a6:	e7fe      	b.n	80057a6 <xQueueGenericSend+0x24>
 80057a8:	b961      	cbnz	r1, 80057c4 <xQueueGenericSend+0x42>
 80057aa:	6c03      	ldr	r3, [r0, #64]	; 0x40
 80057ac:	b153      	cbz	r3, 80057c4 <xQueueGenericSend+0x42>
 80057ae:	f04f 0350 	mov.w	r3, #80	; 0x50
 80057b2:	b672      	cpsid	i
 80057b4:	f383 8811 	msr	BASEPRI, r3
 80057b8:	f3bf 8f6f 	isb	sy
 80057bc:	f3bf 8f4f 	dsb	sy
 80057c0:	b662      	cpsie	i
 80057c2:	e7fe      	b.n	80057c2 <xQueueGenericSend+0x40>
 80057c4:	2f02      	cmp	r7, #2
 80057c6:	d10d      	bne.n	80057e4 <xQueueGenericSend+0x62>
 80057c8:	6be3      	ldr	r3, [r4, #60]	; 0x3c
 80057ca:	2b01      	cmp	r3, #1
 80057cc:	d00a      	beq.n	80057e4 <xQueueGenericSend+0x62>
 80057ce:	f04f 0350 	mov.w	r3, #80	; 0x50
 80057d2:	b672      	cpsid	i
 80057d4:	f383 8811 	msr	BASEPRI, r3
 80057d8:	f3bf 8f6f 	isb	sy
 80057dc:	f3bf 8f4f 	dsb	sy
 80057e0:	b662      	cpsie	i
 80057e2:	e7fe      	b.n	80057e2 <xQueueGenericSend+0x60>
 80057e4:	f000 ffc8 	bl	8006778 <xTaskGetSchedulerState>
 80057e8:	4606      	mov	r6, r0
 80057ea:	b960      	cbnz	r0, 8005806 <xQueueGenericSend+0x84>
 80057ec:	9b01      	ldr	r3, [sp, #4]
 80057ee:	b15b      	cbz	r3, 8005808 <xQueueGenericSend+0x86>
 80057f0:	f04f 0350 	mov.w	r3, #80	; 0x50
 80057f4:	b672      	cpsid	i
 80057f6:	f383 8811 	msr	BASEPRI, r3
 80057fa:	f3bf 8f6f 	isb	sy
 80057fe:	f3bf 8f4f 	dsb	sy
 8005802:	b662      	cpsie	i
 8005804:	e7fe      	b.n	8005804 <xQueueGenericSend+0x82>
 8005806:	2600      	movs	r6, #0
 8005808:	f04f 0900 	mov.w	r9, #0
 800580c:	e037      	b.n	800587e <xQueueGenericSend+0xfc>
 800580e:	9d01      	ldr	r5, [sp, #4]
 8005810:	b91d      	cbnz	r5, 800581a <xQueueGenericSend+0x98>
 8005812:	f001 fb13 	bl	8006e3c <vPortExitCritical>
 8005816:	2000      	movs	r0, #0
 8005818:	e052      	b.n	80058c0 <xQueueGenericSend+0x13e>
 800581a:	b916      	cbnz	r6, 8005822 <xQueueGenericSend+0xa0>
 800581c:	a802      	add	r0, sp, #8
 800581e:	f000 ff59 	bl	80066d4 <vTaskInternalSetTimeOutState>
 8005822:	f001 fb0b 	bl	8006e3c <vPortExitCritical>
 8005826:	f000 fcf3 	bl	8006210 <vTaskSuspendAll>
 800582a:	f001 fae3 	bl	8006df4 <vPortEnterCritical>
 800582e:	f894 3044 	ldrb.w	r3, [r4, #68]	; 0x44
 8005832:	2bff      	cmp	r3, #255	; 0xff
 8005834:	d101      	bne.n	800583a <xQueueGenericSend+0xb8>
 8005836:	f884 9044 	strb.w	r9, [r4, #68]	; 0x44
 800583a:	f894 3045 	ldrb.w	r3, [r4, #69]	; 0x45
 800583e:	2bff      	cmp	r3, #255	; 0xff
 8005840:	d101      	bne.n	8005846 <xQueueGenericSend+0xc4>
 8005842:	f884 9045 	strb.w	r9, [r4, #69]	; 0x45
 8005846:	f001 faf9 	bl	8006e3c <vPortExitCritical>
 800584a:	a901      	add	r1, sp, #4
 800584c:	a802      	add	r0, sp, #8
 800584e:	f000 ff4d 	bl	80066ec <xTaskCheckForTimeOut>
 8005852:	2800      	cmp	r0, #0
 8005854:	d14a      	bne.n	80058ec <xQueueGenericSend+0x16a>
 8005856:	f001 facd 	bl	8006df4 <vPortEnterCritical>
 800585a:	6ba2      	ldr	r2, [r4, #56]	; 0x38
 800585c:	6be3      	ldr	r3, [r4, #60]	; 0x3c
 800585e:	429a      	cmp	r2, r3
 8005860:	d131      	bne.n	80058c6 <xQueueGenericSend+0x144>
 8005862:	f001 faeb 	bl	8006e3c <vPortExitCritical>
 8005866:	9901      	ldr	r1, [sp, #4]
 8005868:	f104 0010 	add.w	r0, r4, #16
 800586c:	f000 feb0 	bl	80065d0 <vTaskPlaceOnEventList>
 8005870:	4620      	mov	r0, r4
 8005872:	f7ff fead 	bl	80055d0 <prvUnlockQueue>
 8005876:	f000 fd71 	bl	800635c <xTaskResumeAll>
 800587a:	b360      	cbz	r0, 80058d6 <xQueueGenericSend+0x154>
 800587c:	2601      	movs	r6, #1
 800587e:	f001 fab9 	bl	8006df4 <vPortEnterCritical>
 8005882:	6ba2      	ldr	r2, [r4, #56]	; 0x38
 8005884:	6be3      	ldr	r3, [r4, #60]	; 0x3c
 8005886:	429a      	cmp	r2, r3
 8005888:	d301      	bcc.n	800588e <xQueueGenericSend+0x10c>
 800588a:	2f02      	cmp	r7, #2
 800588c:	d1bf      	bne.n	800580e <xQueueGenericSend+0x8c>
 800588e:	463a      	mov	r2, r7
 8005890:	4641      	mov	r1, r8
 8005892:	4620      	mov	r0, r4
 8005894:	f7ff fe52 	bl	800553c <prvCopyDataToQueue>
 8005898:	6a63      	ldr	r3, [r4, #36]	; 0x24
 800589a:	b11b      	cbz	r3, 80058a4 <xQueueGenericSend+0x122>
 800589c:	f104 0024 	add.w	r0, r4, #36	; 0x24
 80058a0:	f000 fed2 	bl	8006648 <xTaskRemoveFromEventList>
 80058a4:	b148      	cbz	r0, 80058ba <xQueueGenericSend+0x138>
 80058a6:	f04f 23e0 	mov.w	r3, #3758153728	; 0xe000e000
 80058aa:	f04f 5280 	mov.w	r2, #268435456	; 0x10000000
 80058ae:	f8c3 2d04 	str.w	r2, [r3, #3332]	; 0xd04
 80058b2:	f3bf 8f4f 	dsb	sy
 80058b6:	f3bf 8f6f 	isb	sy
 80058ba:	f001 fabf 	bl	8006e3c <vPortExitCritical>
 80058be:	2001      	movs	r0, #1
 80058c0:	b005      	add	sp, #20
 80058c2:	e8bd 83f0 	ldmia.w	sp!, {r4, r5, r6, r7, r8, r9, pc}
 80058c6:	f001 fab9 	bl	8006e3c <vPortExitCritical>
 80058ca:	4620      	mov	r0, r4
 80058cc:	f7ff fe80 	bl	80055d0 <prvUnlockQueue>
 80058d0:	f000 fd44 	bl	800635c <xTaskResumeAll>
 80058d4:	e7d2      	b.n	800587c <xQueueGenericSend+0xfa>
 80058d6:	f04f 23e0 	mov.w	r3, #3758153728	; 0xe000e000
 80058da:	f04f 5280 	mov.w	r2, #268435456	; 0x10000000
 80058de:	f8c3 2d04 	str.w	r2, [r3, #3332]	; 0xd04
 80058e2:	f3bf 8f4f 	dsb	sy
 80058e6:	f3bf 8f6f 	isb	sy
 80058ea:	e7c7      	b.n	800587c <xQueueGenericSend+0xfa>
 80058ec:	4620      	mov	r0, r4
 80058ee:	f7ff fe6f 	bl	80055d0 <prvUnlockQueue>
 80058f2:	f000 fd33 	bl	800635c <xTaskResumeAll>
 80058f6:	e78e      	b.n	8005816 <xQueueGenericSend+0x94>

080058f8 <xQueueGenericSendFromISR>:
 80058f8:	e92d 43f8 	stmdb	sp!, {r3, r4, r5, r6, r7, r8, r9, lr}
 80058fc:	4689      	mov	r9, r1
 80058fe:	4690      	mov	r8, r2
 8005900:	461f      	mov	r7, r3
 8005902:	4604      	mov	r4, r0
 8005904:	b950      	cbnz	r0, 800591c <xQueueGenericSendFromISR+0x24>
 8005906:	f04f 0350 	mov.w	r3, #80	; 0x50
 800590a:	b672      	cpsid	i
 800590c:	f383 8811 	msr	BASEPRI, r3
 8005910:	f3bf 8f6f 	isb	sy
 8005914:	f3bf 8f4f 	dsb	sy
 8005918:	b662      	cpsie	i
 800591a:	e7fe      	b.n	800591a <xQueueGenericSendFromISR+0x22>
 800591c:	b961      	cbnz	r1, 8005938 <xQueueGenericSendFromISR+0x40>
 800591e:	6c03      	ldr	r3, [r0, #64]	; 0x40
 8005920:	b153      	cbz	r3, 8005938 <xQueueGenericSendFromISR+0x40>
 8005922:	f04f 0350 	mov.w	r3, #80	; 0x50
 8005926:	b672      	cpsid	i
 8005928:	f383 8811 	msr	BASEPRI, r3
 800592c:	f3bf 8f6f 	isb	sy
 8005930:	f3bf 8f4f 	dsb	sy
 8005934:	b662      	cpsie	i
 8005936:	e7fe      	b.n	8005936 <xQueueGenericSendFromISR+0x3e>
 8005938:	2f02      	cmp	r7, #2
 800593a:	d10d      	bne.n	8005958 <xQueueGenericSendFromISR+0x60>
 800593c:	6be3      	ldr	r3, [r4, #60]	; 0x3c
 800593e:	2b01      	cmp	r3, #1
 8005940:	d00a      	beq.n	8005958 <xQueueGenericSendFromISR+0x60>
 8005942:	f04f 0350 	mov.w	r3, #80	; 0x50
 8005946:	b672      	cpsid	i
 8005948:	f383 8811 	msr	BASEPRI, r3
 800594c:	f3bf 8f6f 	isb	sy
 8005950:	f3bf 8f4f 	dsb	sy
 8005954:	b662      	cpsie	i
 8005956:	e7fe      	b.n	8005956 <xQueueGenericSendFromISR+0x5e>
 8005958:	f001 fb4c 	bl	8006ff4 <vPortValidateInterruptPriority>
 800595c:	f3ef 8611 	mrs	r6, BASEPRI
 8005960:	f04f 0350 	mov.w	r3, #80	; 0x50
 8005964:	b672      	cpsid	i
 8005966:	f383 8811 	msr	BASEPRI, r3
 800596a:	f3bf 8f6f 	isb	sy
 800596e:	f3bf 8f4f 	dsb	sy
 8005972:	b662      	cpsie	i
 8005974:	6ba2      	ldr	r2, [r4, #56]	; 0x38
 8005976:	6be3      	ldr	r3, [r4, #60]	; 0x3c
 8005978:	429a      	cmp	r2, r3
 800597a:	d301      	bcc.n	8005980 <xQueueGenericSendFromISR+0x88>
 800597c:	2f02      	cmp	r7, #2
 800597e:	d122      	bne.n	80059c6 <xQueueGenericSendFromISR+0xce>
 8005980:	f894 5045 	ldrb.w	r5, [r4, #69]	; 0x45
 8005984:	463a      	mov	r2, r7
 8005986:	4649      	mov	r1, r9
 8005988:	4620      	mov	r0, r4
 800598a:	b26d      	sxtb	r5, r5
 800598c:	f7ff fdd6 	bl	800553c <prvCopyDataToQueue>
 8005990:	1c6b      	adds	r3, r5, #1
 8005992:	d113      	bne.n	80059bc <xQueueGenericSendFromISR+0xc4>
 8005994:	6a63      	ldr	r3, [r4, #36]	; 0x24
 8005996:	b90b      	cbnz	r3, 800599c <xQueueGenericSendFromISR+0xa4>
 8005998:	2001      	movs	r0, #1
 800599a:	e00b      	b.n	80059b4 <xQueueGenericSendFromISR+0xbc>
 800599c:	f104 0024 	add.w	r0, r4, #36	; 0x24
 80059a0:	f000 fe52 	bl	8006648 <xTaskRemoveFromEventList>
 80059a4:	2800      	cmp	r0, #0
 80059a6:	d0f7      	beq.n	8005998 <xQueueGenericSendFromISR+0xa0>
 80059a8:	f1b8 0f00 	cmp.w	r8, #0
 80059ac:	d0f4      	beq.n	8005998 <xQueueGenericSendFromISR+0xa0>
 80059ae:	2001      	movs	r0, #1
 80059b0:	f8c8 0000 	str.w	r0, [r8]
 80059b4:	f386 8811 	msr	BASEPRI, r6
 80059b8:	e8bd 83f8 	ldmia.w	sp!, {r3, r4, r5, r6, r7, r8, r9, pc}
 80059bc:	3501      	adds	r5, #1
 80059be:	b26d      	sxtb	r5, r5
 80059c0:	f884 5045 	strb.w	r5, [r4, #69]	; 0x45
 80059c4:	e7e8      	b.n	8005998 <xQueueGenericSendFromISR+0xa0>
 80059c6:	2000      	movs	r0, #0
 80059c8:	e7f4      	b.n	80059b4 <xQueueGenericSendFromISR+0xbc>

080059ca <xQueueReceive>:
 80059ca:	e92d 41ff 	stmdb	sp!, {r0, r1, r2, r3, r4, r5, r6, r7, r8, lr}
 80059ce:	460f      	mov	r7, r1
 80059d0:	4604      	mov	r4, r0
 80059d2:	9201      	str	r2, [sp, #4]
 80059d4:	b950      	cbnz	r0, 80059ec <xQueueReceive+0x22>
 80059d6:	f04f 0350 	mov.w	r3, #80	; 0x50
 80059da:	b672      	cpsid	i
 80059dc:	f383 8811 	msr	BASEPRI, r3
 80059e0:	f3bf 8f6f 	isb	sy
 80059e4:	f3bf 8f4f 	dsb	sy
 80059e8:	b662      	cpsie	i
 80059ea:	e7fe      	b.n	80059ea <xQueueReceive+0x20>
 80059ec:	b961      	cbnz	r1, 8005a08 <xQueueReceive+0x3e>
 80059ee:	6c03      	ldr	r3, [r0, #64]	; 0x40
 80059f0:	b153      	cbz	r3, 8005a08 <xQueueReceive+0x3e>
 80059f2:	f04f 0350 	mov.w	r3, #80	; 0x50
 80059f6:	b672      	cpsid	i
 80059f8:	f383 8811 	msr	BASEPRI, r3
 80059fc:	f3bf 8f6f 	isb	sy
 8005a00:	f3bf 8f4f 	dsb	sy
 8005a04:	b662      	cpsie	i
 8005a06:	e7fe      	b.n	8005a06 <xQueueReceive+0x3c>
 8005a08:	f000 feb6 	bl	8006778 <xTaskGetSchedulerState>
 8005a0c:	4606      	mov	r6, r0
 8005a0e:	b960      	cbnz	r0, 8005a2a <xQueueReceive+0x60>
 8005a10:	9b01      	ldr	r3, [sp, #4]
 8005a12:	b15b      	cbz	r3, 8005a2c <xQueueReceive+0x62>
 8005a14:	f04f 0350 	mov.w	r3, #80	; 0x50
 8005a18:	b672      	cpsid	i
 8005a1a:	f383 8811 	msr	BASEPRI, r3
 8005a1e:	f3bf 8f6f 	isb	sy
 8005a22:	f3bf 8f4f 	dsb	sy
 8005a26:	b662      	cpsie	i
 8005a28:	e7fe      	b.n	8005a28 <xQueueReceive+0x5e>
 8005a2a:	2600      	movs	r6, #0
 8005a2c:	f04f 0800 	mov.w	r8, #0
 8005a30:	e03d      	b.n	8005aae <xQueueReceive+0xe4>
 8005a32:	9d01      	ldr	r5, [sp, #4]
 8005a34:	b91d      	cbnz	r5, 8005a3e <xQueueReceive+0x74>
 8005a36:	f001 fa01 	bl	8006e3c <vPortExitCritical>
 8005a3a:	2000      	movs	r0, #0
 8005a3c:	e056      	b.n	8005aec <xQueueReceive+0x122>
 8005a3e:	b916      	cbnz	r6, 8005a46 <xQueueReceive+0x7c>
 8005a40:	a802      	add	r0, sp, #8
 8005a42:	f000 fe47 	bl	80066d4 <vTaskInternalSetTimeOutState>
 8005a46:	f001 f9f9 	bl	8006e3c <vPortExitCritical>
 8005a4a:	f000 fbe1 	bl	8006210 <vTaskSuspendAll>
 8005a4e:	f001 f9d1 	bl	8006df4 <vPortEnterCritical>
 8005a52:	f894 3044 	ldrb.w	r3, [r4, #68]	; 0x44
 8005a56:	2bff      	cmp	r3, #255	; 0xff
 8005a58:	d101      	bne.n	8005a5e <xQueueReceive+0x94>
 8005a5a:	f884 8044 	strb.w	r8, [r4, #68]	; 0x44
 8005a5e:	f894 3045 	ldrb.w	r3, [r4, #69]	; 0x45
 8005a62:	2bff      	cmp	r3, #255	; 0xff
 8005a64:	d101      	bne.n	8005a6a <xQueueReceive+0xa0>
 8005a66:	f884 8045 	strb.w	r8, [r4, #69]	; 0x45
 8005a6a:	f001 f9e7 	bl	8006e3c <vPortExitCritical>
 8005a6e:	a901      	add	r1, sp, #4
 8005a70:	a802      	add	r0, sp, #8
 8005a72:	f000 fe3b 	bl	80066ec <xTaskCheckForTimeOut>
 8005a76:	2800      	cmp	r0, #0
 8005a78:	d141      	bne.n	8005afe <xQueueReceive+0x134>
 8005a7a:	4620      	mov	r0, r4
 8005a7c:	f7ff fd53 	bl	8005526 <prvIsQueueEmpty>
 8005a80:	b3b8      	cbz	r0, 8005af2 <xQueueReceive+0x128>
 8005a82:	9901      	ldr	r1, [sp, #4]
 8005a84:	f104 0024 	add.w	r0, r4, #36	; 0x24
 8005a88:	f000 fda2 	bl	80065d0 <vTaskPlaceOnEventList>
 8005a8c:	4620      	mov	r0, r4
 8005a8e:	f7ff fd9f 	bl	80055d0 <prvUnlockQueue>
 8005a92:	f000 fc63 	bl	800635c <xTaskResumeAll>
 8005a96:	b948      	cbnz	r0, 8005aac <xQueueReceive+0xe2>
 8005a98:	f04f 23e0 	mov.w	r3, #3758153728	; 0xe000e000
 8005a9c:	f04f 5280 	mov.w	r2, #268435456	; 0x10000000
 8005aa0:	f8c3 2d04 	str.w	r2, [r3, #3332]	; 0xd04
 8005aa4:	f3bf 8f4f 	dsb	sy
 8005aa8:	f3bf 8f6f 	isb	sy
 8005aac:	2601      	movs	r6, #1
 8005aae:	f001 f9a1 	bl	8006df4 <vPortEnterCritical>
 8005ab2:	6ba5      	ldr	r5, [r4, #56]	; 0x38
 8005ab4:	2d00      	cmp	r5, #0
 8005ab6:	d0bc      	beq.n	8005a32 <xQueueReceive+0x68>
 8005ab8:	3d01      	subs	r5, #1
 8005aba:	4639      	mov	r1, r7
 8005abc:	4620      	mov	r0, r4
 8005abe:	f7ff fd72 	bl	80055a6 <prvCopyDataFromQueue>
 8005ac2:	63a5      	str	r5, [r4, #56]	; 0x38
 8005ac4:	6923      	ldr	r3, [r4, #16]
 8005ac6:	b173      	cbz	r3, 8005ae6 <xQueueReceive+0x11c>
 8005ac8:	f104 0010 	add.w	r0, r4, #16
 8005acc:	f000 fdbc 	bl	8006648 <xTaskRemoveFromEventList>
 8005ad0:	b148      	cbz	r0, 8005ae6 <xQueueReceive+0x11c>
 8005ad2:	f04f 23e0 	mov.w	r3, #3758153728	; 0xe000e000
 8005ad6:	f04f 5280 	mov.w	r2, #268435456	; 0x10000000
 8005ada:	f8c3 2d04 	str.w	r2, [r3, #3332]	; 0xd04
 8005ade:	f3bf 8f4f 	dsb	sy
 8005ae2:	f3bf 8f6f 	isb	sy
 8005ae6:	f001 f9a9 	bl	8006e3c <vPortExitCritical>
 8005aea:	2001      	movs	r0, #1
 8005aec:	b004      	add	sp, #16
 8005aee:	e8bd 81f0 	ldmia.w	sp!, {r4, r5, r6, r7, r8, pc}
 8005af2:	4620      	mov	r0, r4
 8005af4:	f7ff fd6c 	bl	80055d0 <prvUnlockQueue>
 8005af8:	f000 fc30 	bl	800635c <xTaskResumeAll>
 8005afc:	e7d6      	b.n	8005aac <xQueueReceive+0xe2>
 8005afe:	4620      	mov	r0, r4
 8005b00:	f7ff fd66 	bl	80055d0 <prvUnlockQueue>
 8005b04:	f000 fc2a 	bl	800635c <xTaskResumeAll>
 8005b08:	4620      	mov	r0, r4
 8005b0a:	f7ff fd0c 	bl	8005526 <prvIsQueueEmpty>
 8005b0e:	2800      	cmp	r0, #0
 8005b10:	d0cc      	beq.n	8005aac <xQueueReceive+0xe2>
 8005b12:	e792      	b.n	8005a3a <xQueueReceive+0x70>

08005b14 <vQueueAddToRegistry>:
 8005b14:	2300      	movs	r3, #0
 8005b16:	4a07      	ldr	r2, [pc, #28]	; (8005b34 <vQueueAddToRegistry+0x20>)
 8005b18:	b510      	push	{r4, lr}
 8005b1a:	f852 4033 	ldr.w	r4, [r2, r3, lsl #3]
 8005b1e:	b92c      	cbnz	r4, 8005b2c <vQueueAddToRegistry+0x18>
 8005b20:	f842 1033 	str.w	r1, [r2, r3, lsl #3]
 8005b24:	eb02 02c3 	add.w	r2, r2, r3, lsl #3
 8005b28:	6050      	str	r0, [r2, #4]
 8005b2a:	bd10      	pop	{r4, pc}
 8005b2c:	3301      	adds	r3, #1
 8005b2e:	2b08      	cmp	r3, #8
 8005b30:	d1f3      	bne.n	8005b1a <vQueueAddToRegistry+0x6>
 8005b32:	e7fa      	b.n	8005b2a <vQueueAddToRegistry+0x16>
 8005b34:	20000f38 	.word	0x20000f38

08005b38 <vQueueWaitForMessageRestricted>:
 8005b38:	b570      	push	{r4, r5, r6, lr}
 8005b3a:	4604      	mov	r4, r0
 8005b3c:	460d      	mov	r5, r1
 8005b3e:	4616      	mov	r6, r2
 8005b40:	f001 f958 	bl	8006df4 <vPortEnterCritical>
 8005b44:	f894 3044 	ldrb.w	r3, [r4, #68]	; 0x44
 8005b48:	2bff      	cmp	r3, #255	; 0xff
 8005b4a:	d102      	bne.n	8005b52 <vQueueWaitForMessageRestricted+0x1a>
 8005b4c:	2300      	movs	r3, #0
 8005b4e:	f884 3044 	strb.w	r3, [r4, #68]	; 0x44
 8005b52:	f894 3045 	ldrb.w	r3, [r4, #69]	; 0x45
 8005b56:	2bff      	cmp	r3, #255	; 0xff
 8005b58:	d102      	bne.n	8005b60 <vQueueWaitForMessageRestricted+0x28>
 8005b5a:	2300      	movs	r3, #0
 8005b5c:	f884 3045 	strb.w	r3, [r4, #69]	; 0x45
 8005b60:	f001 f96c 	bl	8006e3c <vPortExitCritical>
 8005b64:	6ba3      	ldr	r3, [r4, #56]	; 0x38
 8005b66:	b92b      	cbnz	r3, 8005b74 <vQueueWaitForMessageRestricted+0x3c>
 8005b68:	4632      	mov	r2, r6
 8005b6a:	4629      	mov	r1, r5
 8005b6c:	f104 0024 	add.w	r0, r4, #36	; 0x24
 8005b70:	f000 fd4a 	bl	8006608 <vTaskPlaceOnEventListRestricted>
 8005b74:	4620      	mov	r0, r4
 8005b76:	e8bd 4070 	ldmia.w	sp!, {r4, r5, r6, lr}
 8005b7a:	f7ff bd29 	b.w	80055d0 <prvUnlockQueue>
	...

08005b80 <prvAddNewTaskToReadyList>:
 8005b80:	e92d 41f0 	stmdb	sp!, {r4, r5, r6, r7, r8, lr}
 8005b84:	4604      	mov	r4, r0
 8005b86:	f001 f935 	bl	8006df4 <vPortEnterCritical>
 8005b8a:	4b2f      	ldr	r3, [pc, #188]	; (8005c48 <prvAddNewTaskToReadyList+0xc8>)
 8005b8c:	4e2f      	ldr	r6, [pc, #188]	; (8005c4c <prvAddNewTaskToReadyList+0xcc>)
 8005b8e:	681a      	ldr	r2, [r3, #0]
 8005b90:	4f2f      	ldr	r7, [pc, #188]	; (8005c50 <prvAddNewTaskToReadyList+0xd0>)
 8005b92:	3201      	adds	r2, #1
 8005b94:	601a      	str	r2, [r3, #0]
 8005b96:	6835      	ldr	r5, [r6, #0]
 8005b98:	2d00      	cmp	r5, #0
 8005b9a:	d14a      	bne.n	8005c32 <prvAddNewTaskToReadyList+0xb2>
 8005b9c:	6034      	str	r4, [r6, #0]
 8005b9e:	681b      	ldr	r3, [r3, #0]
 8005ba0:	2b01      	cmp	r3, #1
 8005ba2:	d11f      	bne.n	8005be4 <prvAddNewTaskToReadyList+0x64>
 8005ba4:	46b8      	mov	r8, r7
 8005ba6:	3501      	adds	r5, #1
 8005ba8:	4640      	mov	r0, r8
 8005baa:	f7ff fc7b 	bl	80054a4 <vListInitialise>
 8005bae:	f108 0814 	add.w	r8, r8, #20
 8005bb2:	2d38      	cmp	r5, #56	; 0x38
 8005bb4:	d1f7      	bne.n	8005ba6 <prvAddNewTaskToReadyList+0x26>
 8005bb6:	f8df 80c0 	ldr.w	r8, [pc, #192]	; 8005c78 <prvAddNewTaskToReadyList+0xf8>
 8005bba:	4d26      	ldr	r5, [pc, #152]	; (8005c54 <prvAddNewTaskToReadyList+0xd4>)
 8005bbc:	4640      	mov	r0, r8
 8005bbe:	f7ff fc71 	bl	80054a4 <vListInitialise>
 8005bc2:	4628      	mov	r0, r5
 8005bc4:	f7ff fc6e 	bl	80054a4 <vListInitialise>
 8005bc8:	4823      	ldr	r0, [pc, #140]	; (8005c58 <prvAddNewTaskToReadyList+0xd8>)
 8005bca:	f7ff fc6b 	bl	80054a4 <vListInitialise>
 8005bce:	4823      	ldr	r0, [pc, #140]	; (8005c5c <prvAddNewTaskToReadyList+0xdc>)
 8005bd0:	f7ff fc68 	bl	80054a4 <vListInitialise>
 8005bd4:	4822      	ldr	r0, [pc, #136]	; (8005c60 <prvAddNewTaskToReadyList+0xe0>)
 8005bd6:	f7ff fc65 	bl	80054a4 <vListInitialise>
 8005bda:	4b22      	ldr	r3, [pc, #136]	; (8005c64 <prvAddNewTaskToReadyList+0xe4>)
 8005bdc:	f8c3 8000 	str.w	r8, [r3]
 8005be0:	4b21      	ldr	r3, [pc, #132]	; (8005c68 <prvAddNewTaskToReadyList+0xe8>)
 8005be2:	601d      	str	r5, [r3, #0]
 8005be4:	4a21      	ldr	r2, [pc, #132]	; (8005c6c <prvAddNewTaskToReadyList+0xec>)
 8005be6:	6813      	ldr	r3, [r2, #0]
 8005be8:	3301      	adds	r3, #1
 8005bea:	6013      	str	r3, [r2, #0]
 8005bec:	4a20      	ldr	r2, [pc, #128]	; (8005c70 <prvAddNewTaskToReadyList+0xf0>)
 8005bee:	6463      	str	r3, [r4, #68]	; 0x44
 8005bf0:	6811      	ldr	r1, [r2, #0]
 8005bf2:	6ae3      	ldr	r3, [r4, #44]	; 0x2c
 8005bf4:	428b      	cmp	r3, r1
 8005bf6:	d900      	bls.n	8005bfa <prvAddNewTaskToReadyList+0x7a>
 8005bf8:	6013      	str	r3, [r2, #0]
 8005bfa:	2014      	movs	r0, #20
 8005bfc:	1d21      	adds	r1, r4, #4
 8005bfe:	fb00 7003 	mla	r0, r0, r3, r7
 8005c02:	f7ff fc5d 	bl	80054c0 <vListInsertEnd>
 8005c06:	f001 f919 	bl	8006e3c <vPortExitCritical>
 8005c0a:	4b1a      	ldr	r3, [pc, #104]	; (8005c74 <prvAddNewTaskToReadyList+0xf4>)
 8005c0c:	681b      	ldr	r3, [r3, #0]
 8005c0e:	b173      	cbz	r3, 8005c2e <prvAddNewTaskToReadyList+0xae>
 8005c10:	6833      	ldr	r3, [r6, #0]
 8005c12:	6ada      	ldr	r2, [r3, #44]	; 0x2c
 8005c14:	6ae3      	ldr	r3, [r4, #44]	; 0x2c
 8005c16:	429a      	cmp	r2, r3
 8005c18:	d209      	bcs.n	8005c2e <prvAddNewTaskToReadyList+0xae>
 8005c1a:	f04f 23e0 	mov.w	r3, #3758153728	; 0xe000e000
 8005c1e:	f04f 5280 	mov.w	r2, #268435456	; 0x10000000
 8005c22:	f8c3 2d04 	str.w	r2, [r3, #3332]	; 0xd04
 8005c26:	f3bf 8f4f 	dsb	sy
 8005c2a:	f3bf 8f6f 	isb	sy
 8005c2e:	e8bd 81f0 	ldmia.w	sp!, {r4, r5, r6, r7, r8, pc}
 8005c32:	4b10      	ldr	r3, [pc, #64]	; (8005c74 <prvAddNewTaskToReadyList+0xf4>)
 8005c34:	681a      	ldr	r2, [r3, #0]
 8005c36:	6ae3      	ldr	r3, [r4, #44]	; 0x2c
 8005c38:	2a00      	cmp	r2, #0
 8005c3a:	d1d3      	bne.n	8005be4 <prvAddNewTaskToReadyList+0x64>
 8005c3c:	6832      	ldr	r2, [r6, #0]
 8005c3e:	6ad2      	ldr	r2, [r2, #44]	; 0x2c
 8005c40:	429a      	cmp	r2, r3
 8005c42:	d8cf      	bhi.n	8005be4 <prvAddNewTaskToReadyList+0x64>
 8005c44:	6034      	str	r4, [r6, #0]
 8005c46:	e7cd      	b.n	8005be4 <prvAddNewTaskToReadyList+0x64>
 8005c48:	200013e4 	.word	0x200013e4
 8005c4c:	20000f78 	.word	0x20000f78
 8005c50:	20000f84 	.word	0x20000f84
 8005c54:	20001410 	.word	0x20001410
 8005c58:	2000142c 	.word	0x2000142c
 8005c5c:	20001458 	.word	0x20001458
 8005c60:	20001444 	.word	0x20001444
 8005c64:	20000f7c 	.word	0x20000f7c
 8005c68:	20000f80 	.word	0x20000f80
 8005c6c:	200013f4 	.word	0x200013f4
 8005c70:	200013f8 	.word	0x200013f8
 8005c74:	20001440 	.word	0x20001440
 8005c78:	200013fc 	.word	0x200013fc

08005c7c <prvAddCurrentTaskToDelayedList>:
 8005c7c:	b5f8      	push	{r3, r4, r5, r6, r7, lr}
 8005c7e:	4b15      	ldr	r3, [pc, #84]	; (8005cd4 <prvAddCurrentTaskToDelayedList+0x58>)
 8005c80:	4606      	mov	r6, r0
 8005c82:	4d15      	ldr	r5, [pc, #84]	; (8005cd8 <prvAddCurrentTaskToDelayedList+0x5c>)
 8005c84:	460f      	mov	r7, r1
 8005c86:	681c      	ldr	r4, [r3, #0]
 8005c88:	6828      	ldr	r0, [r5, #0]
 8005c8a:	3004      	adds	r0, #4
 8005c8c:	f7ff fc3b 	bl	8005506 <uxListRemove>
 8005c90:	1c73      	adds	r3, r6, #1
 8005c92:	d107      	bne.n	8005ca4 <prvAddCurrentTaskToDelayedList+0x28>
 8005c94:	b137      	cbz	r7, 8005ca4 <prvAddCurrentTaskToDelayedList+0x28>
 8005c96:	6829      	ldr	r1, [r5, #0]
 8005c98:	4810      	ldr	r0, [pc, #64]	; (8005cdc <prvAddCurrentTaskToDelayedList+0x60>)
 8005c9a:	3104      	adds	r1, #4
 8005c9c:	e8bd 40f8 	ldmia.w	sp!, {r3, r4, r5, r6, r7, lr}
 8005ca0:	f7ff bc0e 	b.w	80054c0 <vListInsertEnd>
 8005ca4:	19a4      	adds	r4, r4, r6
 8005ca6:	682b      	ldr	r3, [r5, #0]
 8005ca8:	605c      	str	r4, [r3, #4]
 8005caa:	d307      	bcc.n	8005cbc <prvAddCurrentTaskToDelayedList+0x40>
 8005cac:	4b0c      	ldr	r3, [pc, #48]	; (8005ce0 <prvAddCurrentTaskToDelayedList+0x64>)
 8005cae:	6818      	ldr	r0, [r3, #0]
 8005cb0:	6829      	ldr	r1, [r5, #0]
 8005cb2:	e8bd 40f8 	ldmia.w	sp!, {r3, r4, r5, r6, r7, lr}
 8005cb6:	3104      	adds	r1, #4
 8005cb8:	f7ff bc0e 	b.w	80054d8 <vListInsert>
 8005cbc:	4b09      	ldr	r3, [pc, #36]	; (8005ce4 <prvAddCurrentTaskToDelayedList+0x68>)
 8005cbe:	6818      	ldr	r0, [r3, #0]
 8005cc0:	6829      	ldr	r1, [r5, #0]
 8005cc2:	3104      	adds	r1, #4
 8005cc4:	f7ff fc08 	bl	80054d8 <vListInsert>
 8005cc8:	4b07      	ldr	r3, [pc, #28]	; (8005ce8 <prvAddCurrentTaskToDelayedList+0x6c>)
 8005cca:	681a      	ldr	r2, [r3, #0]
 8005ccc:	42a2      	cmp	r2, r4
 8005cce:	d900      	bls.n	8005cd2 <prvAddCurrentTaskToDelayedList+0x56>
 8005cd0:	601c      	str	r4, [r3, #0]
 8005cd2:	bdf8      	pop	{r3, r4, r5, r6, r7, pc}
 8005cd4:	2000146c 	.word	0x2000146c
 8005cd8:	20000f78 	.word	0x20000f78
 8005cdc:	20001444 	.word	0x20001444
 8005ce0:	20000f80 	.word	0x20000f80
 8005ce4:	20000f7c 	.word	0x20000f7c
 8005ce8:	20001424 	.word	0x20001424

08005cec <prvTaskIsTaskSuspended>:
 8005cec:	b950      	cbnz	r0, 8005d04 <prvTaskIsTaskSuspended+0x18>
 8005cee:	f04f 0350 	mov.w	r3, #80	; 0x50
 8005cf2:	b672      	cpsid	i
 8005cf4:	f383 8811 	msr	BASEPRI, r3
 8005cf8:	f3bf 8f6f 	isb	sy
 8005cfc:	f3bf 8f4f 	dsb	sy
 8005d00:	b662      	cpsie	i
 8005d02:	e7fe      	b.n	8005d02 <prvTaskIsTaskSuspended+0x16>
 8005d04:	6942      	ldr	r2, [r0, #20]
 8005d06:	4b06      	ldr	r3, [pc, #24]	; (8005d20 <prvTaskIsTaskSuspended+0x34>)
 8005d08:	429a      	cmp	r2, r3
 8005d0a:	d107      	bne.n	8005d1c <prvTaskIsTaskSuspended+0x30>
 8005d0c:	6a80      	ldr	r0, [r0, #40]	; 0x28
 8005d0e:	4b05      	ldr	r3, [pc, #20]	; (8005d24 <prvTaskIsTaskSuspended+0x38>)
 8005d10:	4298      	cmp	r0, r3
 8005d12:	d003      	beq.n	8005d1c <prvTaskIsTaskSuspended+0x30>
 8005d14:	fab0 f080 	clz	r0, r0
 8005d18:	0940      	lsrs	r0, r0, #5
 8005d1a:	4770      	bx	lr
 8005d1c:	2000      	movs	r0, #0
 8005d1e:	4770      	bx	lr
 8005d20:	20001444 	.word	0x20001444
 8005d24:	2000142c 	.word	0x2000142c

08005d28 <prvResetNextTaskUnblockTime>:
 8005d28:	4a06      	ldr	r2, [pc, #24]	; (8005d44 <prvResetNextTaskUnblockTime+0x1c>)
 8005d2a:	6813      	ldr	r3, [r2, #0]
 8005d2c:	6819      	ldr	r1, [r3, #0]
 8005d2e:	4b06      	ldr	r3, [pc, #24]	; (8005d48 <prvResetNextTaskUnblockTime+0x20>)
 8005d30:	b919      	cbnz	r1, 8005d3a <prvResetNextTaskUnblockTime+0x12>
 8005d32:	f04f 32ff 	mov.w	r2, #4294967295
 8005d36:	601a      	str	r2, [r3, #0]
 8005d38:	4770      	bx	lr
 8005d3a:	6812      	ldr	r2, [r2, #0]
 8005d3c:	68d2      	ldr	r2, [r2, #12]
 8005d3e:	68d2      	ldr	r2, [r2, #12]
 8005d40:	6852      	ldr	r2, [r2, #4]
 8005d42:	e7f8      	b.n	8005d36 <prvResetNextTaskUnblockTime+0xe>
 8005d44:	20000f7c 	.word	0x20000f7c
 8005d48:	20001424 	.word	0x20001424

08005d4c <prvDeleteTCB>:
 8005d4c:	b510      	push	{r4, lr}
 8005d4e:	4604      	mov	r4, r0
 8005d50:	3054      	adds	r0, #84	; 0x54
 8005d52:	f001 fba3 	bl	800749c <_reclaim_reent>
 8005d56:	f894 30a5 	ldrb.w	r3, [r4, #165]	; 0xa5
 8005d5a:	b93b      	cbnz	r3, 8005d6c <prvDeleteTCB+0x20>
 8005d5c:	6b20      	ldr	r0, [r4, #48]	; 0x30
 8005d5e:	f001 fa35 	bl	80071cc <vPortFree>
 8005d62:	4620      	mov	r0, r4
 8005d64:	e8bd 4010 	ldmia.w	sp!, {r4, lr}
 8005d68:	f001 ba30 	b.w	80071cc <vPortFree>
 8005d6c:	2b01      	cmp	r3, #1
 8005d6e:	d0f8      	beq.n	8005d62 <prvDeleteTCB+0x16>
 8005d70:	2b02      	cmp	r3, #2
 8005d72:	d00a      	beq.n	8005d8a <prvDeleteTCB+0x3e>
 8005d74:	f04f 0350 	mov.w	r3, #80	; 0x50
 8005d78:	b672      	cpsid	i
 8005d7a:	f383 8811 	msr	BASEPRI, r3
 8005d7e:	f3bf 8f6f 	isb	sy
 8005d82:	f3bf 8f4f 	dsb	sy
 8005d86:	b662      	cpsie	i
 8005d88:	e7fe      	b.n	8005d88 <prvDeleteTCB+0x3c>
 8005d8a:	bd10      	pop	{r4, pc}

08005d8c <prvIdleTask>:
 8005d8c:	b580      	push	{r7, lr}
 8005d8e:	4c13      	ldr	r4, [pc, #76]	; (8005ddc <prvIdleTask+0x50>)
 8005d90:	4f13      	ldr	r7, [pc, #76]	; (8005de0 <prvIdleTask+0x54>)
 8005d92:	4d14      	ldr	r5, [pc, #80]	; (8005de4 <prvIdleTask+0x58>)
 8005d94:	6823      	ldr	r3, [r4, #0]
 8005d96:	b973      	cbnz	r3, 8005db6 <prvIdleTask+0x2a>
 8005d98:	4b13      	ldr	r3, [pc, #76]	; (8005de8 <prvIdleTask+0x5c>)
 8005d9a:	681b      	ldr	r3, [r3, #0]
 8005d9c:	2b01      	cmp	r3, #1
 8005d9e:	d9f8      	bls.n	8005d92 <prvIdleTask+0x6>
 8005da0:	f04f 23e0 	mov.w	r3, #3758153728	; 0xe000e000
 8005da4:	f04f 5280 	mov.w	r2, #268435456	; 0x10000000
 8005da8:	f8c3 2d04 	str.w	r2, [r3, #3332]	; 0xd04
 8005dac:	f3bf 8f4f 	dsb	sy
 8005db0:	f3bf 8f6f 	isb	sy
 8005db4:	e7ed      	b.n	8005d92 <prvIdleTask+0x6>
 8005db6:	f001 f81d 	bl	8006df4 <vPortEnterCritical>
 8005dba:	68fb      	ldr	r3, [r7, #12]
 8005dbc:	68de      	ldr	r6, [r3, #12]
 8005dbe:	1d30      	adds	r0, r6, #4
 8005dc0:	f7ff fba1 	bl	8005506 <uxListRemove>
 8005dc4:	682b      	ldr	r3, [r5, #0]
 8005dc6:	3b01      	subs	r3, #1
 8005dc8:	602b      	str	r3, [r5, #0]
 8005dca:	6823      	ldr	r3, [r4, #0]
 8005dcc:	3b01      	subs	r3, #1
 8005dce:	6023      	str	r3, [r4, #0]
 8005dd0:	f001 f834 	bl	8006e3c <vPortExitCritical>
 8005dd4:	4630      	mov	r0, r6
 8005dd6:	f7ff ffb9 	bl	8005d4c <prvDeleteTCB>
 8005dda:	e7db      	b.n	8005d94 <prvIdleTask+0x8>
 8005ddc:	200013e8 	.word	0x200013e8
 8005de0:	20001458 	.word	0x20001458
 8005de4:	200013e4 	.word	0x200013e4
 8005de8:	20000f84 	.word	0x20000f84

08005dec <prvInitialiseNewTask.constprop.0>:
 8005dec:	e92d 47f0 	stmdb	sp!, {r4, r5, r6, r7, r8, r9, sl, lr}
 8005df0:	ea4f 0982 	mov.w	r9, r2, lsl #2
 8005df4:	4606      	mov	r6, r0
 8005df6:	460d      	mov	r5, r1
 8005df8:	21a5      	movs	r1, #165	; 0xa5
 8005dfa:	464a      	mov	r2, r9
 8005dfc:	461f      	mov	r7, r3
 8005dfe:	f1a9 0904 	sub.w	r9, r9, #4
 8005e02:	e9dd 8409 	ldrd	r8, r4, [sp, #36]	; 0x24
 8005e06:	6b20      	ldr	r0, [r4, #48]	; 0x30
 8005e08:	f001 fb21 	bl	800744e <memset>
 8005e0c:	6b23      	ldr	r3, [r4, #48]	; 0x30
 8005e0e:	444b      	add	r3, r9
 8005e10:	f023 0907 	bic.w	r9, r3, #7
 8005e14:	2d00      	cmp	r5, #0
 8005e16:	d041      	beq.n	8005e9c <prvInitialiseNewTask.constprop.0+0xb0>
 8005e18:	1e6b      	subs	r3, r5, #1
 8005e1a:	f104 0233 	add.w	r2, r4, #51	; 0x33
 8005e1e:	350f      	adds	r5, #15
 8005e20:	f813 1f01 	ldrb.w	r1, [r3, #1]!
 8005e24:	f802 1f01 	strb.w	r1, [r2, #1]!
 8005e28:	b109      	cbz	r1, 8005e2e <prvInitialiseNewTask.constprop.0+0x42>
 8005e2a:	42ab      	cmp	r3, r5
 8005e2c:	d1f8      	bne.n	8005e20 <prvInitialiseNewTask.constprop.0+0x34>
 8005e2e:	2300      	movs	r3, #0
 8005e30:	f884 3043 	strb.w	r3, [r4, #67]	; 0x43
 8005e34:	9d08      	ldr	r5, [sp, #32]
 8005e36:	f04f 0a00 	mov.w	sl, #0
 8005e3a:	1d20      	adds	r0, r4, #4
 8005e3c:	2d37      	cmp	r5, #55	; 0x37
 8005e3e:	f8c4 a050 	str.w	sl, [r4, #80]	; 0x50
 8005e42:	bf28      	it	cs
 8005e44:	2537      	movcs	r5, #55	; 0x37
 8005e46:	62e5      	str	r5, [r4, #44]	; 0x2c
 8005e48:	64e5      	str	r5, [r4, #76]	; 0x4c
 8005e4a:	f1c5 0538 	rsb	r5, r5, #56	; 0x38
 8005e4e:	f7ff fb34 	bl	80054ba <vListInitialiseItem>
 8005e52:	f104 0018 	add.w	r0, r4, #24
 8005e56:	f7ff fb30 	bl	80054ba <vListInitialiseItem>
 8005e5a:	224c      	movs	r2, #76	; 0x4c
 8005e5c:	4651      	mov	r1, sl
 8005e5e:	f8c4 a0a0 	str.w	sl, [r4, #160]	; 0xa0
 8005e62:	f104 0054 	add.w	r0, r4, #84	; 0x54
 8005e66:	6124      	str	r4, [r4, #16]
 8005e68:	61a5      	str	r5, [r4, #24]
 8005e6a:	6264      	str	r4, [r4, #36]	; 0x24
 8005e6c:	f884 a0a4 	strb.w	sl, [r4, #164]	; 0xa4
 8005e70:	f001 faed 	bl	800744e <memset>
 8005e74:	4b0b      	ldr	r3, [pc, #44]	; (8005ea4 <prvInitialiseNewTask.constprop.0+0xb8>)
 8005e76:	4631      	mov	r1, r6
 8005e78:	4648      	mov	r0, r9
 8005e7a:	f103 0268 	add.w	r2, r3, #104	; 0x68
 8005e7e:	65a3      	str	r3, [r4, #88]	; 0x58
 8005e80:	33d0      	adds	r3, #208	; 0xd0
 8005e82:	65e2      	str	r2, [r4, #92]	; 0x5c
 8005e84:	463a      	mov	r2, r7
 8005e86:	6623      	str	r3, [r4, #96]	; 0x60
 8005e88:	f000 ff8c 	bl	8006da4 <pxPortInitialiseStack>
 8005e8c:	6020      	str	r0, [r4, #0]
 8005e8e:	f1b8 0f00 	cmp.w	r8, #0
 8005e92:	d001      	beq.n	8005e98 <prvInitialiseNewTask.constprop.0+0xac>
 8005e94:	f8c8 4000 	str.w	r4, [r8]
 8005e98:	e8bd 87f0 	ldmia.w	sp!, {r4, r5, r6, r7, r8, r9, sl, pc}
 8005e9c:	f884 5034 	strb.w	r5, [r4, #52]	; 0x34
 8005ea0:	e7c8      	b.n	8005e34 <prvInitialiseNewTask.constprop.0+0x48>
 8005ea2:	bf00      	nop
 8005ea4:	200051c0 	.word	0x200051c0

08005ea8 <xTaskCreateStatic>:
 8005ea8:	b570      	push	{r4, r5, r6, lr}
 8005eaa:	b086      	sub	sp, #24
 8005eac:	e9dd 540b 	ldrd	r5, r4, [sp, #44]	; 0x2c
 8005eb0:	b955      	cbnz	r5, 8005ec8 <xTaskCreateStatic+0x20>
 8005eb2:	f04f 0350 	mov.w	r3, #80	; 0x50
 8005eb6:	b672      	cpsid	i
 8005eb8:	f383 8811 	msr	BASEPRI, r3
 8005ebc:	f3bf 8f6f 	isb	sy
 8005ec0:	f3bf 8f4f 	dsb	sy
 8005ec4:	b662      	cpsie	i
 8005ec6:	e7fe      	b.n	8005ec6 <xTaskCreateStatic+0x1e>
 8005ec8:	b954      	cbnz	r4, 8005ee0 <xTaskCreateStatic+0x38>
 8005eca:	f04f 0350 	mov.w	r3, #80	; 0x50
 8005ece:	b672      	cpsid	i
 8005ed0:	f383 8811 	msr	BASEPRI, r3
 8005ed4:	f3bf 8f6f 	isb	sy
 8005ed8:	f3bf 8f4f 	dsb	sy
 8005edc:	b662      	cpsie	i
 8005ede:	e7fe      	b.n	8005ede <xTaskCreateStatic+0x36>
 8005ee0:	26a8      	movs	r6, #168	; 0xa8
 8005ee2:	9605      	str	r6, [sp, #20]
 8005ee4:	9e05      	ldr	r6, [sp, #20]
 8005ee6:	2ea8      	cmp	r6, #168	; 0xa8
 8005ee8:	d00a      	beq.n	8005f00 <xTaskCreateStatic+0x58>
 8005eea:	f04f 0350 	mov.w	r3, #80	; 0x50
 8005eee:	b672      	cpsid	i
 8005ef0:	f383 8811 	msr	BASEPRI, r3
 8005ef4:	f3bf 8f6f 	isb	sy
 8005ef8:	f3bf 8f4f 	dsb	sy
 8005efc:	b662      	cpsie	i
 8005efe:	e7fe      	b.n	8005efe <xTaskCreateStatic+0x56>
 8005f00:	6325      	str	r5, [r4, #48]	; 0x30
 8005f02:	2502      	movs	r5, #2
 8005f04:	9e05      	ldr	r6, [sp, #20]
 8005f06:	f884 50a5 	strb.w	r5, [r4, #165]	; 0xa5
 8005f0a:	ad04      	add	r5, sp, #16
 8005f0c:	9402      	str	r4, [sp, #8]
 8005f0e:	9501      	str	r5, [sp, #4]
 8005f10:	9d0a      	ldr	r5, [sp, #40]	; 0x28
 8005f12:	9500      	str	r5, [sp, #0]
 8005f14:	f7ff ff6a 	bl	8005dec <prvInitialiseNewTask.constprop.0>
 8005f18:	4620      	mov	r0, r4
 8005f1a:	f7ff fe31 	bl	8005b80 <prvAddNewTaskToReadyList>
 8005f1e:	9804      	ldr	r0, [sp, #16]
 8005f20:	b006      	add	sp, #24
 8005f22:	bd70      	pop	{r4, r5, r6, pc}

08005f24 <xTaskCreate>:
 8005f24:	e92d 43f0 	stmdb	sp!, {r4, r5, r6, r7, r8, r9, lr}
 8005f28:	4607      	mov	r7, r0
 8005f2a:	b085      	sub	sp, #20
 8005f2c:	0090      	lsls	r0, r2, #2
 8005f2e:	4688      	mov	r8, r1
 8005f30:	4616      	mov	r6, r2
 8005f32:	4699      	mov	r9, r3
 8005f34:	f001 f8b6 	bl	80070a4 <pvPortMalloc>
 8005f38:	4605      	mov	r5, r0
 8005f3a:	b1e8      	cbz	r0, 8005f78 <xTaskCreate+0x54>
 8005f3c:	20a8      	movs	r0, #168	; 0xa8
 8005f3e:	f001 f8b1 	bl	80070a4 <pvPortMalloc>
 8005f42:	4604      	mov	r4, r0
 8005f44:	b1a8      	cbz	r0, 8005f72 <xTaskCreate+0x4e>
 8005f46:	2300      	movs	r3, #0
 8005f48:	6305      	str	r5, [r0, #48]	; 0x30
 8005f4a:	4632      	mov	r2, r6
 8005f4c:	4641      	mov	r1, r8
 8005f4e:	f880 30a5 	strb.w	r3, [r0, #165]	; 0xa5
 8005f52:	9b0d      	ldr	r3, [sp, #52]	; 0x34
 8005f54:	9002      	str	r0, [sp, #8]
 8005f56:	4638      	mov	r0, r7
 8005f58:	9301      	str	r3, [sp, #4]
 8005f5a:	9b0c      	ldr	r3, [sp, #48]	; 0x30
 8005f5c:	9300      	str	r3, [sp, #0]
 8005f5e:	464b      	mov	r3, r9
 8005f60:	f7ff ff44 	bl	8005dec <prvInitialiseNewTask.constprop.0>
 8005f64:	4620      	mov	r0, r4
 8005f66:	f7ff fe0b 	bl	8005b80 <prvAddNewTaskToReadyList>
 8005f6a:	2001      	movs	r0, #1
 8005f6c:	b005      	add	sp, #20
 8005f6e:	e8bd 83f0 	ldmia.w	sp!, {r4, r5, r6, r7, r8, r9, pc}
 8005f72:	4628      	mov	r0, r5
 8005f74:	f001 f92a 	bl	80071cc <vPortFree>
 8005f78:	f04f 30ff 	mov.w	r0, #4294967295
 8005f7c:	e7f6      	b.n	8005f6c <xTaskCreate+0x48>
	...

08005f80 <vTaskDelete>:
 8005f80:	b570      	push	{r4, r5, r6, lr}
 8005f82:	4604      	mov	r4, r0
 8005f84:	4d24      	ldr	r5, [pc, #144]	; (8006018 <vTaskDelete+0x98>)
 8005f86:	f000 ff35 	bl	8006df4 <vPortEnterCritical>
 8005f8a:	b904      	cbnz	r4, 8005f8e <vTaskDelete+0xe>
 8005f8c:	682c      	ldr	r4, [r5, #0]
 8005f8e:	1d26      	adds	r6, r4, #4
 8005f90:	4630      	mov	r0, r6
 8005f92:	f7ff fab8 	bl	8005506 <uxListRemove>
 8005f96:	6aa3      	ldr	r3, [r4, #40]	; 0x28
 8005f98:	b11b      	cbz	r3, 8005fa2 <vTaskDelete+0x22>
 8005f9a:	f104 0018 	add.w	r0, r4, #24
 8005f9e:	f7ff fab2 	bl	8005506 <uxListRemove>
 8005fa2:	4a1e      	ldr	r2, [pc, #120]	; (800601c <vTaskDelete+0x9c>)
 8005fa4:	6813      	ldr	r3, [r2, #0]
 8005fa6:	3301      	adds	r3, #1
 8005fa8:	6013      	str	r3, [r2, #0]
 8005faa:	682b      	ldr	r3, [r5, #0]
 8005fac:	42a3      	cmp	r3, r4
 8005fae:	d11d      	bne.n	8005fec <vTaskDelete+0x6c>
 8005fb0:	4631      	mov	r1, r6
 8005fb2:	481b      	ldr	r0, [pc, #108]	; (8006020 <vTaskDelete+0xa0>)
 8005fb4:	f7ff fa84 	bl	80054c0 <vListInsertEnd>
 8005fb8:	4a1a      	ldr	r2, [pc, #104]	; (8006024 <vTaskDelete+0xa4>)
 8005fba:	6813      	ldr	r3, [r2, #0]
 8005fbc:	3301      	adds	r3, #1
 8005fbe:	6013      	str	r3, [r2, #0]
 8005fc0:	f000 ff3c 	bl	8006e3c <vPortExitCritical>
 8005fc4:	4b18      	ldr	r3, [pc, #96]	; (8006028 <vTaskDelete+0xa8>)
 8005fc6:	681b      	ldr	r3, [r3, #0]
 8005fc8:	b323      	cbz	r3, 8006014 <vTaskDelete+0x94>
 8005fca:	682b      	ldr	r3, [r5, #0]
 8005fcc:	42a3      	cmp	r3, r4
 8005fce:	d121      	bne.n	8006014 <vTaskDelete+0x94>
 8005fd0:	4b16      	ldr	r3, [pc, #88]	; (800602c <vTaskDelete+0xac>)
 8005fd2:	681b      	ldr	r3, [r3, #0]
 8005fd4:	b1a3      	cbz	r3, 8006000 <vTaskDelete+0x80>
 8005fd6:	f04f 0350 	mov.w	r3, #80	; 0x50
 8005fda:	b672      	cpsid	i
 8005fdc:	f383 8811 	msr	BASEPRI, r3
 8005fe0:	f3bf 8f6f 	isb	sy
 8005fe4:	f3bf 8f4f 	dsb	sy
 8005fe8:	b662      	cpsie	i
 8005fea:	e7fe      	b.n	8005fea <vTaskDelete+0x6a>
 8005fec:	4a10      	ldr	r2, [pc, #64]	; (8006030 <vTaskDelete+0xb0>)
 8005fee:	4620      	mov	r0, r4
 8005ff0:	6813      	ldr	r3, [r2, #0]
 8005ff2:	3b01      	subs	r3, #1
 8005ff4:	6013      	str	r3, [r2, #0]
 8005ff6:	f7ff fea9 	bl	8005d4c <prvDeleteTCB>
 8005ffa:	f7ff fe95 	bl	8005d28 <prvResetNextTaskUnblockTime>
 8005ffe:	e7df      	b.n	8005fc0 <vTaskDelete+0x40>
 8006000:	f04f 23e0 	mov.w	r3, #3758153728	; 0xe000e000
 8006004:	f04f 5280 	mov.w	r2, #268435456	; 0x10000000
 8006008:	f8c3 2d04 	str.w	r2, [r3, #3332]	; 0xd04
 800600c:	f3bf 8f4f 	dsb	sy
 8006010:	f3bf 8f6f 	isb	sy
 8006014:	bd70      	pop	{r4, r5, r6, pc}
 8006016:	bf00      	nop
 8006018:	20000f78 	.word	0x20000f78
 800601c:	200013f4 	.word	0x200013f4
 8006020:	20001458 	.word	0x20001458
 8006024:	200013e8 	.word	0x200013e8
 8006028:	20001440 	.word	0x20001440
 800602c:	200013f0 	.word	0x200013f0
 8006030:	200013e4 	.word	0x200013e4

08006034 <vTaskResume>:
 8006034:	b537      	push	{r0, r1, r2, r4, r5, lr}
 8006036:	4604      	mov	r4, r0
 8006038:	b950      	cbnz	r0, 8006050 <vTaskResume+0x1c>
 800603a:	f04f 0350 	mov.w	r3, #80	; 0x50
 800603e:	b672      	cpsid	i
 8006040:	f383 8811 	msr	BASEPRI, r3
 8006044:	f3bf 8f6f 	isb	sy
 8006048:	f3bf 8f4f 	dsb	sy
 800604c:	b662      	cpsie	i
 800604e:	e7fe      	b.n	800604e <vTaskResume+0x1a>
 8006050:	4d18      	ldr	r5, [pc, #96]	; (80060b4 <vTaskResume+0x80>)
 8006052:	682b      	ldr	r3, [r5, #0]
 8006054:	4283      	cmp	r3, r0
 8006056:	d02b      	beq.n	80060b0 <vTaskResume+0x7c>
 8006058:	f000 fecc 	bl	8006df4 <vPortEnterCritical>
 800605c:	4620      	mov	r0, r4
 800605e:	f7ff fe45 	bl	8005cec <prvTaskIsTaskSuspended>
 8006062:	b300      	cbz	r0, 80060a6 <vTaskResume+0x72>
 8006064:	1d21      	adds	r1, r4, #4
 8006066:	4608      	mov	r0, r1
 8006068:	9101      	str	r1, [sp, #4]
 800606a:	f7ff fa4c 	bl	8005506 <uxListRemove>
 800606e:	4a12      	ldr	r2, [pc, #72]	; (80060b8 <vTaskResume+0x84>)
 8006070:	6ae3      	ldr	r3, [r4, #44]	; 0x2c
 8006072:	6810      	ldr	r0, [r2, #0]
 8006074:	9901      	ldr	r1, [sp, #4]
 8006076:	4283      	cmp	r3, r0
 8006078:	d900      	bls.n	800607c <vTaskResume+0x48>
 800607a:	6013      	str	r3, [r2, #0]
 800607c:	4a0f      	ldr	r2, [pc, #60]	; (80060bc <vTaskResume+0x88>)
 800607e:	2014      	movs	r0, #20
 8006080:	fb00 2003 	mla	r0, r0, r3, r2
 8006084:	f7ff fa1c 	bl	80054c0 <vListInsertEnd>
 8006088:	682b      	ldr	r3, [r5, #0]
 800608a:	6ae2      	ldr	r2, [r4, #44]	; 0x2c
 800608c:	6adb      	ldr	r3, [r3, #44]	; 0x2c
 800608e:	429a      	cmp	r2, r3
 8006090:	d309      	bcc.n	80060a6 <vTaskResume+0x72>
 8006092:	f04f 23e0 	mov.w	r3, #3758153728	; 0xe000e000
 8006096:	f04f 5280 	mov.w	r2, #268435456	; 0x10000000
 800609a:	f8c3 2d04 	str.w	r2, [r3, #3332]	; 0xd04
 800609e:	f3bf 8f4f 	dsb	sy
 80060a2:	f3bf 8f6f 	isb	sy
 80060a6:	b003      	add	sp, #12
 80060a8:	e8bd 4030 	ldmia.w	sp!, {r4, r5, lr}
 80060ac:	f000 bec6 	b.w	8006e3c <vPortExitCritical>
 80060b0:	b003      	add	sp, #12
 80060b2:	bd30      	pop	{r4, r5, pc}
 80060b4:	20000f78 	.word	0x20000f78
 80060b8:	200013f8 	.word	0x200013f8
 80060bc:	20000f84 	.word	0x20000f84

080060c0 <xTaskResumeFromISR>:
 80060c0:	b573      	push	{r0, r1, r4, r5, r6, lr}
 80060c2:	4605      	mov	r5, r0
 80060c4:	b950      	cbnz	r0, 80060dc <xTaskResumeFromISR+0x1c>
 80060c6:	f04f 0350 	mov.w	r3, #80	; 0x50
 80060ca:	b672      	cpsid	i
 80060cc:	f383 8811 	msr	BASEPRI, r3
 80060d0:	f3bf 8f6f 	isb	sy
 80060d4:	f3bf 8f4f 	dsb	sy
 80060d8:	b662      	cpsie	i
 80060da:	e7fe      	b.n	80060da <xTaskResumeFromISR+0x1a>
 80060dc:	f000 ff8a 	bl	8006ff4 <vPortValidateInterruptPriority>
 80060e0:	f3ef 8611 	mrs	r6, BASEPRI
 80060e4:	f04f 0350 	mov.w	r3, #80	; 0x50
 80060e8:	b672      	cpsid	i
 80060ea:	f383 8811 	msr	BASEPRI, r3
 80060ee:	f3bf 8f6f 	isb	sy
 80060f2:	f3bf 8f4f 	dsb	sy
 80060f6:	b662      	cpsie	i
 80060f8:	4628      	mov	r0, r5
 80060fa:	f7ff fdf7 	bl	8005cec <prvTaskIsTaskSuspended>
 80060fe:	4604      	mov	r4, r0
 8006100:	b1e0      	cbz	r0, 800613c <xTaskResumeFromISR+0x7c>
 8006102:	4b14      	ldr	r3, [pc, #80]	; (8006154 <xTaskResumeFromISR+0x94>)
 8006104:	681b      	ldr	r3, [r3, #0]
 8006106:	b9f3      	cbnz	r3, 8006146 <xTaskResumeFromISR+0x86>
 8006108:	4b13      	ldr	r3, [pc, #76]	; (8006158 <xTaskResumeFromISR+0x98>)
 800610a:	1d29      	adds	r1, r5, #4
 800610c:	6aec      	ldr	r4, [r5, #44]	; 0x2c
 800610e:	681b      	ldr	r3, [r3, #0]
 8006110:	4608      	mov	r0, r1
 8006112:	9101      	str	r1, [sp, #4]
 8006114:	6adb      	ldr	r3, [r3, #44]	; 0x2c
 8006116:	429c      	cmp	r4, r3
 8006118:	bf34      	ite	cc
 800611a:	2400      	movcc	r4, #0
 800611c:	2401      	movcs	r4, #1
 800611e:	f7ff f9f2 	bl	8005506 <uxListRemove>
 8006122:	4a0e      	ldr	r2, [pc, #56]	; (800615c <xTaskResumeFromISR+0x9c>)
 8006124:	6aeb      	ldr	r3, [r5, #44]	; 0x2c
 8006126:	6810      	ldr	r0, [r2, #0]
 8006128:	9901      	ldr	r1, [sp, #4]
 800612a:	4283      	cmp	r3, r0
 800612c:	d900      	bls.n	8006130 <xTaskResumeFromISR+0x70>
 800612e:	6013      	str	r3, [r2, #0]
 8006130:	4a0b      	ldr	r2, [pc, #44]	; (8006160 <xTaskResumeFromISR+0xa0>)
 8006132:	2014      	movs	r0, #20
 8006134:	fb00 2003 	mla	r0, r0, r3, r2
 8006138:	f7ff f9c2 	bl	80054c0 <vListInsertEnd>
 800613c:	f386 8811 	msr	BASEPRI, r6
 8006140:	4620      	mov	r0, r4
 8006142:	b002      	add	sp, #8
 8006144:	bd70      	pop	{r4, r5, r6, pc}
 8006146:	f105 0118 	add.w	r1, r5, #24
 800614a:	4806      	ldr	r0, [pc, #24]	; (8006164 <xTaskResumeFromISR+0xa4>)
 800614c:	2400      	movs	r4, #0
 800614e:	f7ff f9b7 	bl	80054c0 <vListInsertEnd>
 8006152:	e7f3      	b.n	800613c <xTaskResumeFromISR+0x7c>
 8006154:	200013f0 	.word	0x200013f0
 8006158:	20000f78 	.word	0x20000f78
 800615c:	200013f8 	.word	0x200013f8
 8006160:	20000f84 	.word	0x20000f84
 8006164:	2000142c 	.word	0x2000142c

08006168 <vTaskStartScheduler>:
 8006168:	b510      	push	{r4, lr}
 800616a:	b088      	sub	sp, #32
 800616c:	2400      	movs	r4, #0
 800616e:	aa07      	add	r2, sp, #28
 8006170:	a906      	add	r1, sp, #24
 8006172:	a805      	add	r0, sp, #20
 8006174:	e9cd 4405 	strd	r4, r4, [sp, #20]
 8006178:	f7ff f97c 	bl	8005474 <vApplicationGetIdleTaskMemory>
 800617c:	9b05      	ldr	r3, [sp, #20]
 800617e:	9a07      	ldr	r2, [sp, #28]
 8006180:	9302      	str	r3, [sp, #8]
 8006182:	9b06      	ldr	r3, [sp, #24]
 8006184:	491b      	ldr	r1, [pc, #108]	; (80061f4 <vTaskStartScheduler+0x8c>)
 8006186:	481c      	ldr	r0, [pc, #112]	; (80061f8 <vTaskStartScheduler+0x90>)
 8006188:	e9cd 4300 	strd	r4, r3, [sp]
 800618c:	4623      	mov	r3, r4
 800618e:	f7ff fe8b 	bl	8005ea8 <xTaskCreateStatic>
 8006192:	2800      	cmp	r0, #0
 8006194:	d02c      	beq.n	80061f0 <vTaskStartScheduler+0x88>
 8006196:	f000 fbc1 	bl	800691c <xTimerCreateTimerTask>
 800619a:	2801      	cmp	r0, #1
 800619c:	d11b      	bne.n	80061d6 <vTaskStartScheduler+0x6e>
 800619e:	f04f 0350 	mov.w	r3, #80	; 0x50
 80061a2:	b672      	cpsid	i
 80061a4:	f383 8811 	msr	BASEPRI, r3
 80061a8:	f3bf 8f6f 	isb	sy
 80061ac:	f3bf 8f4f 	dsb	sy
 80061b0:	b662      	cpsie	i
 80061b2:	4b12      	ldr	r3, [pc, #72]	; (80061fc <vTaskStartScheduler+0x94>)
 80061b4:	4a12      	ldr	r2, [pc, #72]	; (8006200 <vTaskStartScheduler+0x98>)
 80061b6:	681b      	ldr	r3, [r3, #0]
 80061b8:	3354      	adds	r3, #84	; 0x54
 80061ba:	6013      	str	r3, [r2, #0]
 80061bc:	f04f 32ff 	mov.w	r2, #4294967295
 80061c0:	4b10      	ldr	r3, [pc, #64]	; (8006204 <vTaskStartScheduler+0x9c>)
 80061c2:	601a      	str	r2, [r3, #0]
 80061c4:	4b10      	ldr	r3, [pc, #64]	; (8006208 <vTaskStartScheduler+0xa0>)
 80061c6:	6018      	str	r0, [r3, #0]
 80061c8:	4b10      	ldr	r3, [pc, #64]	; (800620c <vTaskStartScheduler+0xa4>)
 80061ca:	601c      	str	r4, [r3, #0]
 80061cc:	b008      	add	sp, #32
 80061ce:	e8bd 4010 	ldmia.w	sp!, {r4, lr}
 80061d2:	f000 bea9 	b.w	8006f28 <xPortStartScheduler>
 80061d6:	3001      	adds	r0, #1
 80061d8:	d10a      	bne.n	80061f0 <vTaskStartScheduler+0x88>
 80061da:	f04f 0350 	mov.w	r3, #80	; 0x50
 80061de:	b672      	cpsid	i
 80061e0:	f383 8811 	msr	BASEPRI, r3
 80061e4:	f3bf 8f6f 	isb	sy
 80061e8:	f3bf 8f4f 	dsb	sy
 80061ec:	b662      	cpsie	i
 80061ee:	e7fe      	b.n	80061ee <vTaskStartScheduler+0x86>
 80061f0:	b008      	add	sp, #32
 80061f2:	bd10      	pop	{r4, pc}
 80061f4:	08009b48 	.word	0x08009b48
 80061f8:	08005d8d 	.word	0x08005d8d
 80061fc:	20000f78 	.word	0x20000f78
 8006200:	200000b4 	.word	0x200000b4
 8006204:	20001424 	.word	0x20001424
 8006208:	20001440 	.word	0x20001440
 800620c:	2000146c 	.word	0x2000146c

08006210 <vTaskSuspendAll>:
 8006210:	4a02      	ldr	r2, [pc, #8]	; (800621c <vTaskSuspendAll+0xc>)
 8006212:	6813      	ldr	r3, [r2, #0]
 8006214:	3301      	adds	r3, #1
 8006216:	6013      	str	r3, [r2, #0]
 8006218:	4770      	bx	lr
 800621a:	bf00      	nop
 800621c:	200013f0 	.word	0x200013f0

08006220 <xTaskGetTickCount>:
 8006220:	4b01      	ldr	r3, [pc, #4]	; (8006228 <xTaskGetTickCount+0x8>)
 8006222:	6818      	ldr	r0, [r3, #0]
 8006224:	4770      	bx	lr
 8006226:	bf00      	nop
 8006228:	2000146c 	.word	0x2000146c

0800622c <xTaskIncrementTick>:
 800622c:	4b40      	ldr	r3, [pc, #256]	; (8006330 <xTaskIncrementTick+0x104>)
 800622e:	681b      	ldr	r3, [r3, #0]
 8006230:	e92d 4ff7 	stmdb	sp!, {r0, r1, r2, r4, r5, r6, r7, r8, r9, sl, fp, lr}
 8006234:	2b00      	cmp	r3, #0
 8006236:	d174      	bne.n	8006322 <xTaskIncrementTick+0xf6>
 8006238:	4b3e      	ldr	r3, [pc, #248]	; (8006334 <xTaskIncrementTick+0x108>)
 800623a:	681d      	ldr	r5, [r3, #0]
 800623c:	3501      	adds	r5, #1
 800623e:	601d      	str	r5, [r3, #0]
 8006240:	b9cd      	cbnz	r5, 8006276 <xTaskIncrementTick+0x4a>
 8006242:	4b3d      	ldr	r3, [pc, #244]	; (8006338 <xTaskIncrementTick+0x10c>)
 8006244:	681a      	ldr	r2, [r3, #0]
 8006246:	6812      	ldr	r2, [r2, #0]
 8006248:	b152      	cbz	r2, 8006260 <xTaskIncrementTick+0x34>
 800624a:	f04f 0350 	mov.w	r3, #80	; 0x50
 800624e:	b672      	cpsid	i
 8006250:	f383 8811 	msr	BASEPRI, r3
 8006254:	f3bf 8f6f 	isb	sy
 8006258:	f3bf 8f4f 	dsb	sy
 800625c:	b662      	cpsie	i
 800625e:	e7fe      	b.n	800625e <xTaskIncrementTick+0x32>
 8006260:	4a36      	ldr	r2, [pc, #216]	; (800633c <xTaskIncrementTick+0x110>)
 8006262:	6819      	ldr	r1, [r3, #0]
 8006264:	6810      	ldr	r0, [r2, #0]
 8006266:	6018      	str	r0, [r3, #0]
 8006268:	6011      	str	r1, [r2, #0]
 800626a:	4a35      	ldr	r2, [pc, #212]	; (8006340 <xTaskIncrementTick+0x114>)
 800626c:	6813      	ldr	r3, [r2, #0]
 800626e:	3301      	adds	r3, #1
 8006270:	6013      	str	r3, [r2, #0]
 8006272:	f7ff fd59 	bl	8005d28 <prvResetNextTaskUnblockTime>
 8006276:	4e33      	ldr	r6, [pc, #204]	; (8006344 <xTaskIncrementTick+0x118>)
 8006278:	2400      	movs	r4, #0
 800627a:	4f33      	ldr	r7, [pc, #204]	; (8006348 <xTaskIncrementTick+0x11c>)
 800627c:	6833      	ldr	r3, [r6, #0]
 800627e:	f8df 80d4 	ldr.w	r8, [pc, #212]	; 8006354 <xTaskIncrementTick+0x128>
 8006282:	42ab      	cmp	r3, r5
 8006284:	d911      	bls.n	80062aa <xTaskIncrementTick+0x7e>
 8006286:	f8d8 3000 	ldr.w	r3, [r8]
 800628a:	2214      	movs	r2, #20
 800628c:	6adb      	ldr	r3, [r3, #44]	; 0x2c
 800628e:	4353      	muls	r3, r2
 8006290:	58fb      	ldr	r3, [r7, r3]
 8006292:	2b02      	cmp	r3, #2
 8006294:	bf28      	it	cs
 8006296:	2401      	movcs	r4, #1
 8006298:	4b2c      	ldr	r3, [pc, #176]	; (800634c <xTaskIncrementTick+0x120>)
 800629a:	681b      	ldr	r3, [r3, #0]
 800629c:	2b00      	cmp	r3, #0
 800629e:	bf0c      	ite	eq
 80062a0:	4620      	moveq	r0, r4
 80062a2:	2001      	movne	r0, #1
 80062a4:	b003      	add	sp, #12
 80062a6:	e8bd 8ff0 	ldmia.w	sp!, {r4, r5, r6, r7, r8, r9, sl, fp, pc}
 80062aa:	f8df 908c 	ldr.w	r9, [pc, #140]	; 8006338 <xTaskIncrementTick+0x10c>
 80062ae:	f8df a0a8 	ldr.w	sl, [pc, #168]	; 8006358 <xTaskIncrementTick+0x12c>
 80062b2:	f8d9 3000 	ldr.w	r3, [r9]
 80062b6:	681b      	ldr	r3, [r3, #0]
 80062b8:	b91b      	cbnz	r3, 80062c2 <xTaskIncrementTick+0x96>
 80062ba:	f04f 33ff 	mov.w	r3, #4294967295
 80062be:	6033      	str	r3, [r6, #0]
 80062c0:	e7e1      	b.n	8006286 <xTaskIncrementTick+0x5a>
 80062c2:	f8d9 3000 	ldr.w	r3, [r9]
 80062c6:	68db      	ldr	r3, [r3, #12]
 80062c8:	f8d3 b00c 	ldr.w	fp, [r3, #12]
 80062cc:	f8db 2004 	ldr.w	r2, [fp, #4]
 80062d0:	4295      	cmp	r5, r2
 80062d2:	d201      	bcs.n	80062d8 <xTaskIncrementTick+0xac>
 80062d4:	6032      	str	r2, [r6, #0]
 80062d6:	e7d6      	b.n	8006286 <xTaskIncrementTick+0x5a>
 80062d8:	f10b 0104 	add.w	r1, fp, #4
 80062dc:	4608      	mov	r0, r1
 80062de:	9101      	str	r1, [sp, #4]
 80062e0:	f7ff f911 	bl	8005506 <uxListRemove>
 80062e4:	f8db 2028 	ldr.w	r2, [fp, #40]	; 0x28
 80062e8:	9901      	ldr	r1, [sp, #4]
 80062ea:	b122      	cbz	r2, 80062f6 <xTaskIncrementTick+0xca>
 80062ec:	f10b 0018 	add.w	r0, fp, #24
 80062f0:	f7ff f909 	bl	8005506 <uxListRemove>
 80062f4:	9901      	ldr	r1, [sp, #4]
 80062f6:	f8db 002c 	ldr.w	r0, [fp, #44]	; 0x2c
 80062fa:	f8da 2000 	ldr.w	r2, [sl]
 80062fe:	4290      	cmp	r0, r2
 8006300:	d901      	bls.n	8006306 <xTaskIncrementTick+0xda>
 8006302:	f8ca 0000 	str.w	r0, [sl]
 8006306:	2314      	movs	r3, #20
 8006308:	fb03 7000 	mla	r0, r3, r0, r7
 800630c:	f7ff f8d8 	bl	80054c0 <vListInsertEnd>
 8006310:	f8d8 1000 	ldr.w	r1, [r8]
 8006314:	f8db 202c 	ldr.w	r2, [fp, #44]	; 0x2c
 8006318:	6acb      	ldr	r3, [r1, #44]	; 0x2c
 800631a:	429a      	cmp	r2, r3
 800631c:	bf28      	it	cs
 800631e:	2401      	movcs	r4, #1
 8006320:	e7c7      	b.n	80062b2 <xTaskIncrementTick+0x86>
 8006322:	4a0b      	ldr	r2, [pc, #44]	; (8006350 <xTaskIncrementTick+0x124>)
 8006324:	2400      	movs	r4, #0
 8006326:	6813      	ldr	r3, [r2, #0]
 8006328:	3301      	adds	r3, #1
 800632a:	6013      	str	r3, [r2, #0]
 800632c:	e7b4      	b.n	8006298 <xTaskIncrementTick+0x6c>
 800632e:	bf00      	nop
 8006330:	200013f0 	.word	0x200013f0
 8006334:	2000146c 	.word	0x2000146c
 8006338:	20000f7c 	.word	0x20000f7c
 800633c:	20000f80 	.word	0x20000f80
 8006340:	20001428 	.word	0x20001428
 8006344:	20001424 	.word	0x20001424
 8006348:	20000f84 	.word	0x20000f84
 800634c:	20001470 	.word	0x20001470
 8006350:	200013ec 	.word	0x200013ec
 8006354:	20000f78 	.word	0x20000f78
 8006358:	200013f8 	.word	0x200013f8

0800635c <xTaskResumeAll>:
 800635c:	b5f7      	push	{r0, r1, r2, r4, r5, r6, r7, lr}
 800635e:	4c32      	ldr	r4, [pc, #200]	; (8006428 <xTaskResumeAll+0xcc>)
 8006360:	6823      	ldr	r3, [r4, #0]
 8006362:	b953      	cbnz	r3, 800637a <xTaskResumeAll+0x1e>
 8006364:	f04f 0350 	mov.w	r3, #80	; 0x50
 8006368:	b672      	cpsid	i
 800636a:	f383 8811 	msr	BASEPRI, r3
 800636e:	f3bf 8f6f 	isb	sy
 8006372:	f3bf 8f4f 	dsb	sy
 8006376:	b662      	cpsie	i
 8006378:	e7fe      	b.n	8006378 <xTaskResumeAll+0x1c>
 800637a:	f000 fd3b 	bl	8006df4 <vPortEnterCritical>
 800637e:	6823      	ldr	r3, [r4, #0]
 8006380:	3b01      	subs	r3, #1
 8006382:	6023      	str	r3, [r4, #0]
 8006384:	6824      	ldr	r4, [r4, #0]
 8006386:	b12c      	cbz	r4, 8006394 <xTaskResumeAll+0x38>
 8006388:	2400      	movs	r4, #0
 800638a:	f000 fd57 	bl	8006e3c <vPortExitCritical>
 800638e:	4620      	mov	r0, r4
 8006390:	b003      	add	sp, #12
 8006392:	bdf0      	pop	{r4, r5, r6, r7, pc}
 8006394:	4b25      	ldr	r3, [pc, #148]	; (800642c <xTaskResumeAll+0xd0>)
 8006396:	681b      	ldr	r3, [r3, #0]
 8006398:	2b00      	cmp	r3, #0
 800639a:	d0f5      	beq.n	8006388 <xTaskResumeAll+0x2c>
 800639c:	4d24      	ldr	r5, [pc, #144]	; (8006430 <xTaskResumeAll+0xd4>)
 800639e:	4e25      	ldr	r6, [pc, #148]	; (8006434 <xTaskResumeAll+0xd8>)
 80063a0:	4f25      	ldr	r7, [pc, #148]	; (8006438 <xTaskResumeAll+0xdc>)
 80063a2:	e01e      	b.n	80063e2 <xTaskResumeAll+0x86>
 80063a4:	68eb      	ldr	r3, [r5, #12]
 80063a6:	68dc      	ldr	r4, [r3, #12]
 80063a8:	f104 0018 	add.w	r0, r4, #24
 80063ac:	f7ff f8ab 	bl	8005506 <uxListRemove>
 80063b0:	1d21      	adds	r1, r4, #4
 80063b2:	4608      	mov	r0, r1
 80063b4:	9101      	str	r1, [sp, #4]
 80063b6:	f7ff f8a6 	bl	8005506 <uxListRemove>
 80063ba:	6ae3      	ldr	r3, [r4, #44]	; 0x2c
 80063bc:	6832      	ldr	r2, [r6, #0]
 80063be:	9901      	ldr	r1, [sp, #4]
 80063c0:	4293      	cmp	r3, r2
 80063c2:	d900      	bls.n	80063c6 <xTaskResumeAll+0x6a>
 80063c4:	6033      	str	r3, [r6, #0]
 80063c6:	2014      	movs	r0, #20
 80063c8:	fb00 7003 	mla	r0, r0, r3, r7
 80063cc:	f7ff f878 	bl	80054c0 <vListInsertEnd>
 80063d0:	4b1a      	ldr	r3, [pc, #104]	; (800643c <xTaskResumeAll+0xe0>)
 80063d2:	6ae2      	ldr	r2, [r4, #44]	; 0x2c
 80063d4:	681b      	ldr	r3, [r3, #0]
 80063d6:	6adb      	ldr	r3, [r3, #44]	; 0x2c
 80063d8:	429a      	cmp	r2, r3
 80063da:	d302      	bcc.n	80063e2 <xTaskResumeAll+0x86>
 80063dc:	4b18      	ldr	r3, [pc, #96]	; (8006440 <xTaskResumeAll+0xe4>)
 80063de:	2201      	movs	r2, #1
 80063e0:	601a      	str	r2, [r3, #0]
 80063e2:	682b      	ldr	r3, [r5, #0]
 80063e4:	2b00      	cmp	r3, #0
 80063e6:	d1dd      	bne.n	80063a4 <xTaskResumeAll+0x48>
 80063e8:	b10c      	cbz	r4, 80063ee <xTaskResumeAll+0x92>
 80063ea:	f7ff fc9d 	bl	8005d28 <prvResetNextTaskUnblockTime>
 80063ee:	4d15      	ldr	r5, [pc, #84]	; (8006444 <xTaskResumeAll+0xe8>)
 80063f0:	682c      	ldr	r4, [r5, #0]
 80063f2:	b144      	cbz	r4, 8006406 <xTaskResumeAll+0xaa>
 80063f4:	4e12      	ldr	r6, [pc, #72]	; (8006440 <xTaskResumeAll+0xe4>)
 80063f6:	2701      	movs	r7, #1
 80063f8:	f7ff ff18 	bl	800622c <xTaskIncrementTick>
 80063fc:	b100      	cbz	r0, 8006400 <xTaskResumeAll+0xa4>
 80063fe:	6037      	str	r7, [r6, #0]
 8006400:	3c01      	subs	r4, #1
 8006402:	d1f9      	bne.n	80063f8 <xTaskResumeAll+0x9c>
 8006404:	602c      	str	r4, [r5, #0]
 8006406:	4b0e      	ldr	r3, [pc, #56]	; (8006440 <xTaskResumeAll+0xe4>)
 8006408:	681b      	ldr	r3, [r3, #0]
 800640a:	2b00      	cmp	r3, #0
 800640c:	d0bc      	beq.n	8006388 <xTaskResumeAll+0x2c>
 800640e:	f04f 23e0 	mov.w	r3, #3758153728	; 0xe000e000
 8006412:	f04f 5280 	mov.w	r2, #268435456	; 0x10000000
 8006416:	f8c3 2d04 	str.w	r2, [r3, #3332]	; 0xd04
 800641a:	f3bf 8f4f 	dsb	sy
 800641e:	f3bf 8f6f 	isb	sy
 8006422:	2401      	movs	r4, #1
 8006424:	e7b1      	b.n	800638a <xTaskResumeAll+0x2e>
 8006426:	bf00      	nop
 8006428:	200013f0 	.word	0x200013f0
 800642c:	200013e4 	.word	0x200013e4
 8006430:	2000142c 	.word	0x2000142c
 8006434:	200013f8 	.word	0x200013f8
 8006438:	20000f84 	.word	0x20000f84
 800643c:	20000f78 	.word	0x20000f78
 8006440:	20001470 	.word	0x20001470
 8006444:	200013ec 	.word	0x200013ec

08006448 <vTaskDelay>:
 8006448:	b508      	push	{r3, lr}
 800644a:	b950      	cbnz	r0, 8006462 <vTaskDelay+0x1a>
 800644c:	f04f 23e0 	mov.w	r3, #3758153728	; 0xe000e000
 8006450:	f04f 5280 	mov.w	r2, #268435456	; 0x10000000
 8006454:	f8c3 2d04 	str.w	r2, [r3, #3332]	; 0xd04
 8006458:	f3bf 8f4f 	dsb	sy
 800645c:	f3bf 8f6f 	isb	sy
 8006460:	bd08      	pop	{r3, pc}
 8006462:	4b0b      	ldr	r3, [pc, #44]	; (8006490 <vTaskDelay+0x48>)
 8006464:	6819      	ldr	r1, [r3, #0]
 8006466:	b151      	cbz	r1, 800647e <vTaskDelay+0x36>
 8006468:	f04f 0350 	mov.w	r3, #80	; 0x50
 800646c:	b672      	cpsid	i
 800646e:	f383 8811 	msr	BASEPRI, r3
 8006472:	f3bf 8f6f 	isb	sy
 8006476:	f3bf 8f4f 	dsb	sy
 800647a:	b662      	cpsie	i
 800647c:	e7fe      	b.n	800647c <vTaskDelay+0x34>
 800647e:	f7ff fec7 	bl	8006210 <vTaskSuspendAll>
 8006482:	f7ff fbfb 	bl	8005c7c <prvAddCurrentTaskToDelayedList>
 8006486:	f7ff ff69 	bl	800635c <xTaskResumeAll>
 800648a:	2800      	cmp	r0, #0
 800648c:	d0de      	beq.n	800644c <vTaskDelay+0x4>
 800648e:	e7e7      	b.n	8006460 <vTaskDelay+0x18>
 8006490:	200013f0 	.word	0x200013f0

08006494 <vTaskSwitchContext>:
 8006494:	4b1a      	ldr	r3, [pc, #104]	; (8006500 <vTaskSwitchContext+0x6c>)
 8006496:	681a      	ldr	r2, [r3, #0]
 8006498:	4b1a      	ldr	r3, [pc, #104]	; (8006504 <vTaskSwitchContext+0x70>)
 800649a:	b570      	push	{r4, r5, r6, lr}
 800649c:	b112      	cbz	r2, 80064a4 <vTaskSwitchContext+0x10>
 800649e:	2201      	movs	r2, #1
 80064a0:	601a      	str	r2, [r3, #0]
 80064a2:	bd70      	pop	{r4, r5, r6, pc}
 80064a4:	4d18      	ldr	r5, [pc, #96]	; (8006508 <vTaskSwitchContext+0x74>)
 80064a6:	2614      	movs	r6, #20
 80064a8:	601a      	str	r2, [r3, #0]
 80064aa:	4918      	ldr	r1, [pc, #96]	; (800650c <vTaskSwitchContext+0x78>)
 80064ac:	682a      	ldr	r2, [r5, #0]
 80064ae:	fb06 f302 	mul.w	r3, r6, r2
 80064b2:	58cc      	ldr	r4, [r1, r3]
 80064b4:	18c8      	adds	r0, r1, r3
 80064b6:	b1ac      	cbz	r4, 80064e4 <vTaskSwitchContext+0x50>
 80064b8:	6844      	ldr	r4, [r0, #4]
 80064ba:	3308      	adds	r3, #8
 80064bc:	6864      	ldr	r4, [r4, #4]
 80064be:	440b      	add	r3, r1
 80064c0:	429c      	cmp	r4, r3
 80064c2:	6044      	str	r4, [r0, #4]
 80064c4:	bf04      	itt	eq
 80064c6:	6863      	ldreq	r3, [r4, #4]
 80064c8:	6043      	streq	r3, [r0, #4]
 80064ca:	2314      	movs	r3, #20
 80064cc:	fb03 1102 	mla	r1, r3, r2, r1
 80064d0:	684b      	ldr	r3, [r1, #4]
 80064d2:	68d9      	ldr	r1, [r3, #12]
 80064d4:	4b0e      	ldr	r3, [pc, #56]	; (8006510 <vTaskSwitchContext+0x7c>)
 80064d6:	6019      	str	r1, [r3, #0]
 80064d8:	602a      	str	r2, [r5, #0]
 80064da:	681b      	ldr	r3, [r3, #0]
 80064dc:	4a0d      	ldr	r2, [pc, #52]	; (8006514 <vTaskSwitchContext+0x80>)
 80064de:	3354      	adds	r3, #84	; 0x54
 80064e0:	6013      	str	r3, [r2, #0]
 80064e2:	e7de      	b.n	80064a2 <vTaskSwitchContext+0xe>
 80064e4:	b952      	cbnz	r2, 80064fc <vTaskSwitchContext+0x68>
 80064e6:	f04f 0350 	mov.w	r3, #80	; 0x50
 80064ea:	b672      	cpsid	i
 80064ec:	f383 8811 	msr	BASEPRI, r3
 80064f0:	f3bf 8f6f 	isb	sy
 80064f4:	f3bf 8f4f 	dsb	sy
 80064f8:	b662      	cpsie	i
 80064fa:	e7fe      	b.n	80064fa <vTaskSwitchContext+0x66>
 80064fc:	3a01      	subs	r2, #1
 80064fe:	e7d6      	b.n	80064ae <vTaskSwitchContext+0x1a>
 8006500:	200013f0 	.word	0x200013f0
 8006504:	20001470 	.word	0x20001470
 8006508:	200013f8 	.word	0x200013f8
 800650c:	20000f84 	.word	0x20000f84
 8006510:	20000f78 	.word	0x20000f78
 8006514:	200000b4 	.word	0x200000b4

08006518 <vTaskSuspend>:
 8006518:	b570      	push	{r4, r5, r6, lr}
 800651a:	4604      	mov	r4, r0
 800651c:	4d27      	ldr	r5, [pc, #156]	; (80065bc <vTaskSuspend+0xa4>)
 800651e:	f000 fc69 	bl	8006df4 <vPortEnterCritical>
 8006522:	b904      	cbnz	r4, 8006526 <vTaskSuspend+0xe>
 8006524:	682c      	ldr	r4, [r5, #0]
 8006526:	1d26      	adds	r6, r4, #4
 8006528:	4630      	mov	r0, r6
 800652a:	f7fe ffec 	bl	8005506 <uxListRemove>
 800652e:	6aa3      	ldr	r3, [r4, #40]	; 0x28
 8006530:	b11b      	cbz	r3, 800653a <vTaskSuspend+0x22>
 8006532:	f104 0018 	add.w	r0, r4, #24
 8006536:	f7fe ffe6 	bl	8005506 <uxListRemove>
 800653a:	4631      	mov	r1, r6
 800653c:	4820      	ldr	r0, [pc, #128]	; (80065c0 <vTaskSuspend+0xa8>)
 800653e:	f7fe ffbf 	bl	80054c0 <vListInsertEnd>
 8006542:	f894 30a4 	ldrb.w	r3, [r4, #164]	; 0xa4
 8006546:	2b01      	cmp	r3, #1
 8006548:	d102      	bne.n	8006550 <vTaskSuspend+0x38>
 800654a:	2300      	movs	r3, #0
 800654c:	f884 30a4 	strb.w	r3, [r4, #164]	; 0xa4
 8006550:	4e1c      	ldr	r6, [pc, #112]	; (80065c4 <vTaskSuspend+0xac>)
 8006552:	f000 fc73 	bl	8006e3c <vPortExitCritical>
 8006556:	6833      	ldr	r3, [r6, #0]
 8006558:	b12b      	cbz	r3, 8006566 <vTaskSuspend+0x4e>
 800655a:	f000 fc4b 	bl	8006df4 <vPortEnterCritical>
 800655e:	f7ff fbe3 	bl	8005d28 <prvResetNextTaskUnblockTime>
 8006562:	f000 fc6b 	bl	8006e3c <vPortExitCritical>
 8006566:	682b      	ldr	r3, [r5, #0]
 8006568:	42a3      	cmp	r3, r4
 800656a:	d119      	bne.n	80065a0 <vTaskSuspend+0x88>
 800656c:	6833      	ldr	r3, [r6, #0]
 800656e:	b1c3      	cbz	r3, 80065a2 <vTaskSuspend+0x8a>
 8006570:	4b15      	ldr	r3, [pc, #84]	; (80065c8 <vTaskSuspend+0xb0>)
 8006572:	681b      	ldr	r3, [r3, #0]
 8006574:	b153      	cbz	r3, 800658c <vTaskSuspend+0x74>
 8006576:	f04f 0350 	mov.w	r3, #80	; 0x50
 800657a:	b672      	cpsid	i
 800657c:	f383 8811 	msr	BASEPRI, r3
 8006580:	f3bf 8f6f 	isb	sy
 8006584:	f3bf 8f4f 	dsb	sy
 8006588:	b662      	cpsie	i
 800658a:	e7fe      	b.n	800658a <vTaskSuspend+0x72>
 800658c:	f04f 23e0 	mov.w	r3, #3758153728	; 0xe000e000
 8006590:	f04f 5280 	mov.w	r2, #268435456	; 0x10000000
 8006594:	f8c3 2d04 	str.w	r2, [r3, #3332]	; 0xd04
 8006598:	f3bf 8f4f 	dsb	sy
 800659c:	f3bf 8f6f 	isb	sy
 80065a0:	bd70      	pop	{r4, r5, r6, pc}
 80065a2:	4a07      	ldr	r2, [pc, #28]	; (80065c0 <vTaskSuspend+0xa8>)
 80065a4:	6811      	ldr	r1, [r2, #0]
 80065a6:	4a09      	ldr	r2, [pc, #36]	; (80065cc <vTaskSuspend+0xb4>)
 80065a8:	6812      	ldr	r2, [r2, #0]
 80065aa:	4291      	cmp	r1, r2
 80065ac:	d101      	bne.n	80065b2 <vTaskSuspend+0x9a>
 80065ae:	602b      	str	r3, [r5, #0]
 80065b0:	e7f6      	b.n	80065a0 <vTaskSuspend+0x88>
 80065b2:	e8bd 4070 	ldmia.w	sp!, {r4, r5, r6, lr}
 80065b6:	f7ff bf6d 	b.w	8006494 <vTaskSwitchContext>
 80065ba:	bf00      	nop
 80065bc:	20000f78 	.word	0x20000f78
 80065c0:	20001444 	.word	0x20001444
 80065c4:	20001440 	.word	0x20001440
 80065c8:	200013f0 	.word	0x200013f0
 80065cc:	200013e4 	.word	0x200013e4

080065d0 <vTaskPlaceOnEventList>:
 80065d0:	b510      	push	{r4, lr}
 80065d2:	460c      	mov	r4, r1
 80065d4:	b950      	cbnz	r0, 80065ec <vTaskPlaceOnEventList+0x1c>
 80065d6:	f04f 0350 	mov.w	r3, #80	; 0x50
 80065da:	b672      	cpsid	i
 80065dc:	f383 8811 	msr	BASEPRI, r3
 80065e0:	f3bf 8f6f 	isb	sy
 80065e4:	f3bf 8f4f 	dsb	sy
 80065e8:	b662      	cpsie	i
 80065ea:	e7fe      	b.n	80065ea <vTaskPlaceOnEventList+0x1a>
 80065ec:	4b05      	ldr	r3, [pc, #20]	; (8006604 <vTaskPlaceOnEventList+0x34>)
 80065ee:	6819      	ldr	r1, [r3, #0]
 80065f0:	3118      	adds	r1, #24
 80065f2:	f7fe ff71 	bl	80054d8 <vListInsert>
 80065f6:	4620      	mov	r0, r4
 80065f8:	2101      	movs	r1, #1
 80065fa:	e8bd 4010 	ldmia.w	sp!, {r4, lr}
 80065fe:	f7ff bb3d 	b.w	8005c7c <prvAddCurrentTaskToDelayedList>
 8006602:	bf00      	nop
 8006604:	20000f78 	.word	0x20000f78

08006608 <vTaskPlaceOnEventListRestricted>:
 8006608:	b538      	push	{r3, r4, r5, lr}
 800660a:	460d      	mov	r5, r1
 800660c:	4614      	mov	r4, r2
 800660e:	b950      	cbnz	r0, 8006626 <vTaskPlaceOnEventListRestricted+0x1e>
 8006610:	f04f 0350 	mov.w	r3, #80	; 0x50
 8006614:	b672      	cpsid	i
 8006616:	f383 8811 	msr	BASEPRI, r3
 800661a:	f3bf 8f6f 	isb	sy
 800661e:	f3bf 8f4f 	dsb	sy
 8006622:	b662      	cpsie	i
 8006624:	e7fe      	b.n	8006624 <vTaskPlaceOnEventListRestricted+0x1c>
 8006626:	4b07      	ldr	r3, [pc, #28]	; (8006644 <vTaskPlaceOnEventListRestricted+0x3c>)
 8006628:	6819      	ldr	r1, [r3, #0]
 800662a:	3118      	adds	r1, #24
 800662c:	f7fe ff48 	bl	80054c0 <vListInsertEnd>
 8006630:	2c00      	cmp	r4, #0
 8006632:	4621      	mov	r1, r4
 8006634:	bf0c      	ite	eq
 8006636:	4628      	moveq	r0, r5
 8006638:	f04f 30ff 	movne.w	r0, #4294967295
 800663c:	e8bd 4038 	ldmia.w	sp!, {r3, r4, r5, lr}
 8006640:	f7ff bb1c 	b.w	8005c7c <prvAddCurrentTaskToDelayedList>
 8006644:	20000f78 	.word	0x20000f78

08006648 <xTaskRemoveFromEventList>:
 8006648:	68c3      	ldr	r3, [r0, #12]
 800664a:	b513      	push	{r0, r1, r4, lr}
 800664c:	68dc      	ldr	r4, [r3, #12]
 800664e:	b954      	cbnz	r4, 8006666 <xTaskRemoveFromEventList+0x1e>
 8006650:	f04f 0350 	mov.w	r3, #80	; 0x50
 8006654:	b672      	cpsid	i
 8006656:	f383 8811 	msr	BASEPRI, r3
 800665a:	f3bf 8f6f 	isb	sy
 800665e:	f3bf 8f4f 	dsb	sy
 8006662:	b662      	cpsie	i
 8006664:	e7fe      	b.n	8006664 <xTaskRemoveFromEventList+0x1c>
 8006666:	f104 0118 	add.w	r1, r4, #24
 800666a:	4608      	mov	r0, r1
 800666c:	9101      	str	r1, [sp, #4]
 800666e:	f7fe ff4a 	bl	8005506 <uxListRemove>
 8006672:	4b12      	ldr	r3, [pc, #72]	; (80066bc <xTaskRemoveFromEventList+0x74>)
 8006674:	9901      	ldr	r1, [sp, #4]
 8006676:	681b      	ldr	r3, [r3, #0]
 8006678:	b9e3      	cbnz	r3, 80066b4 <xTaskRemoveFromEventList+0x6c>
 800667a:	1d21      	adds	r1, r4, #4
 800667c:	4608      	mov	r0, r1
 800667e:	9101      	str	r1, [sp, #4]
 8006680:	f7fe ff41 	bl	8005506 <uxListRemove>
 8006684:	4a0e      	ldr	r2, [pc, #56]	; (80066c0 <xTaskRemoveFromEventList+0x78>)
 8006686:	6ae3      	ldr	r3, [r4, #44]	; 0x2c
 8006688:	6810      	ldr	r0, [r2, #0]
 800668a:	9901      	ldr	r1, [sp, #4]
 800668c:	4283      	cmp	r3, r0
 800668e:	d900      	bls.n	8006692 <xTaskRemoveFromEventList+0x4a>
 8006690:	6013      	str	r3, [r2, #0]
 8006692:	4a0c      	ldr	r2, [pc, #48]	; (80066c4 <xTaskRemoveFromEventList+0x7c>)
 8006694:	2014      	movs	r0, #20
 8006696:	fb00 2003 	mla	r0, r0, r3, r2
 800669a:	f7fe ff11 	bl	80054c0 <vListInsertEnd>
 800669e:	4b0a      	ldr	r3, [pc, #40]	; (80066c8 <xTaskRemoveFromEventList+0x80>)
 80066a0:	6ae2      	ldr	r2, [r4, #44]	; 0x2c
 80066a2:	681b      	ldr	r3, [r3, #0]
 80066a4:	6adb      	ldr	r3, [r3, #44]	; 0x2c
 80066a6:	429a      	cmp	r2, r3
 80066a8:	d906      	bls.n	80066b8 <xTaskRemoveFromEventList+0x70>
 80066aa:	2001      	movs	r0, #1
 80066ac:	4b07      	ldr	r3, [pc, #28]	; (80066cc <xTaskRemoveFromEventList+0x84>)
 80066ae:	6018      	str	r0, [r3, #0]
 80066b0:	b002      	add	sp, #8
 80066b2:	bd10      	pop	{r4, pc}
 80066b4:	4806      	ldr	r0, [pc, #24]	; (80066d0 <xTaskRemoveFromEventList+0x88>)
 80066b6:	e7f0      	b.n	800669a <xTaskRemoveFromEventList+0x52>
 80066b8:	2000      	movs	r0, #0
 80066ba:	e7f9      	b.n	80066b0 <xTaskRemoveFromEventList+0x68>
 80066bc:	200013f0 	.word	0x200013f0
 80066c0:	200013f8 	.word	0x200013f8
 80066c4:	20000f84 	.word	0x20000f84
 80066c8:	20000f78 	.word	0x20000f78
 80066cc:	20001470 	.word	0x20001470
 80066d0:	2000142c 	.word	0x2000142c

080066d4 <vTaskInternalSetTimeOutState>:
 80066d4:	4b03      	ldr	r3, [pc, #12]	; (80066e4 <vTaskInternalSetTimeOutState+0x10>)
 80066d6:	681b      	ldr	r3, [r3, #0]
 80066d8:	6003      	str	r3, [r0, #0]
 80066da:	4b03      	ldr	r3, [pc, #12]	; (80066e8 <vTaskInternalSetTimeOutState+0x14>)
 80066dc:	681b      	ldr	r3, [r3, #0]
 80066de:	6043      	str	r3, [r0, #4]
 80066e0:	4770      	bx	lr
 80066e2:	bf00      	nop
 80066e4:	20001428 	.word	0x20001428
 80066e8:	2000146c 	.word	0x2000146c

080066ec <xTaskCheckForTimeOut>:
 80066ec:	b570      	push	{r4, r5, r6, lr}
 80066ee:	460c      	mov	r4, r1
 80066f0:	4605      	mov	r5, r0
 80066f2:	b950      	cbnz	r0, 800670a <xTaskCheckForTimeOut+0x1e>
 80066f4:	f04f 0350 	mov.w	r3, #80	; 0x50
 80066f8:	b672      	cpsid	i
 80066fa:	f383 8811 	msr	BASEPRI, r3
 80066fe:	f3bf 8f6f 	isb	sy
 8006702:	f3bf 8f4f 	dsb	sy
 8006706:	b662      	cpsie	i
 8006708:	e7fe      	b.n	8006708 <xTaskCheckForTimeOut+0x1c>
 800670a:	b951      	cbnz	r1, 8006722 <xTaskCheckForTimeOut+0x36>
 800670c:	f04f 0350 	mov.w	r3, #80	; 0x50
 8006710:	b672      	cpsid	i
 8006712:	f383 8811 	msr	BASEPRI, r3
 8006716:	f3bf 8f6f 	isb	sy
 800671a:	f3bf 8f4f 	dsb	sy
 800671e:	b662      	cpsie	i
 8006720:	e7fe      	b.n	8006720 <xTaskCheckForTimeOut+0x34>
 8006722:	f000 fb67 	bl	8006df4 <vPortEnterCritical>
 8006726:	4b0f      	ldr	r3, [pc, #60]	; (8006764 <xTaskCheckForTimeOut+0x78>)
 8006728:	6819      	ldr	r1, [r3, #0]
 800672a:	6823      	ldr	r3, [r4, #0]
 800672c:	1c5a      	adds	r2, r3, #1
 800672e:	d010      	beq.n	8006752 <xTaskCheckForTimeOut+0x66>
 8006730:	480d      	ldr	r0, [pc, #52]	; (8006768 <xTaskCheckForTimeOut+0x7c>)
 8006732:	682e      	ldr	r6, [r5, #0]
 8006734:	6800      	ldr	r0, [r0, #0]
 8006736:	686a      	ldr	r2, [r5, #4]
 8006738:	4286      	cmp	r6, r0
 800673a:	d001      	beq.n	8006740 <xTaskCheckForTimeOut+0x54>
 800673c:	428a      	cmp	r2, r1
 800673e:	d90f      	bls.n	8006760 <xTaskCheckForTimeOut+0x74>
 8006740:	1a88      	subs	r0, r1, r2
 8006742:	4283      	cmp	r3, r0
 8006744:	d90a      	bls.n	800675c <xTaskCheckForTimeOut+0x70>
 8006746:	1a5b      	subs	r3, r3, r1
 8006748:	4628      	mov	r0, r5
 800674a:	4413      	add	r3, r2
 800674c:	6023      	str	r3, [r4, #0]
 800674e:	f7ff ffc1 	bl	80066d4 <vTaskInternalSetTimeOutState>
 8006752:	2400      	movs	r4, #0
 8006754:	f000 fb72 	bl	8006e3c <vPortExitCritical>
 8006758:	4620      	mov	r0, r4
 800675a:	bd70      	pop	{r4, r5, r6, pc}
 800675c:	2300      	movs	r3, #0
 800675e:	6023      	str	r3, [r4, #0]
 8006760:	2401      	movs	r4, #1
 8006762:	e7f7      	b.n	8006754 <xTaskCheckForTimeOut+0x68>
 8006764:	2000146c 	.word	0x2000146c
 8006768:	20001428 	.word	0x20001428

0800676c <vTaskMissedYield>:
 800676c:	4b01      	ldr	r3, [pc, #4]	; (8006774 <vTaskMissedYield+0x8>)
 800676e:	2201      	movs	r2, #1
 8006770:	601a      	str	r2, [r3, #0]
 8006772:	4770      	bx	lr
 8006774:	20001470 	.word	0x20001470

08006778 <xTaskGetSchedulerState>:
 8006778:	4b05      	ldr	r3, [pc, #20]	; (8006790 <xTaskGetSchedulerState+0x18>)
 800677a:	681b      	ldr	r3, [r3, #0]
 800677c:	b133      	cbz	r3, 800678c <xTaskGetSchedulerState+0x14>
 800677e:	4b05      	ldr	r3, [pc, #20]	; (8006794 <xTaskGetSchedulerState+0x1c>)
 8006780:	6818      	ldr	r0, [r3, #0]
 8006782:	fab0 f080 	clz	r0, r0
 8006786:	0940      	lsrs	r0, r0, #5
 8006788:	0040      	lsls	r0, r0, #1
 800678a:	4770      	bx	lr
 800678c:	2001      	movs	r0, #1
 800678e:	4770      	bx	lr
 8006790:	20001440 	.word	0x20001440
 8006794:	200013f0 	.word	0x200013f0

08006798 <xTaskPriorityDisinherit>:
 8006798:	b513      	push	{r0, r1, r4, lr}
 800679a:	b910      	cbnz	r0, 80067a2 <xTaskPriorityDisinherit+0xa>
 800679c:	2000      	movs	r0, #0
 800679e:	b002      	add	sp, #8
 80067a0:	bd10      	pop	{r4, pc}
 80067a2:	4b1e      	ldr	r3, [pc, #120]	; (800681c <xTaskPriorityDisinherit+0x84>)
 80067a4:	681c      	ldr	r4, [r3, #0]
 80067a6:	4284      	cmp	r4, r0
 80067a8:	d00a      	beq.n	80067c0 <xTaskPriorityDisinherit+0x28>
 80067aa:	f04f 0350 	mov.w	r3, #80	; 0x50
 80067ae:	b672      	cpsid	i
 80067b0:	f383 8811 	msr	BASEPRI, r3
 80067b4:	f3bf 8f6f 	isb	sy
 80067b8:	f3bf 8f4f 	dsb	sy
 80067bc:	b662      	cpsie	i
 80067be:	e7fe      	b.n	80067be <xTaskPriorityDisinherit+0x26>
 80067c0:	6d23      	ldr	r3, [r4, #80]	; 0x50
 80067c2:	b953      	cbnz	r3, 80067da <xTaskPriorityDisinherit+0x42>
 80067c4:	f04f 0350 	mov.w	r3, #80	; 0x50
 80067c8:	b672      	cpsid	i
 80067ca:	f383 8811 	msr	BASEPRI, r3
 80067ce:	f3bf 8f6f 	isb	sy
 80067d2:	f3bf 8f4f 	dsb	sy
 80067d6:	b662      	cpsie	i
 80067d8:	e7fe      	b.n	80067d8 <xTaskPriorityDisinherit+0x40>
 80067da:	6ae1      	ldr	r1, [r4, #44]	; 0x2c
 80067dc:	3b01      	subs	r3, #1
 80067de:	6ce2      	ldr	r2, [r4, #76]	; 0x4c
 80067e0:	6523      	str	r3, [r4, #80]	; 0x50
 80067e2:	4291      	cmp	r1, r2
 80067e4:	d0da      	beq.n	800679c <xTaskPriorityDisinherit+0x4>
 80067e6:	2b00      	cmp	r3, #0
 80067e8:	d1d8      	bne.n	800679c <xTaskPriorityDisinherit+0x4>
 80067ea:	1d21      	adds	r1, r4, #4
 80067ec:	4608      	mov	r0, r1
 80067ee:	9101      	str	r1, [sp, #4]
 80067f0:	f7fe fe89 	bl	8005506 <uxListRemove>
 80067f4:	6ce3      	ldr	r3, [r4, #76]	; 0x4c
 80067f6:	9901      	ldr	r1, [sp, #4]
 80067f8:	f1c3 0238 	rsb	r2, r3, #56	; 0x38
 80067fc:	62e3      	str	r3, [r4, #44]	; 0x2c
 80067fe:	61a2      	str	r2, [r4, #24]
 8006800:	4a07      	ldr	r2, [pc, #28]	; (8006820 <xTaskPriorityDisinherit+0x88>)
 8006802:	6810      	ldr	r0, [r2, #0]
 8006804:	4283      	cmp	r3, r0
 8006806:	d900      	bls.n	800680a <xTaskPriorityDisinherit+0x72>
 8006808:	6013      	str	r3, [r2, #0]
 800680a:	4a06      	ldr	r2, [pc, #24]	; (8006824 <xTaskPriorityDisinherit+0x8c>)
 800680c:	2014      	movs	r0, #20
 800680e:	fb00 2003 	mla	r0, r0, r3, r2
 8006812:	f7fe fe55 	bl	80054c0 <vListInsertEnd>
 8006816:	2001      	movs	r0, #1
 8006818:	e7c1      	b.n	800679e <xTaskPriorityDisinherit+0x6>
 800681a:	bf00      	nop
 800681c:	20000f78 	.word	0x20000f78
 8006820:	200013f8 	.word	0x200013f8
 8006824:	20000f84 	.word	0x20000f84

08006828 <prvCheckForValidListAndQueue>:
 8006828:	b5f7      	push	{r0, r1, r2, r4, r5, r6, r7, lr}
 800682a:	4c11      	ldr	r4, [pc, #68]	; (8006870 <prvCheckForValidListAndQueue+0x48>)
 800682c:	f000 fae2 	bl	8006df4 <vPortEnterCritical>
 8006830:	6825      	ldr	r5, [r4, #0]
 8006832:	b9bd      	cbnz	r5, 8006864 <prvCheckForValidListAndQueue+0x3c>
 8006834:	4f0f      	ldr	r7, [pc, #60]	; (8006874 <prvCheckForValidListAndQueue+0x4c>)
 8006836:	4e10      	ldr	r6, [pc, #64]	; (8006878 <prvCheckForValidListAndQueue+0x50>)
 8006838:	4638      	mov	r0, r7
 800683a:	f7fe fe33 	bl	80054a4 <vListInitialise>
 800683e:	4630      	mov	r0, r6
 8006840:	f7fe fe30 	bl	80054a4 <vListInitialise>
 8006844:	4b0d      	ldr	r3, [pc, #52]	; (800687c <prvCheckForValidListAndQueue+0x54>)
 8006846:	4a0e      	ldr	r2, [pc, #56]	; (8006880 <prvCheckForValidListAndQueue+0x58>)
 8006848:	2110      	movs	r1, #16
 800684a:	601f      	str	r7, [r3, #0]
 800684c:	200a      	movs	r0, #10
 800684e:	4b0d      	ldr	r3, [pc, #52]	; (8006884 <prvCheckForValidListAndQueue+0x5c>)
 8006850:	601e      	str	r6, [r3, #0]
 8006852:	4b0d      	ldr	r3, [pc, #52]	; (8006888 <prvCheckForValidListAndQueue+0x60>)
 8006854:	9500      	str	r5, [sp, #0]
 8006856:	f7fe ff80 	bl	800575a <xQueueGenericCreateStatic>
 800685a:	6020      	str	r0, [r4, #0]
 800685c:	b110      	cbz	r0, 8006864 <prvCheckForValidListAndQueue+0x3c>
 800685e:	490b      	ldr	r1, [pc, #44]	; (800688c <prvCheckForValidListAndQueue+0x64>)
 8006860:	f7ff f958 	bl	8005b14 <vQueueAddToRegistry>
 8006864:	b003      	add	sp, #12
 8006866:	e8bd 40f0 	ldmia.w	sp!, {r4, r5, r6, r7, lr}
 800686a:	f000 bae7 	b.w	8006e3c <vPortExitCritical>
 800686e:	bf00      	nop
 8006870:	20001598 	.word	0x20001598
 8006874:	2000151c 	.word	0x2000151c
 8006878:	20001530 	.word	0x20001530
 800687c:	20001474 	.word	0x20001474
 8006880:	2000147c 	.word	0x2000147c
 8006884:	20001478 	.word	0x20001478
 8006888:	20001548 	.word	0x20001548
 800688c:	08009b4d 	.word	0x08009b4d

08006890 <prvInsertTimerInActiveList>:
 8006890:	4291      	cmp	r1, r2
 8006892:	b508      	push	{r3, lr}
 8006894:	6041      	str	r1, [r0, #4]
 8006896:	6100      	str	r0, [r0, #16]
 8006898:	d80a      	bhi.n	80068b0 <prvInsertTimerInActiveList+0x20>
 800689a:	1ad3      	subs	r3, r2, r3
 800689c:	6982      	ldr	r2, [r0, #24]
 800689e:	4293      	cmp	r3, r2
 80068a0:	d20d      	bcs.n	80068be <prvInsertTimerInActiveList+0x2e>
 80068a2:	1d01      	adds	r1, r0, #4
 80068a4:	4b07      	ldr	r3, [pc, #28]	; (80068c4 <prvInsertTimerInActiveList+0x34>)
 80068a6:	6818      	ldr	r0, [r3, #0]
 80068a8:	f7fe fe16 	bl	80054d8 <vListInsert>
 80068ac:	2000      	movs	r0, #0
 80068ae:	bd08      	pop	{r3, pc}
 80068b0:	429a      	cmp	r2, r3
 80068b2:	d201      	bcs.n	80068b8 <prvInsertTimerInActiveList+0x28>
 80068b4:	4299      	cmp	r1, r3
 80068b6:	d202      	bcs.n	80068be <prvInsertTimerInActiveList+0x2e>
 80068b8:	1d01      	adds	r1, r0, #4
 80068ba:	4b03      	ldr	r3, [pc, #12]	; (80068c8 <prvInsertTimerInActiveList+0x38>)
 80068bc:	e7f3      	b.n	80068a6 <prvInsertTimerInActiveList+0x16>
 80068be:	2001      	movs	r0, #1
 80068c0:	e7f5      	b.n	80068ae <prvInsertTimerInActiveList+0x1e>
 80068c2:	bf00      	nop
 80068c4:	20001478 	.word	0x20001478
 80068c8:	20001474 	.word	0x20001474

080068cc <prvInitialiseNewTimer>:
 80068cc:	e92d 41f0 	stmdb	sp!, {r4, r5, r6, r7, r8, lr}
 80068d0:	9c07      	ldr	r4, [sp, #28]
 80068d2:	4680      	mov	r8, r0
 80068d4:	4616      	mov	r6, r2
 80068d6:	461f      	mov	r7, r3
 80068d8:	460d      	mov	r5, r1
 80068da:	b951      	cbnz	r1, 80068f2 <prvInitialiseNewTimer+0x26>
 80068dc:	f04f 0350 	mov.w	r3, #80	; 0x50
 80068e0:	b672      	cpsid	i
 80068e2:	f383 8811 	msr	BASEPRI, r3
 80068e6:	f3bf 8f6f 	isb	sy
 80068ea:	f3bf 8f4f 	dsb	sy
 80068ee:	b662      	cpsie	i
 80068f0:	e7fe      	b.n	80068f0 <prvInitialiseNewTimer+0x24>
 80068f2:	b18c      	cbz	r4, 8006918 <prvInitialiseNewTimer+0x4c>
 80068f4:	f7ff ff98 	bl	8006828 <prvCheckForValidListAndQueue>
 80068f8:	9b06      	ldr	r3, [sp, #24]
 80068fa:	1d20      	adds	r0, r4, #4
 80068fc:	f8c4 8000 	str.w	r8, [r4]
 8006900:	6223      	str	r3, [r4, #32]
 8006902:	e9c4 5706 	strd	r5, r7, [r4, #24]
 8006906:	f7fe fdd8 	bl	80054ba <vListInitialiseItem>
 800690a:	b12e      	cbz	r6, 8006918 <prvInitialiseNewTimer+0x4c>
 800690c:	f894 3028 	ldrb.w	r3, [r4, #40]	; 0x28
 8006910:	f043 0304 	orr.w	r3, r3, #4
 8006914:	f884 3028 	strb.w	r3, [r4, #40]	; 0x28
 8006918:	e8bd 81f0 	ldmia.w	sp!, {r4, r5, r6, r7, r8, pc}

0800691c <xTimerCreateTimerTask>:
 800691c:	b510      	push	{r4, lr}
 800691e:	b088      	sub	sp, #32
 8006920:	f7ff ff82 	bl	8006828 <prvCheckForValidListAndQueue>
 8006924:	4b13      	ldr	r3, [pc, #76]	; (8006974 <xTimerCreateTimerTask+0x58>)
 8006926:	681b      	ldr	r3, [r3, #0]
 8006928:	b1b3      	cbz	r3, 8006958 <xTimerCreateTimerTask+0x3c>
 800692a:	2400      	movs	r4, #0
 800692c:	aa07      	add	r2, sp, #28
 800692e:	a906      	add	r1, sp, #24
 8006930:	a805      	add	r0, sp, #20
 8006932:	e9cd 4405 	strd	r4, r4, [sp, #20]
 8006936:	f7fe fda9 	bl	800548c <vApplicationGetTimerTaskMemory>
 800693a:	9b05      	ldr	r3, [sp, #20]
 800693c:	9a07      	ldr	r2, [sp, #28]
 800693e:	9302      	str	r3, [sp, #8]
 8006940:	9b06      	ldr	r3, [sp, #24]
 8006942:	490d      	ldr	r1, [pc, #52]	; (8006978 <xTimerCreateTimerTask+0x5c>)
 8006944:	9301      	str	r3, [sp, #4]
 8006946:	2302      	movs	r3, #2
 8006948:	480c      	ldr	r0, [pc, #48]	; (800697c <xTimerCreateTimerTask+0x60>)
 800694a:	9300      	str	r3, [sp, #0]
 800694c:	4623      	mov	r3, r4
 800694e:	f7ff faab 	bl	8005ea8 <xTaskCreateStatic>
 8006952:	4b0b      	ldr	r3, [pc, #44]	; (8006980 <xTimerCreateTimerTask+0x64>)
 8006954:	6018      	str	r0, [r3, #0]
 8006956:	b950      	cbnz	r0, 800696e <xTimerCreateTimerTask+0x52>
 8006958:	f04f 0350 	mov.w	r3, #80	; 0x50
 800695c:	b672      	cpsid	i
 800695e:	f383 8811 	msr	BASEPRI, r3
 8006962:	f3bf 8f6f 	isb	sy
 8006966:	f3bf 8f4f 	dsb	sy
 800696a:	b662      	cpsie	i
 800696c:	e7fe      	b.n	800696c <xTimerCreateTimerTask+0x50>
 800696e:	2001      	movs	r0, #1
 8006970:	b008      	add	sp, #32
 8006972:	bd10      	pop	{r4, pc}
 8006974:	20001598 	.word	0x20001598
 8006978:	08009b52 	.word	0x08009b52
 800697c:	08006b19 	.word	0x08006b19
 8006980:	2000159c 	.word	0x2000159c

08006984 <xTimerCreate>:
 8006984:	b530      	push	{r4, r5, lr}
 8006986:	b087      	sub	sp, #28
 8006988:	4605      	mov	r5, r0
 800698a:	202c      	movs	r0, #44	; 0x2c
 800698c:	9303      	str	r3, [sp, #12]
 800698e:	e9cd 2104 	strd	r2, r1, [sp, #16]
 8006992:	f000 fb87 	bl	80070a4 <pvPortMalloc>
 8006996:	4604      	mov	r4, r0
 8006998:	b158      	cbz	r0, 80069b2 <xTimerCreate+0x2e>
 800699a:	2000      	movs	r0, #0
 800699c:	9905      	ldr	r1, [sp, #20]
 800699e:	f884 0028 	strb.w	r0, [r4, #40]	; 0x28
 80069a2:	980a      	ldr	r0, [sp, #40]	; 0x28
 80069a4:	9401      	str	r4, [sp, #4]
 80069a6:	9000      	str	r0, [sp, #0]
 80069a8:	4628      	mov	r0, r5
 80069aa:	e9dd 3203 	ldrd	r3, r2, [sp, #12]
 80069ae:	f7ff ff8d 	bl	80068cc <prvInitialiseNewTimer>
 80069b2:	4620      	mov	r0, r4
 80069b4:	b007      	add	sp, #28
 80069b6:	bd30      	pop	{r4, r5, pc}

080069b8 <xTimerCreateStatic>:
 80069b8:	b530      	push	{r4, r5, lr}
 80069ba:	252c      	movs	r5, #44	; 0x2c
 80069bc:	b085      	sub	sp, #20
 80069be:	9503      	str	r5, [sp, #12]
 80069c0:	9d03      	ldr	r5, [sp, #12]
 80069c2:	9c09      	ldr	r4, [sp, #36]	; 0x24
 80069c4:	2d2c      	cmp	r5, #44	; 0x2c
 80069c6:	d00a      	beq.n	80069de <xTimerCreateStatic+0x26>
 80069c8:	f04f 0350 	mov.w	r3, #80	; 0x50
 80069cc:	b672      	cpsid	i
 80069ce:	f383 8811 	msr	BASEPRI, r3
 80069d2:	f3bf 8f6f 	isb	sy
 80069d6:	f3bf 8f4f 	dsb	sy
 80069da:	b662      	cpsie	i
 80069dc:	e7fe      	b.n	80069dc <xTimerCreateStatic+0x24>
 80069de:	9d03      	ldr	r5, [sp, #12]
 80069e0:	b954      	cbnz	r4, 80069f8 <xTimerCreateStatic+0x40>
 80069e2:	f04f 0350 	mov.w	r3, #80	; 0x50
 80069e6:	b672      	cpsid	i
 80069e8:	f383 8811 	msr	BASEPRI, r3
 80069ec:	f3bf 8f6f 	isb	sy
 80069f0:	f3bf 8f4f 	dsb	sy
 80069f4:	b662      	cpsie	i
 80069f6:	e7fe      	b.n	80069f6 <xTimerCreateStatic+0x3e>
 80069f8:	2502      	movs	r5, #2
 80069fa:	f884 5028 	strb.w	r5, [r4, #40]	; 0x28
 80069fe:	9d08      	ldr	r5, [sp, #32]
 8006a00:	9401      	str	r4, [sp, #4]
 8006a02:	9500      	str	r5, [sp, #0]
 8006a04:	f7ff ff62 	bl	80068cc <prvInitialiseNewTimer>
 8006a08:	4620      	mov	r0, r4
 8006a0a:	b005      	add	sp, #20
 8006a0c:	bd30      	pop	{r4, r5, pc}
	...

08006a10 <xTimerGenericCommand>:
 8006a10:	b57f      	push	{r0, r1, r2, r3, r4, r5, r6, lr}
 8006a12:	4616      	mov	r6, r2
 8006a14:	4604      	mov	r4, r0
 8006a16:	461a      	mov	r2, r3
 8006a18:	b950      	cbnz	r0, 8006a30 <xTimerGenericCommand+0x20>
 8006a1a:	f04f 0350 	mov.w	r3, #80	; 0x50
 8006a1e:	b672      	cpsid	i
 8006a20:	f383 8811 	msr	BASEPRI, r3
 8006a24:	f3bf 8f6f 	isb	sy
 8006a28:	f3bf 8f4f 	dsb	sy
 8006a2c:	b662      	cpsie	i
 8006a2e:	e7fe      	b.n	8006a2e <xTimerGenericCommand+0x1e>
 8006a30:	4d0c      	ldr	r5, [pc, #48]	; (8006a64 <xTimerGenericCommand+0x54>)
 8006a32:	6828      	ldr	r0, [r5, #0]
 8006a34:	b178      	cbz	r0, 8006a56 <xTimerGenericCommand+0x46>
 8006a36:	2905      	cmp	r1, #5
 8006a38:	9402      	str	r4, [sp, #8]
 8006a3a:	e9cd 1600 	strd	r1, r6, [sp]
 8006a3e:	dc0c      	bgt.n	8006a5a <xTimerGenericCommand+0x4a>
 8006a40:	f7ff fe9a 	bl	8006778 <xTaskGetSchedulerState>
 8006a44:	2300      	movs	r3, #0
 8006a46:	2802      	cmp	r0, #2
 8006a48:	4669      	mov	r1, sp
 8006a4a:	6828      	ldr	r0, [r5, #0]
 8006a4c:	bf0c      	ite	eq
 8006a4e:	9a08      	ldreq	r2, [sp, #32]
 8006a50:	461a      	movne	r2, r3
 8006a52:	f7fe fe96 	bl	8005782 <xQueueGenericSend>
 8006a56:	b004      	add	sp, #16
 8006a58:	bd70      	pop	{r4, r5, r6, pc}
 8006a5a:	2300      	movs	r3, #0
 8006a5c:	4669      	mov	r1, sp
 8006a5e:	f7fe ff4b 	bl	80058f8 <xQueueGenericSendFromISR>
 8006a62:	e7f8      	b.n	8006a56 <xTimerGenericCommand+0x46>
 8006a64:	20001598 	.word	0x20001598

08006a68 <prvSampleTimeNow>:
 8006a68:	e92d 47ff 	stmdb	sp!, {r0, r1, r2, r3, r4, r5, r6, r7, r8, r9, sl, lr}
 8006a6c:	f8df 80a4 	ldr.w	r8, [pc, #164]	; 8006b14 <prvSampleTimeNow+0xac>
 8006a70:	4606      	mov	r6, r0
 8006a72:	f7ff fbd5 	bl	8006220 <xTaskGetTickCount>
 8006a76:	4605      	mov	r5, r0
 8006a78:	f8d8 3000 	ldr.w	r3, [r8]
 8006a7c:	4283      	cmp	r3, r0
 8006a7e:	d90b      	bls.n	8006a98 <prvSampleTimeNow+0x30>
 8006a80:	4f22      	ldr	r7, [pc, #136]	; (8006b0c <prvSampleTimeNow+0xa4>)
 8006a82:	f04f 0900 	mov.w	r9, #0
 8006a86:	683b      	ldr	r3, [r7, #0]
 8006a88:	681a      	ldr	r2, [r3, #0]
 8006a8a:	b96a      	cbnz	r2, 8006aa8 <prvSampleTimeNow+0x40>
 8006a8c:	4a20      	ldr	r2, [pc, #128]	; (8006b10 <prvSampleTimeNow+0xa8>)
 8006a8e:	6811      	ldr	r1, [r2, #0]
 8006a90:	6013      	str	r3, [r2, #0]
 8006a92:	2301      	movs	r3, #1
 8006a94:	6039      	str	r1, [r7, #0]
 8006a96:	e000      	b.n	8006a9a <prvSampleTimeNow+0x32>
 8006a98:	2300      	movs	r3, #0
 8006a9a:	4628      	mov	r0, r5
 8006a9c:	6033      	str	r3, [r6, #0]
 8006a9e:	f8c8 5000 	str.w	r5, [r8]
 8006aa2:	b004      	add	sp, #16
 8006aa4:	e8bd 87f0 	ldmia.w	sp!, {r4, r5, r6, r7, r8, r9, sl, pc}
 8006aa8:	68db      	ldr	r3, [r3, #12]
 8006aaa:	68dc      	ldr	r4, [r3, #12]
 8006aac:	f8d3 a000 	ldr.w	sl, [r3]
 8006ab0:	1d21      	adds	r1, r4, #4
 8006ab2:	4608      	mov	r0, r1
 8006ab4:	9103      	str	r1, [sp, #12]
 8006ab6:	f7fe fd26 	bl	8005506 <uxListRemove>
 8006aba:	6a23      	ldr	r3, [r4, #32]
 8006abc:	4620      	mov	r0, r4
 8006abe:	4798      	blx	r3
 8006ac0:	f894 3028 	ldrb.w	r3, [r4, #40]	; 0x28
 8006ac4:	9903      	ldr	r1, [sp, #12]
 8006ac6:	f013 0f04 	tst.w	r3, #4
 8006aca:	d0dc      	beq.n	8006a86 <prvSampleTimeNow+0x1e>
 8006acc:	69a3      	ldr	r3, [r4, #24]
 8006ace:	4453      	add	r3, sl
 8006ad0:	459a      	cmp	sl, r3
 8006ad2:	d205      	bcs.n	8006ae0 <prvSampleTimeNow+0x78>
 8006ad4:	6838      	ldr	r0, [r7, #0]
 8006ad6:	6063      	str	r3, [r4, #4]
 8006ad8:	6124      	str	r4, [r4, #16]
 8006ada:	f7fe fcfd 	bl	80054d8 <vListInsert>
 8006ade:	e7d2      	b.n	8006a86 <prvSampleTimeNow+0x1e>
 8006ae0:	2300      	movs	r3, #0
 8006ae2:	4652      	mov	r2, sl
 8006ae4:	4620      	mov	r0, r4
 8006ae6:	f8cd 9000 	str.w	r9, [sp]
 8006aea:	4619      	mov	r1, r3
 8006aec:	f7ff ff90 	bl	8006a10 <xTimerGenericCommand>
 8006af0:	2800      	cmp	r0, #0
 8006af2:	d1c8      	bne.n	8006a86 <prvSampleTimeNow+0x1e>
 8006af4:	f04f 0350 	mov.w	r3, #80	; 0x50
 8006af8:	b672      	cpsid	i
 8006afa:	f383 8811 	msr	BASEPRI, r3
 8006afe:	f3bf 8f6f 	isb	sy
 8006b02:	f3bf 8f4f 	dsb	sy
 8006b06:	b662      	cpsie	i
 8006b08:	e7fe      	b.n	8006b08 <prvSampleTimeNow+0xa0>
 8006b0a:	bf00      	nop
 8006b0c:	20001474 	.word	0x20001474
 8006b10:	20001478 	.word	0x20001478
 8006b14:	20001544 	.word	0x20001544

08006b18 <prvTimerTask>:
 8006b18:	e92d 43f0 	stmdb	sp!, {r4, r5, r6, r7, r8, r9, lr}
 8006b1c:	4d71      	ldr	r5, [pc, #452]	; (8006ce4 <prvTimerTask+0x1cc>)
 8006b1e:	b089      	sub	sp, #36	; 0x24
 8006b20:	4e71      	ldr	r6, [pc, #452]	; (8006ce8 <prvTimerTask+0x1d0>)
 8006b22:	682b      	ldr	r3, [r5, #0]
 8006b24:	f8d3 8000 	ldr.w	r8, [r3]
 8006b28:	f1b8 0f00 	cmp.w	r8, #0
 8006b2c:	d037      	beq.n	8006b9e <prvTimerTask+0x86>
 8006b2e:	68db      	ldr	r3, [r3, #12]
 8006b30:	2400      	movs	r4, #0
 8006b32:	f8d3 8000 	ldr.w	r8, [r3]
 8006b36:	f7ff fb6b 	bl	8006210 <vTaskSuspendAll>
 8006b3a:	a804      	add	r0, sp, #16
 8006b3c:	f7ff ff94 	bl	8006a68 <prvSampleTimeNow>
 8006b40:	9b04      	ldr	r3, [sp, #16]
 8006b42:	4681      	mov	r9, r0
 8006b44:	2b00      	cmp	r3, #0
 8006b46:	d16b      	bne.n	8006c20 <prvTimerTask+0x108>
 8006b48:	2c00      	cmp	r4, #0
 8006b4a:	d14e      	bne.n	8006bea <prvTimerTask+0xd2>
 8006b4c:	4540      	cmp	r0, r8
 8006b4e:	d352      	bcc.n	8006bf6 <prvTimerTask+0xde>
 8006b50:	f7ff fc04 	bl	800635c <xTaskResumeAll>
 8006b54:	682b      	ldr	r3, [r5, #0]
 8006b56:	68db      	ldr	r3, [r3, #12]
 8006b58:	68df      	ldr	r7, [r3, #12]
 8006b5a:	1d38      	adds	r0, r7, #4
 8006b5c:	f7fe fcd3 	bl	8005506 <uxListRemove>
 8006b60:	f897 3028 	ldrb.w	r3, [r7, #40]	; 0x28
 8006b64:	0758      	lsls	r0, r3, #29
 8006b66:	d51c      	bpl.n	8006ba2 <prvTimerTask+0x8a>
 8006b68:	69b9      	ldr	r1, [r7, #24]
 8006b6a:	4643      	mov	r3, r8
 8006b6c:	464a      	mov	r2, r9
 8006b6e:	4638      	mov	r0, r7
 8006b70:	4441      	add	r1, r8
 8006b72:	f7ff fe8d 	bl	8006890 <prvInsertTimerInActiveList>
 8006b76:	b1c0      	cbz	r0, 8006baa <prvTimerTask+0x92>
 8006b78:	4623      	mov	r3, r4
 8006b7a:	4642      	mov	r2, r8
 8006b7c:	4621      	mov	r1, r4
 8006b7e:	4638      	mov	r0, r7
 8006b80:	9400      	str	r4, [sp, #0]
 8006b82:	f7ff ff45 	bl	8006a10 <xTimerGenericCommand>
 8006b86:	b980      	cbnz	r0, 8006baa <prvTimerTask+0x92>
 8006b88:	f04f 0350 	mov.w	r3, #80	; 0x50
 8006b8c:	b672      	cpsid	i
 8006b8e:	f383 8811 	msr	BASEPRI, r3
 8006b92:	f3bf 8f6f 	isb	sy
 8006b96:	f3bf 8f4f 	dsb	sy
 8006b9a:	b662      	cpsie	i
 8006b9c:	e7fe      	b.n	8006b9c <prvTimerTask+0x84>
 8006b9e:	2401      	movs	r4, #1
 8006ba0:	e7c9      	b.n	8006b36 <prvTimerTask+0x1e>
 8006ba2:	f023 0301 	bic.w	r3, r3, #1
 8006ba6:	f887 3028 	strb.w	r3, [r7, #40]	; 0x28
 8006baa:	6a3b      	ldr	r3, [r7, #32]
 8006bac:	4638      	mov	r0, r7
 8006bae:	4798      	blx	r3
 8006bb0:	2200      	movs	r2, #0
 8006bb2:	a904      	add	r1, sp, #16
 8006bb4:	6830      	ldr	r0, [r6, #0]
 8006bb6:	f7fe ff08 	bl	80059ca <xQueueReceive>
 8006bba:	2800      	cmp	r0, #0
 8006bbc:	d0b1      	beq.n	8006b22 <prvTimerTask+0xa>
 8006bbe:	9b04      	ldr	r3, [sp, #16]
 8006bc0:	9806      	ldr	r0, [sp, #24]
 8006bc2:	2b00      	cmp	r3, #0
 8006bc4:	db2f      	blt.n	8006c26 <prvTimerTask+0x10e>
 8006bc6:	9c06      	ldr	r4, [sp, #24]
 8006bc8:	6963      	ldr	r3, [r4, #20]
 8006bca:	2b00      	cmp	r3, #0
 8006bcc:	d132      	bne.n	8006c34 <prvTimerTask+0x11c>
 8006bce:	a803      	add	r0, sp, #12
 8006bd0:	f7ff ff4a 	bl	8006a68 <prvSampleTimeNow>
 8006bd4:	9b04      	ldr	r3, [sp, #16]
 8006bd6:	4602      	mov	r2, r0
 8006bd8:	2b09      	cmp	r3, #9
 8006bda:	d8e9      	bhi.n	8006bb0 <prvTimerTask+0x98>
 8006bdc:	e8df f003 	tbb	[pc, r3]
 8006be0:	592e2e2e 	.word	0x592e2e2e
 8006be4:	2e2e7a60 	.word	0x2e2e7a60
 8006be8:	6059      	.short	0x6059
 8006bea:	4b40      	ldr	r3, [pc, #256]	; (8006cec <prvTimerTask+0x1d4>)
 8006bec:	681b      	ldr	r3, [r3, #0]
 8006bee:	681c      	ldr	r4, [r3, #0]
 8006bf0:	fab4 f484 	clz	r4, r4
 8006bf4:	0964      	lsrs	r4, r4, #5
 8006bf6:	4622      	mov	r2, r4
 8006bf8:	eba8 0109 	sub.w	r1, r8, r9
 8006bfc:	6830      	ldr	r0, [r6, #0]
 8006bfe:	f7fe ff9b 	bl	8005b38 <vQueueWaitForMessageRestricted>
 8006c02:	f7ff fbab 	bl	800635c <xTaskResumeAll>
 8006c06:	2800      	cmp	r0, #0
 8006c08:	d1d2      	bne.n	8006bb0 <prvTimerTask+0x98>
 8006c0a:	f04f 23e0 	mov.w	r3, #3758153728	; 0xe000e000
 8006c0e:	f04f 5280 	mov.w	r2, #268435456	; 0x10000000
 8006c12:	f8c3 2d04 	str.w	r2, [r3, #3332]	; 0xd04
 8006c16:	f3bf 8f4f 	dsb	sy
 8006c1a:	f3bf 8f6f 	isb	sy
 8006c1e:	e7c7      	b.n	8006bb0 <prvTimerTask+0x98>
 8006c20:	f7ff fb9c 	bl	800635c <xTaskResumeAll>
 8006c24:	e7c4      	b.n	8006bb0 <prvTimerTask+0x98>
 8006c26:	9b05      	ldr	r3, [sp, #20]
 8006c28:	9907      	ldr	r1, [sp, #28]
 8006c2a:	4798      	blx	r3
 8006c2c:	9b04      	ldr	r3, [sp, #16]
 8006c2e:	2b00      	cmp	r3, #0
 8006c30:	dbbe      	blt.n	8006bb0 <prvTimerTask+0x98>
 8006c32:	e7c8      	b.n	8006bc6 <prvTimerTask+0xae>
 8006c34:	1d20      	adds	r0, r4, #4
 8006c36:	f7fe fc66 	bl	8005506 <uxListRemove>
 8006c3a:	e7c8      	b.n	8006bce <prvTimerTask+0xb6>
 8006c3c:	f894 3028 	ldrb.w	r3, [r4, #40]	; 0x28
 8006c40:	4620      	mov	r0, r4
 8006c42:	69a1      	ldr	r1, [r4, #24]
 8006c44:	f043 0301 	orr.w	r3, r3, #1
 8006c48:	f884 3028 	strb.w	r3, [r4, #40]	; 0x28
 8006c4c:	9b05      	ldr	r3, [sp, #20]
 8006c4e:	4419      	add	r1, r3
 8006c50:	f7ff fe1e 	bl	8006890 <prvInsertTimerInActiveList>
 8006c54:	2800      	cmp	r0, #0
 8006c56:	d0ab      	beq.n	8006bb0 <prvTimerTask+0x98>
 8006c58:	6a23      	ldr	r3, [r4, #32]
 8006c5a:	4620      	mov	r0, r4
 8006c5c:	4798      	blx	r3
 8006c5e:	f894 3028 	ldrb.w	r3, [r4, #40]	; 0x28
 8006c62:	0759      	lsls	r1, r3, #29
 8006c64:	d5a4      	bpl.n	8006bb0 <prvTimerTask+0x98>
 8006c66:	69a2      	ldr	r2, [r4, #24]
 8006c68:	2300      	movs	r3, #0
 8006c6a:	9905      	ldr	r1, [sp, #20]
 8006c6c:	4620      	mov	r0, r4
 8006c6e:	9300      	str	r3, [sp, #0]
 8006c70:	440a      	add	r2, r1
 8006c72:	4619      	mov	r1, r3
 8006c74:	f7ff fecc 	bl	8006a10 <xTimerGenericCommand>
 8006c78:	2800      	cmp	r0, #0
 8006c7a:	d199      	bne.n	8006bb0 <prvTimerTask+0x98>
 8006c7c:	f04f 0350 	mov.w	r3, #80	; 0x50
 8006c80:	b672      	cpsid	i
 8006c82:	f383 8811 	msr	BASEPRI, r3
 8006c86:	f3bf 8f6f 	isb	sy
 8006c8a:	f3bf 8f4f 	dsb	sy
 8006c8e:	b662      	cpsie	i
 8006c90:	e7fe      	b.n	8006c90 <prvTimerTask+0x178>
 8006c92:	f894 3028 	ldrb.w	r3, [r4, #40]	; 0x28
 8006c96:	f023 0301 	bic.w	r3, r3, #1
 8006c9a:	f884 3028 	strb.w	r3, [r4, #40]	; 0x28
 8006c9e:	e787      	b.n	8006bb0 <prvTimerTask+0x98>
 8006ca0:	f894 3028 	ldrb.w	r3, [r4, #40]	; 0x28
 8006ca4:	f043 0301 	orr.w	r3, r3, #1
 8006ca8:	f884 3028 	strb.w	r3, [r4, #40]	; 0x28
 8006cac:	9905      	ldr	r1, [sp, #20]
 8006cae:	61a1      	str	r1, [r4, #24]
 8006cb0:	b951      	cbnz	r1, 8006cc8 <prvTimerTask+0x1b0>
 8006cb2:	f04f 0350 	mov.w	r3, #80	; 0x50
 8006cb6:	b672      	cpsid	i
 8006cb8:	f383 8811 	msr	BASEPRI, r3
 8006cbc:	f3bf 8f6f 	isb	sy
 8006cc0:	f3bf 8f4f 	dsb	sy
 8006cc4:	b662      	cpsie	i
 8006cc6:	e7fe      	b.n	8006cc6 <prvTimerTask+0x1ae>
 8006cc8:	4603      	mov	r3, r0
 8006cca:	4401      	add	r1, r0
 8006ccc:	4620      	mov	r0, r4
 8006cce:	f7ff fddf 	bl	8006890 <prvInsertTimerInActiveList>
 8006cd2:	e76d      	b.n	8006bb0 <prvTimerTask+0x98>
 8006cd4:	f894 3028 	ldrb.w	r3, [r4, #40]	; 0x28
 8006cd8:	079a      	lsls	r2, r3, #30
 8006cda:	d4dc      	bmi.n	8006c96 <prvTimerTask+0x17e>
 8006cdc:	4620      	mov	r0, r4
 8006cde:	f000 fa75 	bl	80071cc <vPortFree>
 8006ce2:	e765      	b.n	8006bb0 <prvTimerTask+0x98>
 8006ce4:	20001474 	.word	0x20001474
 8006ce8:	20001598 	.word	0x20001598
 8006cec:	20001478 	.word	0x20001478

08006cf0 <pvTimerGetTimerID>:
 8006cf0:	b513      	push	{r0, r1, r4, lr}
 8006cf2:	4604      	mov	r4, r0
 8006cf4:	b950      	cbnz	r0, 8006d0c <pvTimerGetTimerID+0x1c>
 8006cf6:	f04f 0350 	mov.w	r3, #80	; 0x50
 8006cfa:	b672      	cpsid	i
 8006cfc:	f383 8811 	msr	BASEPRI, r3
 8006d00:	f3bf 8f6f 	isb	sy
 8006d04:	f3bf 8f4f 	dsb	sy
 8006d08:	b662      	cpsie	i
 8006d0a:	e7fe      	b.n	8006d0a <pvTimerGetTimerID+0x1a>
 8006d0c:	f000 f872 	bl	8006df4 <vPortEnterCritical>
 8006d10:	69e0      	ldr	r0, [r4, #28]
 8006d12:	9001      	str	r0, [sp, #4]
 8006d14:	f000 f892 	bl	8006e3c <vPortExitCritical>
 8006d18:	9801      	ldr	r0, [sp, #4]
 8006d1a:	b002      	add	sp, #8
 8006d1c:	bd10      	pop	{r4, pc}
	...

08006d20 <prvPortStartFirstTask>:
 8006d20:	4808      	ldr	r0, [pc, #32]	; (8006d44 <prvPortStartFirstTask+0x24>)
 8006d22:	6800      	ldr	r0, [r0, #0]
 8006d24:	6800      	ldr	r0, [r0, #0]
 8006d26:	f380 8808 	msr	MSP, r0
 8006d2a:	f04f 0000 	mov.w	r0, #0
 8006d2e:	f380 8814 	msr	CONTROL, r0
 8006d32:	b662      	cpsie	i
 8006d34:	b661      	cpsie	f
 8006d36:	f3bf 8f4f 	dsb	sy
 8006d3a:	f3bf 8f6f 	isb	sy
 8006d3e:	df00      	svc	0
 8006d40:	bf00      	nop
 8006d42:	0000      	.short	0x0000
 8006d44:	e000ed08 	.word	0xe000ed08

08006d48 <vPortEnableVFP>:
 8006d48:	f8df 000c 	ldr.w	r0, [pc, #12]	; 8006d58 <vPortEnableVFP+0x10>
 8006d4c:	6801      	ldr	r1, [r0, #0]
 8006d4e:	f441 0170 	orr.w	r1, r1, #15728640	; 0xf00000
 8006d52:	6001      	str	r1, [r0, #0]
 8006d54:	4770      	bx	lr
 8006d56:	0000      	.short	0x0000
 8006d58:	e000ed88 	.word	0xe000ed88

08006d5c <prvTaskExitError>:
 8006d5c:	2300      	movs	r3, #0
 8006d5e:	b082      	sub	sp, #8
 8006d60:	9301      	str	r3, [sp, #4]
 8006d62:	4b0f      	ldr	r3, [pc, #60]	; (8006da0 <prvTaskExitError+0x44>)
 8006d64:	681b      	ldr	r3, [r3, #0]
 8006d66:	3301      	adds	r3, #1
 8006d68:	d00a      	beq.n	8006d80 <prvTaskExitError+0x24>
 8006d6a:	f04f 0350 	mov.w	r3, #80	; 0x50
 8006d6e:	b672      	cpsid	i
 8006d70:	f383 8811 	msr	BASEPRI, r3
 8006d74:	f3bf 8f6f 	isb	sy
 8006d78:	f3bf 8f4f 	dsb	sy
 8006d7c:	b662      	cpsie	i
 8006d7e:	e7fe      	b.n	8006d7e <prvTaskExitError+0x22>
 8006d80:	f04f 0350 	mov.w	r3, #80	; 0x50
 8006d84:	b672      	cpsid	i
 8006d86:	f383 8811 	msr	BASEPRI, r3
 8006d8a:	f3bf 8f6f 	isb	sy
 8006d8e:	f3bf 8f4f 	dsb	sy
 8006d92:	b662      	cpsie	i
 8006d94:	9b01      	ldr	r3, [sp, #4]
 8006d96:	2b00      	cmp	r3, #0
 8006d98:	d0fc      	beq.n	8006d94 <prvTaskExitError+0x38>
 8006d9a:	b002      	add	sp, #8
 8006d9c:	4770      	bx	lr
 8006d9e:	bf00      	nop
 8006da0:	20000058 	.word	0x20000058

08006da4 <pxPortInitialiseStack>:
 8006da4:	f04f 7380 	mov.w	r3, #16777216	; 0x1000000
 8006da8:	f021 0101 	bic.w	r1, r1, #1
 8006dac:	f840 2c20 	str.w	r2, [r0, #-32]
 8006db0:	3844      	subs	r0, #68	; 0x44
 8006db2:	6403      	str	r3, [r0, #64]	; 0x40
 8006db4:	4b03      	ldr	r3, [pc, #12]	; (8006dc4 <pxPortInitialiseStack+0x20>)
 8006db6:	63c1      	str	r1, [r0, #60]	; 0x3c
 8006db8:	6383      	str	r3, [r0, #56]	; 0x38
 8006dba:	f06f 0302 	mvn.w	r3, #2
 8006dbe:	6203      	str	r3, [r0, #32]
 8006dc0:	4770      	bx	lr
 8006dc2:	bf00      	nop
 8006dc4:	08006d5d 	.word	0x08006d5d
	...

08006dd0 <SVC_Handler>:
 8006dd0:	4b07      	ldr	r3, [pc, #28]	; (8006df0 <pxCurrentTCBConst2>)
 8006dd2:	6819      	ldr	r1, [r3, #0]
 8006dd4:	6808      	ldr	r0, [r1, #0]
 8006dd6:	e8b0 4ff0 	ldmia.w	r0!, {r4, r5, r6, r7, r8, r9, sl, fp, lr}
 8006dda:	f380 8809 	msr	PSP, r0
 8006dde:	f3bf 8f6f 	isb	sy
 8006de2:	f04f 0000 	mov.w	r0, #0
 8006de6:	f380 8811 	msr	BASEPRI, r0
 8006dea:	4770      	bx	lr
 8006dec:	f3af 8000 	nop.w

08006df0 <pxCurrentTCBConst2>:
 8006df0:	20000f78 	.word	0x20000f78

08006df4 <vPortEnterCritical>:
 8006df4:	f04f 0350 	mov.w	r3, #80	; 0x50
 8006df8:	b672      	cpsid	i
 8006dfa:	f383 8811 	msr	BASEPRI, r3
 8006dfe:	f3bf 8f6f 	isb	sy
 8006e02:	f3bf 8f4f 	dsb	sy
 8006e06:	b662      	cpsie	i
 8006e08:	4a0b      	ldr	r2, [pc, #44]	; (8006e38 <vPortEnterCritical+0x44>)
 8006e0a:	6813      	ldr	r3, [r2, #0]
 8006e0c:	3301      	adds	r3, #1
 8006e0e:	2b01      	cmp	r3, #1
 8006e10:	6013      	str	r3, [r2, #0]
 8006e12:	d110      	bne.n	8006e36 <vPortEnterCritical+0x42>
 8006e14:	f04f 23e0 	mov.w	r3, #3758153728	; 0xe000e000
 8006e18:	f8d3 3d04 	ldr.w	r3, [r3, #3332]	; 0xd04
 8006e1c:	b2db      	uxtb	r3, r3
 8006e1e:	b153      	cbz	r3, 8006e36 <vPortEnterCritical+0x42>
 8006e20:	f04f 0350 	mov.w	r3, #80	; 0x50
 8006e24:	b672      	cpsid	i
 8006e26:	f383 8811 	msr	BASEPRI, r3
 8006e2a:	f3bf 8f6f 	isb	sy
 8006e2e:	f3bf 8f4f 	dsb	sy
 8006e32:	b662      	cpsie	i
 8006e34:	e7fe      	b.n	8006e34 <vPortEnterCritical+0x40>
 8006e36:	4770      	bx	lr
 8006e38:	20000058 	.word	0x20000058

08006e3c <vPortExitCritical>:
 8006e3c:	4a09      	ldr	r2, [pc, #36]	; (8006e64 <vPortExitCritical+0x28>)
 8006e3e:	6813      	ldr	r3, [r2, #0]
 8006e40:	b953      	cbnz	r3, 8006e58 <vPortExitCritical+0x1c>
 8006e42:	f04f 0350 	mov.w	r3, #80	; 0x50
 8006e46:	b672      	cpsid	i
 8006e48:	f383 8811 	msr	BASEPRI, r3
 8006e4c:	f3bf 8f6f 	isb	sy
 8006e50:	f3bf 8f4f 	dsb	sy
 8006e54:	b662      	cpsie	i
 8006e56:	e7fe      	b.n	8006e56 <vPortExitCritical+0x1a>
 8006e58:	3b01      	subs	r3, #1
 8006e5a:	6013      	str	r3, [r2, #0]
 8006e5c:	b90b      	cbnz	r3, 8006e62 <vPortExitCritical+0x26>
 8006e5e:	f383 8811 	msr	BASEPRI, r3
 8006e62:	4770      	bx	lr
 8006e64:	20000058 	.word	0x20000058
	...

08006e70 <PendSV_Handler>:
 8006e70:	f3ef 8009 	mrs	r0, PSP
 8006e74:	f3bf 8f6f 	isb	sy
 8006e78:	4b15      	ldr	r3, [pc, #84]	; (8006ed0 <pxCurrentTCBConst>)
 8006e7a:	681a      	ldr	r2, [r3, #0]
 8006e7c:	f01e 0f10 	tst.w	lr, #16
 8006e80:	bf08      	it	eq
 8006e82:	ed20 8a10 	vstmdbeq	r0!, {s16-s31}
 8006e86:	e920 4ff0 	stmdb	r0!, {r4, r5, r6, r7, r8, r9, sl, fp, lr}
 8006e8a:	6010      	str	r0, [r2, #0]
 8006e8c:	e92d 0009 	stmdb	sp!, {r0, r3}
 8006e90:	f04f 0050 	mov.w	r0, #80	; 0x50
 8006e94:	b672      	cpsid	i
 8006e96:	f380 8811 	msr	BASEPRI, r0
 8006e9a:	f3bf 8f4f 	dsb	sy
 8006e9e:	f3bf 8f6f 	isb	sy
 8006ea2:	b662      	cpsie	i
 8006ea4:	f7ff faf6 	bl	8006494 <vTaskSwitchContext>
 8006ea8:	f04f 0000 	mov.w	r0, #0
 8006eac:	f380 8811 	msr	BASEPRI, r0
 8006eb0:	bc09      	pop	{r0, r3}
 8006eb2:	6819      	ldr	r1, [r3, #0]
 8006eb4:	6808      	ldr	r0, [r1, #0]
 8006eb6:	e8b0 4ff0 	ldmia.w	r0!, {r4, r5, r6, r7, r8, r9, sl, fp, lr}
 8006eba:	f01e 0f10 	tst.w	lr, #16
 8006ebe:	bf08      	it	eq
 8006ec0:	ecb0 8a10 	vldmiaeq	r0!, {s16-s31}
 8006ec4:	f380 8809 	msr	PSP, r0
 8006ec8:	f3bf 8f6f 	isb	sy
 8006ecc:	4770      	bx	lr
 8006ece:	bf00      	nop

08006ed0 <pxCurrentTCBConst>:
 8006ed0:	20000f78 	.word	0x20000f78

08006ed4 <SysTick_Handler>:
 8006ed4:	b508      	push	{r3, lr}
 8006ed6:	f04f 0350 	mov.w	r3, #80	; 0x50
 8006eda:	b672      	cpsid	i
 8006edc:	f383 8811 	msr	BASEPRI, r3
 8006ee0:	f3bf 8f6f 	isb	sy
 8006ee4:	f3bf 8f4f 	dsb	sy
 8006ee8:	b662      	cpsie	i
 8006eea:	f7ff f99f 	bl	800622c <xTaskIncrementTick>
 8006eee:	b128      	cbz	r0, 8006efc <SysTick_Handler+0x28>
 8006ef0:	f04f 23e0 	mov.w	r3, #3758153728	; 0xe000e000
 8006ef4:	f04f 5280 	mov.w	r2, #268435456	; 0x10000000
 8006ef8:	f8c3 2d04 	str.w	r2, [r3, #3332]	; 0xd04
 8006efc:	2300      	movs	r3, #0
 8006efe:	f383 8811 	msr	BASEPRI, r3
 8006f02:	bd08      	pop	{r3, pc}

08006f04 <vPortSetupTimerInterrupt>:
 8006f04:	f04f 22e0 	mov.w	r2, #3758153728	; 0xe000e000
 8006f08:	2300      	movs	r3, #0
 8006f0a:	f44f 717a 	mov.w	r1, #1000	; 0x3e8
 8006f0e:	6113      	str	r3, [r2, #16]
 8006f10:	6193      	str	r3, [r2, #24]
 8006f12:	4b04      	ldr	r3, [pc, #16]	; (8006f24 <vPortSetupTimerInterrupt+0x20>)
 8006f14:	681b      	ldr	r3, [r3, #0]
 8006f16:	fbb3 f3f1 	udiv	r3, r3, r1
 8006f1a:	3b01      	subs	r3, #1
 8006f1c:	6153      	str	r3, [r2, #20]
 8006f1e:	2307      	movs	r3, #7
 8006f20:	6113      	str	r3, [r2, #16]
 8006f22:	4770      	bx	lr
 8006f24:	2000004c 	.word	0x2000004c

08006f28 <xPortStartScheduler>:
 8006f28:	4b2e      	ldr	r3, [pc, #184]	; (8006fe4 <xPortStartScheduler+0xbc>)
 8006f2a:	b537      	push	{r0, r1, r2, r4, r5, lr}
 8006f2c:	781a      	ldrb	r2, [r3, #0]
 8006f2e:	2100      	movs	r1, #0
 8006f30:	b2d2      	uxtb	r2, r2
 8006f32:	9201      	str	r2, [sp, #4]
 8006f34:	22ff      	movs	r2, #255	; 0xff
 8006f36:	701a      	strb	r2, [r3, #0]
 8006f38:	781b      	ldrb	r3, [r3, #0]
 8006f3a:	4a2b      	ldr	r2, [pc, #172]	; (8006fe8 <xPortStartScheduler+0xc0>)
 8006f3c:	b2db      	uxtb	r3, r3
 8006f3e:	f88d 3003 	strb.w	r3, [sp, #3]
 8006f42:	f89d 3003 	ldrb.w	r3, [sp, #3]
 8006f46:	f003 0350 	and.w	r3, r3, #80	; 0x50
 8006f4a:	7013      	strb	r3, [r2, #0]
 8006f4c:	2307      	movs	r3, #7
 8006f4e:	4a27      	ldr	r2, [pc, #156]	; (8006fec <xPortStartScheduler+0xc4>)
 8006f50:	6013      	str	r3, [r2, #0]
 8006f52:	f89d 0003 	ldrb.w	r0, [sp, #3]
 8006f56:	1e5c      	subs	r4, r3, #1
 8006f58:	0600      	lsls	r0, r0, #24
 8006f5a:	d40e      	bmi.n	8006f7a <xPortStartScheduler+0x52>
 8006f5c:	b111      	cbz	r1, 8006f64 <xPortStartScheduler+0x3c>
 8006f5e:	2b03      	cmp	r3, #3
 8006f60:	6013      	str	r3, [r2, #0]
 8006f62:	d013      	beq.n	8006f8c <xPortStartScheduler+0x64>
 8006f64:	f04f 0350 	mov.w	r3, #80	; 0x50
 8006f68:	b672      	cpsid	i
 8006f6a:	f383 8811 	msr	BASEPRI, r3
 8006f6e:	f3bf 8f6f 	isb	sy
 8006f72:	f3bf 8f4f 	dsb	sy
 8006f76:	b662      	cpsie	i
 8006f78:	e7fe      	b.n	8006f78 <xPortStartScheduler+0x50>
 8006f7a:	f89d 3003 	ldrb.w	r3, [sp, #3]
 8006f7e:	2101      	movs	r1, #1
 8006f80:	005b      	lsls	r3, r3, #1
 8006f82:	b2db      	uxtb	r3, r3
 8006f84:	f88d 3003 	strb.w	r3, [sp, #3]
 8006f88:	4623      	mov	r3, r4
 8006f8a:	e7e2      	b.n	8006f52 <xPortStartScheduler+0x2a>
 8006f8c:	f44f 7340 	mov.w	r3, #768	; 0x300
 8006f90:	f04f 24e0 	mov.w	r4, #3758153728	; 0xe000e000
 8006f94:	2500      	movs	r5, #0
 8006f96:	6013      	str	r3, [r2, #0]
 8006f98:	9b01      	ldr	r3, [sp, #4]
 8006f9a:	4a12      	ldr	r2, [pc, #72]	; (8006fe4 <xPortStartScheduler+0xbc>)
 8006f9c:	b2db      	uxtb	r3, r3
 8006f9e:	7013      	strb	r3, [r2, #0]
 8006fa0:	f8d4 3d20 	ldr.w	r3, [r4, #3360]	; 0xd20
 8006fa4:	f443 0370 	orr.w	r3, r3, #15728640	; 0xf00000
 8006fa8:	f8c4 3d20 	str.w	r3, [r4, #3360]	; 0xd20
 8006fac:	f8d4 3d20 	ldr.w	r3, [r4, #3360]	; 0xd20
 8006fb0:	f043 4370 	orr.w	r3, r3, #4026531840	; 0xf0000000
 8006fb4:	f8c4 3d20 	str.w	r3, [r4, #3360]	; 0xd20
 8006fb8:	f7ff ffa4 	bl	8006f04 <vPortSetupTimerInterrupt>
 8006fbc:	4b0c      	ldr	r3, [pc, #48]	; (8006ff0 <xPortStartScheduler+0xc8>)
 8006fbe:	601d      	str	r5, [r3, #0]
 8006fc0:	f7ff fec2 	bl	8006d48 <vPortEnableVFP>
 8006fc4:	f8d4 3f34 	ldr.w	r3, [r4, #3892]	; 0xf34
 8006fc8:	f043 4340 	orr.w	r3, r3, #3221225472	; 0xc0000000
 8006fcc:	f8c4 3f34 	str.w	r3, [r4, #3892]	; 0xf34
 8006fd0:	f7ff fea6 	bl	8006d20 <prvPortStartFirstTask>
 8006fd4:	f7ff fa5e 	bl	8006494 <vTaskSwitchContext>
 8006fd8:	4628      	mov	r0, r5
 8006fda:	f7ff febf 	bl	8006d5c <prvTaskExitError>
 8006fde:	b003      	add	sp, #12
 8006fe0:	bd30      	pop	{r4, r5, pc}
 8006fe2:	bf00      	nop
 8006fe4:	e000e400 	.word	0xe000e400
 8006fe8:	200015a0 	.word	0x200015a0
 8006fec:	200015a4 	.word	0x200015a4
 8006ff0:	20000058 	.word	0x20000058

08006ff4 <vPortValidateInterruptPriority>:
 8006ff4:	f3ef 8305 	mrs	r3, IPSR
 8006ff8:	2b0f      	cmp	r3, #15
 8006ffa:	d910      	bls.n	800701e <vPortValidateInterruptPriority+0x2a>
 8006ffc:	4a13      	ldr	r2, [pc, #76]	; (800704c <vPortValidateInterruptPriority+0x58>)
 8006ffe:	5c9b      	ldrb	r3, [r3, r2]
 8007000:	4a13      	ldr	r2, [pc, #76]	; (8007050 <vPortValidateInterruptPriority+0x5c>)
 8007002:	7812      	ldrb	r2, [r2, #0]
 8007004:	429a      	cmp	r2, r3
 8007006:	d90a      	bls.n	800701e <vPortValidateInterruptPriority+0x2a>
 8007008:	f04f 0350 	mov.w	r3, #80	; 0x50
 800700c:	b672      	cpsid	i
 800700e:	f383 8811 	msr	BASEPRI, r3
 8007012:	f3bf 8f6f 	isb	sy
 8007016:	f3bf 8f4f 	dsb	sy
 800701a:	b662      	cpsie	i
 800701c:	e7fe      	b.n	800701c <vPortValidateInterruptPriority+0x28>
 800701e:	f04f 23e0 	mov.w	r3, #3758153728	; 0xe000e000
 8007022:	4a0c      	ldr	r2, [pc, #48]	; (8007054 <vPortValidateInterruptPriority+0x60>)
 8007024:	f8d3 3d0c 	ldr.w	r3, [r3, #3340]	; 0xd0c
 8007028:	6812      	ldr	r2, [r2, #0]
 800702a:	f403 63e0 	and.w	r3, r3, #1792	; 0x700
 800702e:	4293      	cmp	r3, r2
 8007030:	d90a      	bls.n	8007048 <vPortValidateInterruptPriority+0x54>
 8007032:	f04f 0350 	mov.w	r3, #80	; 0x50
 8007036:	b672      	cpsid	i
 8007038:	f383 8811 	msr	BASEPRI, r3
 800703c:	f3bf 8f6f 	isb	sy
 8007040:	f3bf 8f4f 	dsb	sy
 8007044:	b662      	cpsie	i
 8007046:	e7fe      	b.n	8007046 <vPortValidateInterruptPriority+0x52>
 8007048:	4770      	bx	lr
 800704a:	bf00      	nop
 800704c:	e000e3f0 	.word	0xe000e3f0
 8007050:	200015a0 	.word	0x200015a0
 8007054:	200015a4 	.word	0x200015a4

08007058 <prvInsertBlockIntoFreeList>:
 8007058:	4b10      	ldr	r3, [pc, #64]	; (800709c <prvInsertBlockIntoFreeList+0x44>)
 800705a:	b510      	push	{r4, lr}
 800705c:	461a      	mov	r2, r3
 800705e:	681b      	ldr	r3, [r3, #0]
 8007060:	4283      	cmp	r3, r0
 8007062:	d3fb      	bcc.n	800705c <prvInsertBlockIntoFreeList+0x4>
 8007064:	6854      	ldr	r4, [r2, #4]
 8007066:	1911      	adds	r1, r2, r4
 8007068:	4288      	cmp	r0, r1
 800706a:	bf01      	itttt	eq
 800706c:	6841      	ldreq	r1, [r0, #4]
 800706e:	4610      	moveq	r0, r2
 8007070:	1909      	addeq	r1, r1, r4
 8007072:	6051      	streq	r1, [r2, #4]
 8007074:	6844      	ldr	r4, [r0, #4]
 8007076:	1901      	adds	r1, r0, r4
 8007078:	428b      	cmp	r3, r1
 800707a:	d10c      	bne.n	8007096 <prvInsertBlockIntoFreeList+0x3e>
 800707c:	4908      	ldr	r1, [pc, #32]	; (80070a0 <prvInsertBlockIntoFreeList+0x48>)
 800707e:	6809      	ldr	r1, [r1, #0]
 8007080:	428b      	cmp	r3, r1
 8007082:	d003      	beq.n	800708c <prvInsertBlockIntoFreeList+0x34>
 8007084:	6859      	ldr	r1, [r3, #4]
 8007086:	4421      	add	r1, r4
 8007088:	6041      	str	r1, [r0, #4]
 800708a:	6819      	ldr	r1, [r3, #0]
 800708c:	4290      	cmp	r0, r2
 800708e:	6001      	str	r1, [r0, #0]
 8007090:	bf18      	it	ne
 8007092:	6010      	strne	r0, [r2, #0]
 8007094:	bd10      	pop	{r4, pc}
 8007096:	4619      	mov	r1, r3
 8007098:	e7f8      	b.n	800708c <prvInsertBlockIntoFreeList+0x34>
 800709a:	bf00      	nop
 800709c:	200051b8 	.word	0x200051b8
 80070a0:	200015a8 	.word	0x200015a8

080070a4 <pvPortMalloc>:
 80070a4:	e92d 41f0 	stmdb	sp!, {r4, r5, r6, r7, r8, lr}
 80070a8:	4604      	mov	r4, r0
 80070aa:	f7ff f8b1 	bl	8006210 <vTaskSuspendAll>
 80070ae:	4941      	ldr	r1, [pc, #260]	; (80071b4 <pvPortMalloc+0x110>)
 80070b0:	4d41      	ldr	r5, [pc, #260]	; (80071b8 <pvPortMalloc+0x114>)
 80070b2:	680b      	ldr	r3, [r1, #0]
 80070b4:	bb0b      	cbnz	r3, 80070fa <pvPortMalloc+0x56>
 80070b6:	4a41      	ldr	r2, [pc, #260]	; (80071bc <pvPortMalloc+0x118>)
 80070b8:	0756      	lsls	r6, r2, #29
 80070ba:	4e41      	ldr	r6, [pc, #260]	; (80071c0 <pvPortMalloc+0x11c>)
 80070bc:	bf1b      	ittet	ne
 80070be:	1dd0      	addne	r0, r2, #7
 80070c0:	f502 5270 	addne.w	r2, r2, #15360	; 0x3c00
 80070c4:	f44f 5370 	moveq.w	r3, #15360	; 0x3c00
 80070c8:	f020 0007 	bicne.w	r0, r0, #7
 80070cc:	bf1c      	itt	ne
 80070ce:	1a13      	subne	r3, r2, r0
 80070d0:	4602      	movne	r2, r0
 80070d2:	2000      	movs	r0, #0
 80070d4:	4413      	add	r3, r2
 80070d6:	6032      	str	r2, [r6, #0]
 80070d8:	6070      	str	r0, [r6, #4]
 80070da:	3b08      	subs	r3, #8
 80070dc:	f023 0307 	bic.w	r3, r3, #7
 80070e0:	e9c3 0000 	strd	r0, r0, [r3]
 80070e4:	1a98      	subs	r0, r3, r2
 80070e6:	600b      	str	r3, [r1, #0]
 80070e8:	e9c2 3000 	strd	r3, r0, [r2]
 80070ec:	4b35      	ldr	r3, [pc, #212]	; (80071c4 <pvPortMalloc+0x120>)
 80070ee:	6018      	str	r0, [r3, #0]
 80070f0:	4b35      	ldr	r3, [pc, #212]	; (80071c8 <pvPortMalloc+0x124>)
 80070f2:	6018      	str	r0, [r3, #0]
 80070f4:	f04f 4300 	mov.w	r3, #2147483648	; 0x80000000
 80070f8:	602b      	str	r3, [r5, #0]
 80070fa:	682e      	ldr	r6, [r5, #0]
 80070fc:	4226      	tst	r6, r4
 80070fe:	d154      	bne.n	80071aa <pvPortMalloc+0x106>
 8007100:	2c00      	cmp	r4, #0
 8007102:	d043      	beq.n	800718c <pvPortMalloc+0xe8>
 8007104:	f104 0308 	add.w	r3, r4, #8
 8007108:	0760      	lsls	r0, r4, #29
 800710a:	bf1c      	itt	ne
 800710c:	f023 0307 	bicne.w	r3, r3, #7
 8007110:	3308      	addne	r3, #8
 8007112:	2b00      	cmp	r3, #0
 8007114:	d049      	beq.n	80071aa <pvPortMalloc+0x106>
 8007116:	4f2c      	ldr	r7, [pc, #176]	; (80071c8 <pvPortMalloc+0x124>)
 8007118:	683c      	ldr	r4, [r7, #0]
 800711a:	429c      	cmp	r4, r3
 800711c:	d345      	bcc.n	80071aa <pvPortMalloc+0x106>
 800711e:	4a28      	ldr	r2, [pc, #160]	; (80071c0 <pvPortMalloc+0x11c>)
 8007120:	6815      	ldr	r5, [r2, #0]
 8007122:	6868      	ldr	r0, [r5, #4]
 8007124:	4298      	cmp	r0, r3
 8007126:	d204      	bcs.n	8007132 <pvPortMalloc+0x8e>
 8007128:	f8d5 c000 	ldr.w	ip, [r5]
 800712c:	f1bc 0f00 	cmp.w	ip, #0
 8007130:	d117      	bne.n	8007162 <pvPortMalloc+0xbe>
 8007132:	6809      	ldr	r1, [r1, #0]
 8007134:	42a9      	cmp	r1, r5
 8007136:	d038      	beq.n	80071aa <pvPortMalloc+0x106>
 8007138:	6829      	ldr	r1, [r5, #0]
 800713a:	f8d2 8000 	ldr.w	r8, [r2]
 800713e:	6011      	str	r1, [r2, #0]
 8007140:	1ac2      	subs	r2, r0, r3
 8007142:	2a10      	cmp	r2, #16
 8007144:	d914      	bls.n	8007170 <pvPortMalloc+0xcc>
 8007146:	18e8      	adds	r0, r5, r3
 8007148:	0741      	lsls	r1, r0, #29
 800714a:	d00d      	beq.n	8007168 <pvPortMalloc+0xc4>
 800714c:	f04f 0350 	mov.w	r3, #80	; 0x50
 8007150:	b672      	cpsid	i
 8007152:	f383 8811 	msr	BASEPRI, r3
 8007156:	f3bf 8f6f 	isb	sy
 800715a:	f3bf 8f4f 	dsb	sy
 800715e:	b662      	cpsie	i
 8007160:	e7fe      	b.n	8007160 <pvPortMalloc+0xbc>
 8007162:	462a      	mov	r2, r5
 8007164:	4665      	mov	r5, ip
 8007166:	e7dc      	b.n	8007122 <pvPortMalloc+0x7e>
 8007168:	6042      	str	r2, [r0, #4]
 800716a:	606b      	str	r3, [r5, #4]
 800716c:	f7ff ff74 	bl	8007058 <prvInsertBlockIntoFreeList>
 8007170:	686a      	ldr	r2, [r5, #4]
 8007172:	2300      	movs	r3, #0
 8007174:	4913      	ldr	r1, [pc, #76]	; (80071c4 <pvPortMalloc+0x120>)
 8007176:	1aa4      	subs	r4, r4, r2
 8007178:	4316      	orrs	r6, r2
 800717a:	6808      	ldr	r0, [r1, #0]
 800717c:	603c      	str	r4, [r7, #0]
 800717e:	4284      	cmp	r4, r0
 8007180:	606e      	str	r6, [r5, #4]
 8007182:	602b      	str	r3, [r5, #0]
 8007184:	bf38      	it	cc
 8007186:	600c      	strcc	r4, [r1, #0]
 8007188:	f108 0408 	add.w	r4, r8, #8
 800718c:	f7ff f8e6 	bl	800635c <xTaskResumeAll>
 8007190:	0763      	lsls	r3, r4, #29
 8007192:	d00c      	beq.n	80071ae <pvPortMalloc+0x10a>
 8007194:	f04f 0350 	mov.w	r3, #80	; 0x50
 8007198:	b672      	cpsid	i
 800719a:	f383 8811 	msr	BASEPRI, r3
 800719e:	f3bf 8f6f 	isb	sy
 80071a2:	f3bf 8f4f 	dsb	sy
 80071a6:	b662      	cpsie	i
 80071a8:	e7fe      	b.n	80071a8 <pvPortMalloc+0x104>
 80071aa:	2400      	movs	r4, #0
 80071ac:	e7ee      	b.n	800718c <pvPortMalloc+0xe8>
 80071ae:	4620      	mov	r0, r4
 80071b0:	e8bd 81f0 	ldmia.w	sp!, {r4, r5, r6, r7, r8, pc}
 80071b4:	200015a8 	.word	0x200015a8
 80071b8:	200051ac 	.word	0x200051ac
 80071bc:	200015ac 	.word	0x200015ac
 80071c0:	200051b8 	.word	0x200051b8
 80071c4:	200051b4 	.word	0x200051b4
 80071c8:	200051b0 	.word	0x200051b0

080071cc <vPortFree>:
 80071cc:	b510      	push	{r4, lr}
 80071ce:	4604      	mov	r4, r0
 80071d0:	2800      	cmp	r0, #0
 80071d2:	d032      	beq.n	800723a <vPortFree+0x6e>
 80071d4:	4a19      	ldr	r2, [pc, #100]	; (800723c <vPortFree+0x70>)
 80071d6:	f850 3c04 	ldr.w	r3, [r0, #-4]
 80071da:	6812      	ldr	r2, [r2, #0]
 80071dc:	4213      	tst	r3, r2
 80071de:	d10a      	bne.n	80071f6 <vPortFree+0x2a>
 80071e0:	f04f 0350 	mov.w	r3, #80	; 0x50
 80071e4:	b672      	cpsid	i
 80071e6:	f383 8811 	msr	BASEPRI, r3
 80071ea:	f3bf 8f6f 	isb	sy
 80071ee:	f3bf 8f4f 	dsb	sy
 80071f2:	b662      	cpsie	i
 80071f4:	e7fe      	b.n	80071f4 <vPortFree+0x28>
 80071f6:	f850 1c08 	ldr.w	r1, [r0, #-8]
 80071fa:	b151      	cbz	r1, 8007212 <vPortFree+0x46>
 80071fc:	f04f 0350 	mov.w	r3, #80	; 0x50
 8007200:	b672      	cpsid	i
 8007202:	f383 8811 	msr	BASEPRI, r3
 8007206:	f3bf 8f6f 	isb	sy
 800720a:	f3bf 8f4f 	dsb	sy
 800720e:	b662      	cpsie	i
 8007210:	e7fe      	b.n	8007210 <vPortFree+0x44>
 8007212:	ea23 0302 	bic.w	r3, r3, r2
 8007216:	f840 3c04 	str.w	r3, [r0, #-4]
 800721a:	f7fe fff9 	bl	8006210 <vTaskSuspendAll>
 800721e:	4a08      	ldr	r2, [pc, #32]	; (8007240 <vPortFree+0x74>)
 8007220:	f854 3c04 	ldr.w	r3, [r4, #-4]
 8007224:	f1a4 0008 	sub.w	r0, r4, #8
 8007228:	6811      	ldr	r1, [r2, #0]
 800722a:	440b      	add	r3, r1
 800722c:	6013      	str	r3, [r2, #0]
 800722e:	f7ff ff13 	bl	8007058 <prvInsertBlockIntoFreeList>
 8007232:	e8bd 4010 	ldmia.w	sp!, {r4, lr}
 8007236:	f7ff b891 	b.w	800635c <xTaskResumeAll>
 800723a:	bd10      	pop	{r4, pc}
 800723c:	200051ac 	.word	0x200051ac
 8007240:	200051b0 	.word	0x200051b0

08007244 <std>:
 8007244:	2300      	movs	r3, #0
 8007246:	b510      	push	{r4, lr}
 8007248:	4604      	mov	r4, r0
 800724a:	e9c0 3300 	strd	r3, r3, [r0]
 800724e:	e9c0 3304 	strd	r3, r3, [r0, #16]
 8007252:	6083      	str	r3, [r0, #8]
 8007254:	8181      	strh	r1, [r0, #12]
 8007256:	6643      	str	r3, [r0, #100]	; 0x64
 8007258:	81c2      	strh	r2, [r0, #14]
 800725a:	6183      	str	r3, [r0, #24]
 800725c:	4619      	mov	r1, r3
 800725e:	2208      	movs	r2, #8
 8007260:	305c      	adds	r0, #92	; 0x5c
 8007262:	f000 f8f4 	bl	800744e <memset>
 8007266:	4b05      	ldr	r3, [pc, #20]	; (800727c <std+0x38>)
 8007268:	6263      	str	r3, [r4, #36]	; 0x24
 800726a:	4b05      	ldr	r3, [pc, #20]	; (8007280 <std+0x3c>)
 800726c:	62a3      	str	r3, [r4, #40]	; 0x28
 800726e:	4b05      	ldr	r3, [pc, #20]	; (8007284 <std+0x40>)
 8007270:	62e3      	str	r3, [r4, #44]	; 0x2c
 8007272:	4b05      	ldr	r3, [pc, #20]	; (8007288 <std+0x44>)
 8007274:	6224      	str	r4, [r4, #32]
 8007276:	6323      	str	r3, [r4, #48]	; 0x30
 8007278:	bd10      	pop	{r4, pc}
 800727a:	bf00      	nop
 800727c:	080073c9 	.word	0x080073c9
 8007280:	080073eb 	.word	0x080073eb
 8007284:	08007423 	.word	0x08007423
 8007288:	08007447 	.word	0x08007447

0800728c <stdio_exit_handler>:
 800728c:	4a02      	ldr	r2, [pc, #8]	; (8007298 <stdio_exit_handler+0xc>)
 800728e:	4903      	ldr	r1, [pc, #12]	; (800729c <stdio_exit_handler+0x10>)
 8007290:	4803      	ldr	r0, [pc, #12]	; (80072a0 <stdio_exit_handler+0x14>)
 8007292:	f000 b869 	b.w	8007368 <_fwalk_sglue>
 8007296:	bf00      	nop
 8007298:	2000005c 	.word	0x2000005c
 800729c:	08007ecd 	.word	0x08007ecd
 80072a0:	20000068 	.word	0x20000068

080072a4 <cleanup_stdio>:
 80072a4:	6841      	ldr	r1, [r0, #4]
 80072a6:	4b0c      	ldr	r3, [pc, #48]	; (80072d8 <cleanup_stdio+0x34>)
 80072a8:	4299      	cmp	r1, r3
 80072aa:	b510      	push	{r4, lr}
 80072ac:	4604      	mov	r4, r0
 80072ae:	d001      	beq.n	80072b4 <cleanup_stdio+0x10>
 80072b0:	f000 fe0c 	bl	8007ecc <_fflush_r>
 80072b4:	68a1      	ldr	r1, [r4, #8]
 80072b6:	4b09      	ldr	r3, [pc, #36]	; (80072dc <cleanup_stdio+0x38>)
 80072b8:	4299      	cmp	r1, r3
 80072ba:	d002      	beq.n	80072c2 <cleanup_stdio+0x1e>
 80072bc:	4620      	mov	r0, r4
 80072be:	f000 fe05 	bl	8007ecc <_fflush_r>
 80072c2:	68e1      	ldr	r1, [r4, #12]
 80072c4:	4b06      	ldr	r3, [pc, #24]	; (80072e0 <cleanup_stdio+0x3c>)
 80072c6:	4299      	cmp	r1, r3
 80072c8:	d004      	beq.n	80072d4 <cleanup_stdio+0x30>
 80072ca:	4620      	mov	r0, r4
 80072cc:	e8bd 4010 	ldmia.w	sp!, {r4, lr}
 80072d0:	f000 bdfc 	b.w	8007ecc <_fflush_r>
 80072d4:	bd10      	pop	{r4, pc}
 80072d6:	bf00      	nop
 80072d8:	200051c0 	.word	0x200051c0
 80072dc:	20005228 	.word	0x20005228
 80072e0:	20005290 	.word	0x20005290

080072e4 <global_stdio_init.part.0>:
 80072e4:	b510      	push	{r4, lr}
 80072e6:	4b0b      	ldr	r3, [pc, #44]	; (8007314 <global_stdio_init.part.0+0x30>)
 80072e8:	4c0b      	ldr	r4, [pc, #44]	; (8007318 <global_stdio_init.part.0+0x34>)
 80072ea:	4a0c      	ldr	r2, [pc, #48]	; (800731c <global_stdio_init.part.0+0x38>)
 80072ec:	601a      	str	r2, [r3, #0]
 80072ee:	4620      	mov	r0, r4
 80072f0:	2200      	movs	r2, #0
 80072f2:	2104      	movs	r1, #4
 80072f4:	f7ff ffa6 	bl	8007244 <std>
 80072f8:	f104 0068 	add.w	r0, r4, #104	; 0x68
 80072fc:	2201      	movs	r2, #1
 80072fe:	2109      	movs	r1, #9
 8007300:	f7ff ffa0 	bl	8007244 <std>
 8007304:	f104 00d0 	add.w	r0, r4, #208	; 0xd0
 8007308:	2202      	movs	r2, #2
 800730a:	e8bd 4010 	ldmia.w	sp!, {r4, lr}
 800730e:	2112      	movs	r1, #18
 8007310:	f7ff bf98 	b.w	8007244 <std>
 8007314:	200052f8 	.word	0x200052f8
 8007318:	200051c0 	.word	0x200051c0
 800731c:	0800728d 	.word	0x0800728d

08007320 <__sfp_lock_acquire>:
 8007320:	4801      	ldr	r0, [pc, #4]	; (8007328 <__sfp_lock_acquire+0x8>)
 8007322:	f000 b971 	b.w	8007608 <__retarget_lock_acquire_recursive>
 8007326:	bf00      	nop
 8007328:	20005301 	.word	0x20005301

0800732c <__sfp_lock_release>:
 800732c:	4801      	ldr	r0, [pc, #4]	; (8007334 <__sfp_lock_release+0x8>)
 800732e:	f000 b96c 	b.w	800760a <__retarget_lock_release_recursive>
 8007332:	bf00      	nop
 8007334:	20005301 	.word	0x20005301

08007338 <__sinit>:
 8007338:	b510      	push	{r4, lr}
 800733a:	4604      	mov	r4, r0
 800733c:	f7ff fff0 	bl	8007320 <__sfp_lock_acquire>
 8007340:	6a23      	ldr	r3, [r4, #32]
 8007342:	b11b      	cbz	r3, 800734c <__sinit+0x14>
 8007344:	e8bd 4010 	ldmia.w	sp!, {r4, lr}
 8007348:	f7ff bff0 	b.w	800732c <__sfp_lock_release>
 800734c:	4b04      	ldr	r3, [pc, #16]	; (8007360 <__sinit+0x28>)
 800734e:	6223      	str	r3, [r4, #32]
 8007350:	4b04      	ldr	r3, [pc, #16]	; (8007364 <__sinit+0x2c>)
 8007352:	681b      	ldr	r3, [r3, #0]
 8007354:	2b00      	cmp	r3, #0
 8007356:	d1f5      	bne.n	8007344 <__sinit+0xc>
 8007358:	f7ff ffc4 	bl	80072e4 <global_stdio_init.part.0>
 800735c:	e7f2      	b.n	8007344 <__sinit+0xc>
 800735e:	bf00      	nop
 8007360:	080072a5 	.word	0x080072a5
 8007364:	200052f8 	.word	0x200052f8

08007368 <_fwalk_sglue>:
 8007368:	e92d 43f8 	stmdb	sp!, {r3, r4, r5, r6, r7, r8, r9, lr}
 800736c:	4607      	mov	r7, r0
 800736e:	4688      	mov	r8, r1
 8007370:	4614      	mov	r4, r2
 8007372:	2600      	movs	r6, #0
 8007374:	e9d4 9501 	ldrd	r9, r5, [r4, #4]
 8007378:	f1b9 0901 	subs.w	r9, r9, #1
 800737c:	d505      	bpl.n	800738a <_fwalk_sglue+0x22>
 800737e:	6824      	ldr	r4, [r4, #0]
 8007380:	2c00      	cmp	r4, #0
 8007382:	d1f7      	bne.n	8007374 <_fwalk_sglue+0xc>
 8007384:	4630      	mov	r0, r6
 8007386:	e8bd 83f8 	ldmia.w	sp!, {r3, r4, r5, r6, r7, r8, r9, pc}
 800738a:	89ab      	ldrh	r3, [r5, #12]
 800738c:	2b01      	cmp	r3, #1
 800738e:	d907      	bls.n	80073a0 <_fwalk_sglue+0x38>
 8007390:	f9b5 300e 	ldrsh.w	r3, [r5, #14]
 8007394:	3301      	adds	r3, #1
 8007396:	d003      	beq.n	80073a0 <_fwalk_sglue+0x38>
 8007398:	4629      	mov	r1, r5
 800739a:	4638      	mov	r0, r7
 800739c:	47c0      	blx	r8
 800739e:	4306      	orrs	r6, r0
 80073a0:	3568      	adds	r5, #104	; 0x68
 80073a2:	e7e9      	b.n	8007378 <_fwalk_sglue+0x10>

080073a4 <iprintf>:
 80073a4:	b40f      	push	{r0, r1, r2, r3}
 80073a6:	b507      	push	{r0, r1, r2, lr}
 80073a8:	4906      	ldr	r1, [pc, #24]	; (80073c4 <iprintf+0x20>)
 80073aa:	ab04      	add	r3, sp, #16
 80073ac:	6808      	ldr	r0, [r1, #0]
 80073ae:	f853 2b04 	ldr.w	r2, [r3], #4
 80073b2:	6881      	ldr	r1, [r0, #8]
 80073b4:	9301      	str	r3, [sp, #4]
 80073b6:	f000 fa59 	bl	800786c <_vfiprintf_r>
 80073ba:	b003      	add	sp, #12
 80073bc:	f85d eb04 	ldr.w	lr, [sp], #4
 80073c0:	b004      	add	sp, #16
 80073c2:	4770      	bx	lr
 80073c4:	200000b4 	.word	0x200000b4

080073c8 <__sread>:
 80073c8:	b510      	push	{r4, lr}
 80073ca:	460c      	mov	r4, r1
 80073cc:	f9b1 100e 	ldrsh.w	r1, [r1, #14]
 80073d0:	f000 f8cc 	bl	800756c <_read_r>
 80073d4:	2800      	cmp	r0, #0
 80073d6:	bfab      	itete	ge
 80073d8:	6d63      	ldrge	r3, [r4, #84]	; 0x54
 80073da:	89a3      	ldrhlt	r3, [r4, #12]
 80073dc:	181b      	addge	r3, r3, r0
 80073de:	f423 5380 	biclt.w	r3, r3, #4096	; 0x1000
 80073e2:	bfac      	ite	ge
 80073e4:	6563      	strge	r3, [r4, #84]	; 0x54
 80073e6:	81a3      	strhlt	r3, [r4, #12]
 80073e8:	bd10      	pop	{r4, pc}

080073ea <__swrite>:
 80073ea:	e92d 41f0 	stmdb	sp!, {r4, r5, r6, r7, r8, lr}
 80073ee:	461f      	mov	r7, r3
 80073f0:	898b      	ldrh	r3, [r1, #12]
 80073f2:	05db      	lsls	r3, r3, #23
 80073f4:	4605      	mov	r5, r0
 80073f6:	460c      	mov	r4, r1
 80073f8:	4616      	mov	r6, r2
 80073fa:	d505      	bpl.n	8007408 <__swrite+0x1e>
 80073fc:	f9b1 100e 	ldrsh.w	r1, [r1, #14]
 8007400:	2302      	movs	r3, #2
 8007402:	2200      	movs	r2, #0
 8007404:	f000 f8a0 	bl	8007548 <_lseek_r>
 8007408:	89a3      	ldrh	r3, [r4, #12]
 800740a:	f9b4 100e 	ldrsh.w	r1, [r4, #14]
 800740e:	f423 5380 	bic.w	r3, r3, #4096	; 0x1000
 8007412:	81a3      	strh	r3, [r4, #12]
 8007414:	4632      	mov	r2, r6
 8007416:	463b      	mov	r3, r7
 8007418:	4628      	mov	r0, r5
 800741a:	e8bd 41f0 	ldmia.w	sp!, {r4, r5, r6, r7, r8, lr}
 800741e:	f000 b8b7 	b.w	8007590 <_write_r>

08007422 <__sseek>:
 8007422:	b510      	push	{r4, lr}
 8007424:	460c      	mov	r4, r1
 8007426:	f9b1 100e 	ldrsh.w	r1, [r1, #14]
 800742a:	f000 f88d 	bl	8007548 <_lseek_r>
 800742e:	1c43      	adds	r3, r0, #1
 8007430:	89a3      	ldrh	r3, [r4, #12]
 8007432:	bf15      	itete	ne
 8007434:	6560      	strne	r0, [r4, #84]	; 0x54
 8007436:	f423 5380 	biceq.w	r3, r3, #4096	; 0x1000
 800743a:	f443 5380 	orrne.w	r3, r3, #4096	; 0x1000
 800743e:	81a3      	strheq	r3, [r4, #12]
 8007440:	bf18      	it	ne
 8007442:	81a3      	strhne	r3, [r4, #12]
 8007444:	bd10      	pop	{r4, pc}

08007446 <__sclose>:
 8007446:	f9b1 100e 	ldrsh.w	r1, [r1, #14]
 800744a:	f000 b817 	b.w	800747c <_close_r>

0800744e <memset>:
 800744e:	4402      	add	r2, r0
 8007450:	4603      	mov	r3, r0
 8007452:	4293      	cmp	r3, r2
 8007454:	d100      	bne.n	8007458 <memset+0xa>
 8007456:	4770      	bx	lr
 8007458:	f803 1b01 	strb.w	r1, [r3], #1
 800745c:	e7f9      	b.n	8007452 <memset+0x4>

0800745e <strcat>:
 800745e:	b510      	push	{r4, lr}
 8007460:	4602      	mov	r2, r0
 8007462:	7814      	ldrb	r4, [r2, #0]
 8007464:	4613      	mov	r3, r2
 8007466:	3201      	adds	r2, #1
 8007468:	2c00      	cmp	r4, #0
 800746a:	d1fa      	bne.n	8007462 <strcat+0x4>
 800746c:	3b01      	subs	r3, #1
 800746e:	f811 2b01 	ldrb.w	r2, [r1], #1
 8007472:	f803 2f01 	strb.w	r2, [r3, #1]!
 8007476:	2a00      	cmp	r2, #0
 8007478:	d1f9      	bne.n	800746e <strcat+0x10>
 800747a:	bd10      	pop	{r4, pc}

0800747c <_close_r>:
 800747c:	b538      	push	{r3, r4, r5, lr}
 800747e:	4d06      	ldr	r5, [pc, #24]	; (8007498 <_close_r+0x1c>)
 8007480:	2300      	movs	r3, #0
 8007482:	4604      	mov	r4, r0
 8007484:	4608      	mov	r0, r1
 8007486:	602b      	str	r3, [r5, #0]
 8007488:	f7fa fbb2 	bl	8001bf0 <_close>
 800748c:	1c43      	adds	r3, r0, #1
 800748e:	d102      	bne.n	8007496 <_close_r+0x1a>
 8007490:	682b      	ldr	r3, [r5, #0]
 8007492:	b103      	cbz	r3, 8007496 <_close_r+0x1a>
 8007494:	6023      	str	r3, [r4, #0]
 8007496:	bd38      	pop	{r3, r4, r5, pc}
 8007498:	200052fc 	.word	0x200052fc

0800749c <_reclaim_reent>:
 800749c:	4b29      	ldr	r3, [pc, #164]	; (8007544 <_reclaim_reent+0xa8>)
 800749e:	681b      	ldr	r3, [r3, #0]
 80074a0:	4283      	cmp	r3, r0
 80074a2:	b570      	push	{r4, r5, r6, lr}
 80074a4:	4604      	mov	r4, r0
 80074a6:	d04b      	beq.n	8007540 <_reclaim_reent+0xa4>
 80074a8:	69c3      	ldr	r3, [r0, #28]
 80074aa:	b143      	cbz	r3, 80074be <_reclaim_reent+0x22>
 80074ac:	68db      	ldr	r3, [r3, #12]
 80074ae:	2b00      	cmp	r3, #0
 80074b0:	d144      	bne.n	800753c <_reclaim_reent+0xa0>
 80074b2:	69e3      	ldr	r3, [r4, #28]
 80074b4:	6819      	ldr	r1, [r3, #0]
 80074b6:	b111      	cbz	r1, 80074be <_reclaim_reent+0x22>
 80074b8:	4620      	mov	r0, r4
 80074ba:	f000 f8b5 	bl	8007628 <_free_r>
 80074be:	6961      	ldr	r1, [r4, #20]
 80074c0:	b111      	cbz	r1, 80074c8 <_reclaim_reent+0x2c>
 80074c2:	4620      	mov	r0, r4
 80074c4:	f000 f8b0 	bl	8007628 <_free_r>
 80074c8:	69e1      	ldr	r1, [r4, #28]
 80074ca:	b111      	cbz	r1, 80074d2 <_reclaim_reent+0x36>
 80074cc:	4620      	mov	r0, r4
 80074ce:	f000 f8ab 	bl	8007628 <_free_r>
 80074d2:	6b21      	ldr	r1, [r4, #48]	; 0x30
 80074d4:	b111      	cbz	r1, 80074dc <_reclaim_reent+0x40>
 80074d6:	4620      	mov	r0, r4
 80074d8:	f000 f8a6 	bl	8007628 <_free_r>
 80074dc:	6b61      	ldr	r1, [r4, #52]	; 0x34
 80074de:	b111      	cbz	r1, 80074e6 <_reclaim_reent+0x4a>
 80074e0:	4620      	mov	r0, r4
 80074e2:	f000 f8a1 	bl	8007628 <_free_r>
 80074e6:	6ba1      	ldr	r1, [r4, #56]	; 0x38
 80074e8:	b111      	cbz	r1, 80074f0 <_reclaim_reent+0x54>
 80074ea:	4620      	mov	r0, r4
 80074ec:	f000 f89c 	bl	8007628 <_free_r>
 80074f0:	6ca1      	ldr	r1, [r4, #72]	; 0x48
 80074f2:	b111      	cbz	r1, 80074fa <_reclaim_reent+0x5e>
 80074f4:	4620      	mov	r0, r4
 80074f6:	f000 f897 	bl	8007628 <_free_r>
 80074fa:	6c61      	ldr	r1, [r4, #68]	; 0x44
 80074fc:	b111      	cbz	r1, 8007504 <_reclaim_reent+0x68>
 80074fe:	4620      	mov	r0, r4
 8007500:	f000 f892 	bl	8007628 <_free_r>
 8007504:	6ae1      	ldr	r1, [r4, #44]	; 0x2c
 8007506:	b111      	cbz	r1, 800750e <_reclaim_reent+0x72>
 8007508:	4620      	mov	r0, r4
 800750a:	f000 f88d 	bl	8007628 <_free_r>
 800750e:	6a23      	ldr	r3, [r4, #32]
 8007510:	b1b3      	cbz	r3, 8007540 <_reclaim_reent+0xa4>
 8007512:	4620      	mov	r0, r4
 8007514:	e8bd 4070 	ldmia.w	sp!, {r4, r5, r6, lr}
 8007518:	4718      	bx	r3
 800751a:	5949      	ldr	r1, [r1, r5]
 800751c:	b941      	cbnz	r1, 8007530 <_reclaim_reent+0x94>
 800751e:	3504      	adds	r5, #4
 8007520:	69e3      	ldr	r3, [r4, #28]
 8007522:	2d80      	cmp	r5, #128	; 0x80
 8007524:	68d9      	ldr	r1, [r3, #12]
 8007526:	d1f8      	bne.n	800751a <_reclaim_reent+0x7e>
 8007528:	4620      	mov	r0, r4
 800752a:	f000 f87d 	bl	8007628 <_free_r>
 800752e:	e7c0      	b.n	80074b2 <_reclaim_reent+0x16>
 8007530:	680e      	ldr	r6, [r1, #0]
 8007532:	4620      	mov	r0, r4
 8007534:	f000 f878 	bl	8007628 <_free_r>
 8007538:	4631      	mov	r1, r6
 800753a:	e7ef      	b.n	800751c <_reclaim_reent+0x80>
 800753c:	2500      	movs	r5, #0
 800753e:	e7ef      	b.n	8007520 <_reclaim_reent+0x84>
 8007540:	bd70      	pop	{r4, r5, r6, pc}
 8007542:	bf00      	nop
 8007544:	200000b4 	.word	0x200000b4

08007548 <_lseek_r>:
 8007548:	b538      	push	{r3, r4, r5, lr}
 800754a:	4d07      	ldr	r5, [pc, #28]	; (8007568 <_lseek_r+0x20>)
 800754c:	4604      	mov	r4, r0
 800754e:	4608      	mov	r0, r1
 8007550:	4611      	mov	r1, r2
 8007552:	2200      	movs	r2, #0
 8007554:	602a      	str	r2, [r5, #0]
 8007556:	461a      	mov	r2, r3
 8007558:	f7fa fb54 	bl	8001c04 <_lseek>
 800755c:	1c43      	adds	r3, r0, #1
 800755e:	d102      	bne.n	8007566 <_lseek_r+0x1e>
 8007560:	682b      	ldr	r3, [r5, #0]
 8007562:	b103      	cbz	r3, 8007566 <_lseek_r+0x1e>
 8007564:	6023      	str	r3, [r4, #0]
 8007566:	bd38      	pop	{r3, r4, r5, pc}
 8007568:	200052fc 	.word	0x200052fc

0800756c <_read_r>:
 800756c:	b538      	push	{r3, r4, r5, lr}
 800756e:	4d07      	ldr	r5, [pc, #28]	; (800758c <_read_r+0x20>)
 8007570:	4604      	mov	r4, r0
 8007572:	4608      	mov	r0, r1
 8007574:	4611      	mov	r1, r2
 8007576:	2200      	movs	r2, #0
 8007578:	602a      	str	r2, [r5, #0]
 800757a:	461a      	mov	r2, r3
 800757c:	f7fa fb1c 	bl	8001bb8 <_read>
 8007580:	1c43      	adds	r3, r0, #1
 8007582:	d102      	bne.n	800758a <_read_r+0x1e>
 8007584:	682b      	ldr	r3, [r5, #0]
 8007586:	b103      	cbz	r3, 800758a <_read_r+0x1e>
 8007588:	6023      	str	r3, [r4, #0]
 800758a:	bd38      	pop	{r3, r4, r5, pc}
 800758c:	200052fc 	.word	0x200052fc

08007590 <_write_r>:
 8007590:	b538      	push	{r3, r4, r5, lr}
 8007592:	4d07      	ldr	r5, [pc, #28]	; (80075b0 <_write_r+0x20>)
 8007594:	4604      	mov	r4, r0
 8007596:	4608      	mov	r0, r1
 8007598:	4611      	mov	r1, r2
 800759a:	2200      	movs	r2, #0
 800759c:	602a      	str	r2, [r5, #0]
 800759e:	461a      	mov	r2, r3
 80075a0:	f7fa fb18 	bl	8001bd4 <_write>
 80075a4:	1c43      	adds	r3, r0, #1
 80075a6:	d102      	bne.n	80075ae <_write_r+0x1e>
 80075a8:	682b      	ldr	r3, [r5, #0]
 80075aa:	b103      	cbz	r3, 80075ae <_write_r+0x1e>
 80075ac:	6023      	str	r3, [r4, #0]
 80075ae:	bd38      	pop	{r3, r4, r5, pc}
 80075b0:	200052fc 	.word	0x200052fc

080075b4 <__errno>:
 80075b4:	4b01      	ldr	r3, [pc, #4]	; (80075bc <__errno+0x8>)
 80075b6:	6818      	ldr	r0, [r3, #0]
 80075b8:	4770      	bx	lr
 80075ba:	bf00      	nop
 80075bc:	200000b4 	.word	0x200000b4

080075c0 <__libc_init_array>:
 80075c0:	b570      	push	{r4, r5, r6, lr}
 80075c2:	4d0d      	ldr	r5, [pc, #52]	; (80075f8 <__libc_init_array+0x38>)
 80075c4:	4c0d      	ldr	r4, [pc, #52]	; (80075fc <__libc_init_array+0x3c>)
 80075c6:	1b64      	subs	r4, r4, r5
 80075c8:	10a4      	asrs	r4, r4, #2
 80075ca:	2600      	movs	r6, #0
 80075cc:	42a6      	cmp	r6, r4
 80075ce:	d109      	bne.n	80075e4 <__libc_init_array+0x24>
 80075d0:	4d0b      	ldr	r5, [pc, #44]	; (8007600 <__libc_init_array+0x40>)
 80075d2:	4c0c      	ldr	r4, [pc, #48]	; (8007604 <__libc_init_array+0x44>)
 80075d4:	f000 fdcc 	bl	8008170 <_init>
 80075d8:	1b64      	subs	r4, r4, r5
 80075da:	10a4      	asrs	r4, r4, #2
 80075dc:	2600      	movs	r6, #0
 80075de:	42a6      	cmp	r6, r4
 80075e0:	d105      	bne.n	80075ee <__libc_init_array+0x2e>
 80075e2:	bd70      	pop	{r4, r5, r6, pc}
 80075e4:	f855 3b04 	ldr.w	r3, [r5], #4
 80075e8:	4798      	blx	r3
 80075ea:	3601      	adds	r6, #1
 80075ec:	e7ee      	b.n	80075cc <__libc_init_array+0xc>
 80075ee:	f855 3b04 	ldr.w	r3, [r5], #4
 80075f2:	4798      	blx	r3
 80075f4:	3601      	adds	r6, #1
 80075f6:	e7f2      	b.n	80075de <__libc_init_array+0x1e>
 80075f8:	08009b98 	.word	0x08009b98
 80075fc:	08009b98 	.word	0x08009b98
 8007600:	08009b98 	.word	0x08009b98
 8007604:	08009b9c 	.word	0x08009b9c

08007608 <__retarget_lock_acquire_recursive>:
 8007608:	4770      	bx	lr

0800760a <__retarget_lock_release_recursive>:
 800760a:	4770      	bx	lr

0800760c <memcpy>:
 800760c:	440a      	add	r2, r1
 800760e:	4291      	cmp	r1, r2
 8007610:	f100 33ff 	add.w	r3, r0, #4294967295
 8007614:	d100      	bne.n	8007618 <memcpy+0xc>
 8007616:	4770      	bx	lr
 8007618:	b510      	push	{r4, lr}
 800761a:	f811 4b01 	ldrb.w	r4, [r1], #1
 800761e:	f803 4f01 	strb.w	r4, [r3, #1]!
 8007622:	4291      	cmp	r1, r2
 8007624:	d1f9      	bne.n	800761a <memcpy+0xe>
 8007626:	bd10      	pop	{r4, pc}

08007628 <_free_r>:
 8007628:	b537      	push	{r0, r1, r2, r4, r5, lr}
 800762a:	2900      	cmp	r1, #0
 800762c:	d044      	beq.n	80076b8 <_free_r+0x90>
 800762e:	f851 3c04 	ldr.w	r3, [r1, #-4]
 8007632:	9001      	str	r0, [sp, #4]
 8007634:	2b00      	cmp	r3, #0
 8007636:	f1a1 0404 	sub.w	r4, r1, #4
 800763a:	bfb8      	it	lt
 800763c:	18e4      	addlt	r4, r4, r3
 800763e:	f000 f8df 	bl	8007800 <__malloc_lock>
 8007642:	4a1e      	ldr	r2, [pc, #120]	; (80076bc <_free_r+0x94>)
 8007644:	9801      	ldr	r0, [sp, #4]
 8007646:	6813      	ldr	r3, [r2, #0]
 8007648:	b933      	cbnz	r3, 8007658 <_free_r+0x30>
 800764a:	6063      	str	r3, [r4, #4]
 800764c:	6014      	str	r4, [r2, #0]
 800764e:	b003      	add	sp, #12
 8007650:	e8bd 4030 	ldmia.w	sp!, {r4, r5, lr}
 8007654:	f000 b8da 	b.w	800780c <__malloc_unlock>
 8007658:	42a3      	cmp	r3, r4
 800765a:	d908      	bls.n	800766e <_free_r+0x46>
 800765c:	6825      	ldr	r5, [r4, #0]
 800765e:	1961      	adds	r1, r4, r5
 8007660:	428b      	cmp	r3, r1
 8007662:	bf01      	itttt	eq
 8007664:	6819      	ldreq	r1, [r3, #0]
 8007666:	685b      	ldreq	r3, [r3, #4]
 8007668:	1949      	addeq	r1, r1, r5
 800766a:	6021      	streq	r1, [r4, #0]
 800766c:	e7ed      	b.n	800764a <_free_r+0x22>
 800766e:	461a      	mov	r2, r3
 8007670:	685b      	ldr	r3, [r3, #4]
 8007672:	b10b      	cbz	r3, 8007678 <_free_r+0x50>
 8007674:	42a3      	cmp	r3, r4
 8007676:	d9fa      	bls.n	800766e <_free_r+0x46>
 8007678:	6811      	ldr	r1, [r2, #0]
 800767a:	1855      	adds	r5, r2, r1
 800767c:	42a5      	cmp	r5, r4
 800767e:	d10b      	bne.n	8007698 <_free_r+0x70>
 8007680:	6824      	ldr	r4, [r4, #0]
 8007682:	4421      	add	r1, r4
 8007684:	1854      	adds	r4, r2, r1
 8007686:	42a3      	cmp	r3, r4
 8007688:	6011      	str	r1, [r2, #0]
 800768a:	d1e0      	bne.n	800764e <_free_r+0x26>
 800768c:	681c      	ldr	r4, [r3, #0]
 800768e:	685b      	ldr	r3, [r3, #4]
 8007690:	6053      	str	r3, [r2, #4]
 8007692:	440c      	add	r4, r1
 8007694:	6014      	str	r4, [r2, #0]
 8007696:	e7da      	b.n	800764e <_free_r+0x26>
 8007698:	d902      	bls.n	80076a0 <_free_r+0x78>
 800769a:	230c      	movs	r3, #12
 800769c:	6003      	str	r3, [r0, #0]
 800769e:	e7d6      	b.n	800764e <_free_r+0x26>
 80076a0:	6825      	ldr	r5, [r4, #0]
 80076a2:	1961      	adds	r1, r4, r5
 80076a4:	428b      	cmp	r3, r1
 80076a6:	bf04      	itt	eq
 80076a8:	6819      	ldreq	r1, [r3, #0]
 80076aa:	685b      	ldreq	r3, [r3, #4]
 80076ac:	6063      	str	r3, [r4, #4]
 80076ae:	bf04      	itt	eq
 80076b0:	1949      	addeq	r1, r1, r5
 80076b2:	6021      	streq	r1, [r4, #0]
 80076b4:	6054      	str	r4, [r2, #4]
 80076b6:	e7ca      	b.n	800764e <_free_r+0x26>
 80076b8:	b003      	add	sp, #12
 80076ba:	bd30      	pop	{r4, r5, pc}
 80076bc:	20005304 	.word	0x20005304

080076c0 <sbrk_aligned>:
 80076c0:	b570      	push	{r4, r5, r6, lr}
 80076c2:	4e0e      	ldr	r6, [pc, #56]	; (80076fc <sbrk_aligned+0x3c>)
 80076c4:	460c      	mov	r4, r1
 80076c6:	6831      	ldr	r1, [r6, #0]
 80076c8:	4605      	mov	r5, r0
 80076ca:	b911      	cbnz	r1, 80076d2 <sbrk_aligned+0x12>
 80076cc:	f000 fcbc 	bl	8008048 <_sbrk_r>
 80076d0:	6030      	str	r0, [r6, #0]
 80076d2:	4621      	mov	r1, r4
 80076d4:	4628      	mov	r0, r5
 80076d6:	f000 fcb7 	bl	8008048 <_sbrk_r>
 80076da:	1c43      	adds	r3, r0, #1
 80076dc:	d00a      	beq.n	80076f4 <sbrk_aligned+0x34>
 80076de:	1cc4      	adds	r4, r0, #3
 80076e0:	f024 0403 	bic.w	r4, r4, #3
 80076e4:	42a0      	cmp	r0, r4
 80076e6:	d007      	beq.n	80076f8 <sbrk_aligned+0x38>
 80076e8:	1a21      	subs	r1, r4, r0
 80076ea:	4628      	mov	r0, r5
 80076ec:	f000 fcac 	bl	8008048 <_sbrk_r>
 80076f0:	3001      	adds	r0, #1
 80076f2:	d101      	bne.n	80076f8 <sbrk_aligned+0x38>
 80076f4:	f04f 34ff 	mov.w	r4, #4294967295
 80076f8:	4620      	mov	r0, r4
 80076fa:	bd70      	pop	{r4, r5, r6, pc}
 80076fc:	20005308 	.word	0x20005308

08007700 <_malloc_r>:
 8007700:	e92d 43f8 	stmdb	sp!, {r3, r4, r5, r6, r7, r8, r9, lr}
 8007704:	1ccd      	adds	r5, r1, #3
 8007706:	f025 0503 	bic.w	r5, r5, #3
 800770a:	3508      	adds	r5, #8
 800770c:	2d0c      	cmp	r5, #12
 800770e:	bf38      	it	cc
 8007710:	250c      	movcc	r5, #12
 8007712:	2d00      	cmp	r5, #0
 8007714:	4607      	mov	r7, r0
 8007716:	db01      	blt.n	800771c <_malloc_r+0x1c>
 8007718:	42a9      	cmp	r1, r5
 800771a:	d905      	bls.n	8007728 <_malloc_r+0x28>
 800771c:	230c      	movs	r3, #12
 800771e:	603b      	str	r3, [r7, #0]
 8007720:	2600      	movs	r6, #0
 8007722:	4630      	mov	r0, r6
 8007724:	e8bd 83f8 	ldmia.w	sp!, {r3, r4, r5, r6, r7, r8, r9, pc}
 8007728:	f8df 80d0 	ldr.w	r8, [pc, #208]	; 80077fc <_malloc_r+0xfc>
 800772c:	f000 f868 	bl	8007800 <__malloc_lock>
 8007730:	f8d8 3000 	ldr.w	r3, [r8]
 8007734:	461c      	mov	r4, r3
 8007736:	bb5c      	cbnz	r4, 8007790 <_malloc_r+0x90>
 8007738:	4629      	mov	r1, r5
 800773a:	4638      	mov	r0, r7
 800773c:	f7ff ffc0 	bl	80076c0 <sbrk_aligned>
 8007740:	1c43      	adds	r3, r0, #1
 8007742:	4604      	mov	r4, r0
 8007744:	d155      	bne.n	80077f2 <_malloc_r+0xf2>
 8007746:	f8d8 4000 	ldr.w	r4, [r8]
 800774a:	4626      	mov	r6, r4
 800774c:	2e00      	cmp	r6, #0
 800774e:	d145      	bne.n	80077dc <_malloc_r+0xdc>
 8007750:	2c00      	cmp	r4, #0
 8007752:	d048      	beq.n	80077e6 <_malloc_r+0xe6>
 8007754:	6823      	ldr	r3, [r4, #0]
 8007756:	4631      	mov	r1, r6
 8007758:	4638      	mov	r0, r7
 800775a:	eb04 0903 	add.w	r9, r4, r3
 800775e:	f000 fc73 	bl	8008048 <_sbrk_r>
 8007762:	4581      	cmp	r9, r0
 8007764:	d13f      	bne.n	80077e6 <_malloc_r+0xe6>
 8007766:	6821      	ldr	r1, [r4, #0]
 8007768:	1a6d      	subs	r5, r5, r1
 800776a:	4629      	mov	r1, r5
 800776c:	4638      	mov	r0, r7
 800776e:	f7ff ffa7 	bl	80076c0 <sbrk_aligned>
 8007772:	3001      	adds	r0, #1
 8007774:	d037      	beq.n	80077e6 <_malloc_r+0xe6>
 8007776:	6823      	ldr	r3, [r4, #0]
 8007778:	442b      	add	r3, r5
 800777a:	6023      	str	r3, [r4, #0]
 800777c:	f8d8 3000 	ldr.w	r3, [r8]
 8007780:	2b00      	cmp	r3, #0
 8007782:	d038      	beq.n	80077f6 <_malloc_r+0xf6>
 8007784:	685a      	ldr	r2, [r3, #4]
 8007786:	42a2      	cmp	r2, r4
 8007788:	d12b      	bne.n	80077e2 <_malloc_r+0xe2>
 800778a:	2200      	movs	r2, #0
 800778c:	605a      	str	r2, [r3, #4]
 800778e:	e00f      	b.n	80077b0 <_malloc_r+0xb0>
 8007790:	6822      	ldr	r2, [r4, #0]
 8007792:	1b52      	subs	r2, r2, r5
 8007794:	d41f      	bmi.n	80077d6 <_malloc_r+0xd6>
 8007796:	2a0b      	cmp	r2, #11
 8007798:	d917      	bls.n	80077ca <_malloc_r+0xca>
 800779a:	1961      	adds	r1, r4, r5
 800779c:	42a3      	cmp	r3, r4
 800779e:	6025      	str	r5, [r4, #0]
 80077a0:	bf18      	it	ne
 80077a2:	6059      	strne	r1, [r3, #4]
 80077a4:	6863      	ldr	r3, [r4, #4]
 80077a6:	bf08      	it	eq
 80077a8:	f8c8 1000 	streq.w	r1, [r8]
 80077ac:	5162      	str	r2, [r4, r5]
 80077ae:	604b      	str	r3, [r1, #4]
 80077b0:	4638      	mov	r0, r7
 80077b2:	f104 060b 	add.w	r6, r4, #11
 80077b6:	f000 f829 	bl	800780c <__malloc_unlock>
 80077ba:	f026 0607 	bic.w	r6, r6, #7
 80077be:	1d23      	adds	r3, r4, #4
 80077c0:	1af2      	subs	r2, r6, r3
 80077c2:	d0ae      	beq.n	8007722 <_malloc_r+0x22>
 80077c4:	1b9b      	subs	r3, r3, r6
 80077c6:	50a3      	str	r3, [r4, r2]
 80077c8:	e7ab      	b.n	8007722 <_malloc_r+0x22>
 80077ca:	42a3      	cmp	r3, r4
 80077cc:	6862      	ldr	r2, [r4, #4]
 80077ce:	d1dd      	bne.n	800778c <_malloc_r+0x8c>
 80077d0:	f8c8 2000 	str.w	r2, [r8]
 80077d4:	e7ec      	b.n	80077b0 <_malloc_r+0xb0>
 80077d6:	4623      	mov	r3, r4
 80077d8:	6864      	ldr	r4, [r4, #4]
 80077da:	e7ac      	b.n	8007736 <_malloc_r+0x36>
 80077dc:	4634      	mov	r4, r6
 80077de:	6876      	ldr	r6, [r6, #4]
 80077e0:	e7b4      	b.n	800774c <_malloc_r+0x4c>
 80077e2:	4613      	mov	r3, r2
 80077e4:	e7cc      	b.n	8007780 <_malloc_r+0x80>
 80077e6:	230c      	movs	r3, #12
 80077e8:	603b      	str	r3, [r7, #0]
 80077ea:	4638      	mov	r0, r7
 80077ec:	f000 f80e 	bl	800780c <__malloc_unlock>
 80077f0:	e797      	b.n	8007722 <_malloc_r+0x22>
 80077f2:	6025      	str	r5, [r4, #0]
 80077f4:	e7dc      	b.n	80077b0 <_malloc_r+0xb0>
 80077f6:	605b      	str	r3, [r3, #4]
 80077f8:	deff      	udf	#255	; 0xff
 80077fa:	bf00      	nop
 80077fc:	20005304 	.word	0x20005304

08007800 <__malloc_lock>:
 8007800:	4801      	ldr	r0, [pc, #4]	; (8007808 <__malloc_lock+0x8>)
 8007802:	f7ff bf01 	b.w	8007608 <__retarget_lock_acquire_recursive>
 8007806:	bf00      	nop
 8007808:	20005300 	.word	0x20005300

0800780c <__malloc_unlock>:
 800780c:	4801      	ldr	r0, [pc, #4]	; (8007814 <__malloc_unlock+0x8>)
 800780e:	f7ff befc 	b.w	800760a <__retarget_lock_release_recursive>
 8007812:	bf00      	nop
 8007814:	20005300 	.word	0x20005300

08007818 <__sfputc_r>:
 8007818:	6893      	ldr	r3, [r2, #8]
 800781a:	3b01      	subs	r3, #1
 800781c:	2b00      	cmp	r3, #0
 800781e:	b410      	push	{r4}
 8007820:	6093      	str	r3, [r2, #8]
 8007822:	da08      	bge.n	8007836 <__sfputc_r+0x1e>
 8007824:	6994      	ldr	r4, [r2, #24]
 8007826:	42a3      	cmp	r3, r4
 8007828:	db01      	blt.n	800782e <__sfputc_r+0x16>
 800782a:	290a      	cmp	r1, #10
 800782c:	d103      	bne.n	8007836 <__sfputc_r+0x1e>
 800782e:	f85d 4b04 	ldr.w	r4, [sp], #4
 8007832:	f000 bb73 	b.w	8007f1c <__swbuf_r>
 8007836:	6813      	ldr	r3, [r2, #0]
 8007838:	1c58      	adds	r0, r3, #1
 800783a:	6010      	str	r0, [r2, #0]
 800783c:	7019      	strb	r1, [r3, #0]
 800783e:	4608      	mov	r0, r1
 8007840:	f85d 4b04 	ldr.w	r4, [sp], #4
 8007844:	4770      	bx	lr

08007846 <__sfputs_r>:
 8007846:	b5f8      	push	{r3, r4, r5, r6, r7, lr}
 8007848:	4606      	mov	r6, r0
 800784a:	460f      	mov	r7, r1
 800784c:	4614      	mov	r4, r2
 800784e:	18d5      	adds	r5, r2, r3
 8007850:	42ac      	cmp	r4, r5
 8007852:	d101      	bne.n	8007858 <__sfputs_r+0x12>
 8007854:	2000      	movs	r0, #0
 8007856:	e007      	b.n	8007868 <__sfputs_r+0x22>
 8007858:	f814 1b01 	ldrb.w	r1, [r4], #1
 800785c:	463a      	mov	r2, r7
 800785e:	4630      	mov	r0, r6
 8007860:	f7ff ffda 	bl	8007818 <__sfputc_r>
 8007864:	1c43      	adds	r3, r0, #1
 8007866:	d1f3      	bne.n	8007850 <__sfputs_r+0xa>
 8007868:	bdf8      	pop	{r3, r4, r5, r6, r7, pc}
	...

0800786c <_vfiprintf_r>:
 800786c:	e92d 4ff0 	stmdb	sp!, {r4, r5, r6, r7, r8, r9, sl, fp, lr}
 8007870:	460d      	mov	r5, r1
 8007872:	b09d      	sub	sp, #116	; 0x74
 8007874:	4614      	mov	r4, r2
 8007876:	4698      	mov	r8, r3
 8007878:	4606      	mov	r6, r0
 800787a:	b118      	cbz	r0, 8007884 <_vfiprintf_r+0x18>
 800787c:	6a03      	ldr	r3, [r0, #32]
 800787e:	b90b      	cbnz	r3, 8007884 <_vfiprintf_r+0x18>
 8007880:	f7ff fd5a 	bl	8007338 <__sinit>
 8007884:	6e6b      	ldr	r3, [r5, #100]	; 0x64
 8007886:	07d9      	lsls	r1, r3, #31
 8007888:	d405      	bmi.n	8007896 <_vfiprintf_r+0x2a>
 800788a:	89ab      	ldrh	r3, [r5, #12]
 800788c:	059a      	lsls	r2, r3, #22
 800788e:	d402      	bmi.n	8007896 <_vfiprintf_r+0x2a>
 8007890:	6da8      	ldr	r0, [r5, #88]	; 0x58
 8007892:	f7ff feb9 	bl	8007608 <__retarget_lock_acquire_recursive>
 8007896:	89ab      	ldrh	r3, [r5, #12]
 8007898:	071b      	lsls	r3, r3, #28
 800789a:	d501      	bpl.n	80078a0 <_vfiprintf_r+0x34>
 800789c:	692b      	ldr	r3, [r5, #16]
 800789e:	b99b      	cbnz	r3, 80078c8 <_vfiprintf_r+0x5c>
 80078a0:	4629      	mov	r1, r5
 80078a2:	4630      	mov	r0, r6
 80078a4:	f000 fb78 	bl	8007f98 <__swsetup_r>
 80078a8:	b170      	cbz	r0, 80078c8 <_vfiprintf_r+0x5c>
 80078aa:	6e6b      	ldr	r3, [r5, #100]	; 0x64
 80078ac:	07dc      	lsls	r4, r3, #31
 80078ae:	d504      	bpl.n	80078ba <_vfiprintf_r+0x4e>
 80078b0:	f04f 30ff 	mov.w	r0, #4294967295
 80078b4:	b01d      	add	sp, #116	; 0x74
 80078b6:	e8bd 8ff0 	ldmia.w	sp!, {r4, r5, r6, r7, r8, r9, sl, fp, pc}
 80078ba:	89ab      	ldrh	r3, [r5, #12]
 80078bc:	0598      	lsls	r0, r3, #22
 80078be:	d4f7      	bmi.n	80078b0 <_vfiprintf_r+0x44>
 80078c0:	6da8      	ldr	r0, [r5, #88]	; 0x58
 80078c2:	f7ff fea2 	bl	800760a <__retarget_lock_release_recursive>
 80078c6:	e7f3      	b.n	80078b0 <_vfiprintf_r+0x44>
 80078c8:	2300      	movs	r3, #0
 80078ca:	9309      	str	r3, [sp, #36]	; 0x24
 80078cc:	2320      	movs	r3, #32
 80078ce:	f88d 3029 	strb.w	r3, [sp, #41]	; 0x29
 80078d2:	f8cd 800c 	str.w	r8, [sp, #12]
 80078d6:	2330      	movs	r3, #48	; 0x30
 80078d8:	f8df 81b0 	ldr.w	r8, [pc, #432]	; 8007a8c <_vfiprintf_r+0x220>
 80078dc:	f88d 302a 	strb.w	r3, [sp, #42]	; 0x2a
 80078e0:	f04f 0901 	mov.w	r9, #1
 80078e4:	4623      	mov	r3, r4
 80078e6:	469a      	mov	sl, r3
 80078e8:	f813 2b01 	ldrb.w	r2, [r3], #1
 80078ec:	b10a      	cbz	r2, 80078f2 <_vfiprintf_r+0x86>
 80078ee:	2a25      	cmp	r2, #37	; 0x25
 80078f0:	d1f9      	bne.n	80078e6 <_vfiprintf_r+0x7a>
 80078f2:	ebba 0b04 	subs.w	fp, sl, r4
 80078f6:	d00b      	beq.n	8007910 <_vfiprintf_r+0xa4>
 80078f8:	465b      	mov	r3, fp
 80078fa:	4622      	mov	r2, r4
 80078fc:	4629      	mov	r1, r5
 80078fe:	4630      	mov	r0, r6
 8007900:	f7ff ffa1 	bl	8007846 <__sfputs_r>
 8007904:	3001      	adds	r0, #1
 8007906:	f000 80a9 	beq.w	8007a5c <_vfiprintf_r+0x1f0>
 800790a:	9a09      	ldr	r2, [sp, #36]	; 0x24
 800790c:	445a      	add	r2, fp
 800790e:	9209      	str	r2, [sp, #36]	; 0x24
 8007910:	f89a 3000 	ldrb.w	r3, [sl]
 8007914:	2b00      	cmp	r3, #0
 8007916:	f000 80a1 	beq.w	8007a5c <_vfiprintf_r+0x1f0>
 800791a:	2300      	movs	r3, #0
 800791c:	f04f 32ff 	mov.w	r2, #4294967295
 8007920:	e9cd 2305 	strd	r2, r3, [sp, #20]
 8007924:	f10a 0a01 	add.w	sl, sl, #1
 8007928:	9304      	str	r3, [sp, #16]
 800792a:	9307      	str	r3, [sp, #28]
 800792c:	f88d 3053 	strb.w	r3, [sp, #83]	; 0x53
 8007930:	931a      	str	r3, [sp, #104]	; 0x68
 8007932:	4654      	mov	r4, sl
 8007934:	2205      	movs	r2, #5
 8007936:	f814 1b01 	ldrb.w	r1, [r4], #1
 800793a:	4854      	ldr	r0, [pc, #336]	; (8007a8c <_vfiprintf_r+0x220>)
 800793c:	f7f8 fc80 	bl	8000240 <memchr>
 8007940:	9a04      	ldr	r2, [sp, #16]
 8007942:	b9d8      	cbnz	r0, 800797c <_vfiprintf_r+0x110>
 8007944:	06d1      	lsls	r1, r2, #27
 8007946:	bf44      	itt	mi
 8007948:	2320      	movmi	r3, #32
 800794a:	f88d 3053 	strbmi.w	r3, [sp, #83]	; 0x53
 800794e:	0713      	lsls	r3, r2, #28
 8007950:	bf44      	itt	mi
 8007952:	232b      	movmi	r3, #43	; 0x2b
 8007954:	f88d 3053 	strbmi.w	r3, [sp, #83]	; 0x53
 8007958:	f89a 3000 	ldrb.w	r3, [sl]
 800795c:	2b2a      	cmp	r3, #42	; 0x2a
 800795e:	d015      	beq.n	800798c <_vfiprintf_r+0x120>
 8007960:	9a07      	ldr	r2, [sp, #28]
 8007962:	4654      	mov	r4, sl
 8007964:	2000      	movs	r0, #0
 8007966:	f04f 0c0a 	mov.w	ip, #10
 800796a:	4621      	mov	r1, r4
 800796c:	f811 3b01 	ldrb.w	r3, [r1], #1
 8007970:	3b30      	subs	r3, #48	; 0x30
 8007972:	2b09      	cmp	r3, #9
 8007974:	d94d      	bls.n	8007a12 <_vfiprintf_r+0x1a6>
 8007976:	b1b0      	cbz	r0, 80079a6 <_vfiprintf_r+0x13a>
 8007978:	9207      	str	r2, [sp, #28]
 800797a:	e014      	b.n	80079a6 <_vfiprintf_r+0x13a>
 800797c:	eba0 0308 	sub.w	r3, r0, r8
 8007980:	fa09 f303 	lsl.w	r3, r9, r3
 8007984:	4313      	orrs	r3, r2
 8007986:	9304      	str	r3, [sp, #16]
 8007988:	46a2      	mov	sl, r4
 800798a:	e7d2      	b.n	8007932 <_vfiprintf_r+0xc6>
 800798c:	9b03      	ldr	r3, [sp, #12]
 800798e:	1d19      	adds	r1, r3, #4
 8007990:	681b      	ldr	r3, [r3, #0]
 8007992:	9103      	str	r1, [sp, #12]
 8007994:	2b00      	cmp	r3, #0
 8007996:	bfbb      	ittet	lt
 8007998:	425b      	neglt	r3, r3
 800799a:	f042 0202 	orrlt.w	r2, r2, #2
 800799e:	9307      	strge	r3, [sp, #28]
 80079a0:	9307      	strlt	r3, [sp, #28]
 80079a2:	bfb8      	it	lt
 80079a4:	9204      	strlt	r2, [sp, #16]
 80079a6:	7823      	ldrb	r3, [r4, #0]
 80079a8:	2b2e      	cmp	r3, #46	; 0x2e
 80079aa:	d10c      	bne.n	80079c6 <_vfiprintf_r+0x15a>
 80079ac:	7863      	ldrb	r3, [r4, #1]
 80079ae:	2b2a      	cmp	r3, #42	; 0x2a
 80079b0:	d134      	bne.n	8007a1c <_vfiprintf_r+0x1b0>
 80079b2:	9b03      	ldr	r3, [sp, #12]
 80079b4:	1d1a      	adds	r2, r3, #4
 80079b6:	681b      	ldr	r3, [r3, #0]
 80079b8:	9203      	str	r2, [sp, #12]
 80079ba:	2b00      	cmp	r3, #0
 80079bc:	bfb8      	it	lt
 80079be:	f04f 33ff 	movlt.w	r3, #4294967295
 80079c2:	3402      	adds	r4, #2
 80079c4:	9305      	str	r3, [sp, #20]
 80079c6:	f8df a0d4 	ldr.w	sl, [pc, #212]	; 8007a9c <_vfiprintf_r+0x230>
 80079ca:	7821      	ldrb	r1, [r4, #0]
 80079cc:	2203      	movs	r2, #3
 80079ce:	4650      	mov	r0, sl
 80079d0:	f7f8 fc36 	bl	8000240 <memchr>
 80079d4:	b138      	cbz	r0, 80079e6 <_vfiprintf_r+0x17a>
 80079d6:	9b04      	ldr	r3, [sp, #16]
 80079d8:	eba0 000a 	sub.w	r0, r0, sl
 80079dc:	2240      	movs	r2, #64	; 0x40
 80079de:	4082      	lsls	r2, r0
 80079e0:	4313      	orrs	r3, r2
 80079e2:	3401      	adds	r4, #1
 80079e4:	9304      	str	r3, [sp, #16]
 80079e6:	f814 1b01 	ldrb.w	r1, [r4], #1
 80079ea:	4829      	ldr	r0, [pc, #164]	; (8007a90 <_vfiprintf_r+0x224>)
 80079ec:	f88d 1028 	strb.w	r1, [sp, #40]	; 0x28
 80079f0:	2206      	movs	r2, #6
 80079f2:	f7f8 fc25 	bl	8000240 <memchr>
 80079f6:	2800      	cmp	r0, #0
 80079f8:	d03f      	beq.n	8007a7a <_vfiprintf_r+0x20e>
 80079fa:	4b26      	ldr	r3, [pc, #152]	; (8007a94 <_vfiprintf_r+0x228>)
 80079fc:	bb1b      	cbnz	r3, 8007a46 <_vfiprintf_r+0x1da>
 80079fe:	9b03      	ldr	r3, [sp, #12]
 8007a00:	3307      	adds	r3, #7
 8007a02:	f023 0307 	bic.w	r3, r3, #7
 8007a06:	3308      	adds	r3, #8
 8007a08:	9303      	str	r3, [sp, #12]
 8007a0a:	9b09      	ldr	r3, [sp, #36]	; 0x24
 8007a0c:	443b      	add	r3, r7
 8007a0e:	9309      	str	r3, [sp, #36]	; 0x24
 8007a10:	e768      	b.n	80078e4 <_vfiprintf_r+0x78>
 8007a12:	fb0c 3202 	mla	r2, ip, r2, r3
 8007a16:	460c      	mov	r4, r1
 8007a18:	2001      	movs	r0, #1
 8007a1a:	e7a6      	b.n	800796a <_vfiprintf_r+0xfe>
 8007a1c:	2300      	movs	r3, #0
 8007a1e:	3401      	adds	r4, #1
 8007a20:	9305      	str	r3, [sp, #20]
 8007a22:	4619      	mov	r1, r3
 8007a24:	f04f 0c0a 	mov.w	ip, #10
 8007a28:	4620      	mov	r0, r4
 8007a2a:	f810 2b01 	ldrb.w	r2, [r0], #1
 8007a2e:	3a30      	subs	r2, #48	; 0x30
 8007a30:	2a09      	cmp	r2, #9
 8007a32:	d903      	bls.n	8007a3c <_vfiprintf_r+0x1d0>
 8007a34:	2b00      	cmp	r3, #0
 8007a36:	d0c6      	beq.n	80079c6 <_vfiprintf_r+0x15a>
 8007a38:	9105      	str	r1, [sp, #20]
 8007a3a:	e7c4      	b.n	80079c6 <_vfiprintf_r+0x15a>
 8007a3c:	fb0c 2101 	mla	r1, ip, r1, r2
 8007a40:	4604      	mov	r4, r0
 8007a42:	2301      	movs	r3, #1
 8007a44:	e7f0      	b.n	8007a28 <_vfiprintf_r+0x1bc>
 8007a46:	ab03      	add	r3, sp, #12
 8007a48:	9300      	str	r3, [sp, #0]
 8007a4a:	462a      	mov	r2, r5
 8007a4c:	4b12      	ldr	r3, [pc, #72]	; (8007a98 <_vfiprintf_r+0x22c>)
 8007a4e:	a904      	add	r1, sp, #16
 8007a50:	4630      	mov	r0, r6
 8007a52:	f3af 8000 	nop.w
 8007a56:	4607      	mov	r7, r0
 8007a58:	1c78      	adds	r0, r7, #1
 8007a5a:	d1d6      	bne.n	8007a0a <_vfiprintf_r+0x19e>
 8007a5c:	6e6b      	ldr	r3, [r5, #100]	; 0x64
 8007a5e:	07d9      	lsls	r1, r3, #31
 8007a60:	d405      	bmi.n	8007a6e <_vfiprintf_r+0x202>
 8007a62:	89ab      	ldrh	r3, [r5, #12]
 8007a64:	059a      	lsls	r2, r3, #22
 8007a66:	d402      	bmi.n	8007a6e <_vfiprintf_r+0x202>
 8007a68:	6da8      	ldr	r0, [r5, #88]	; 0x58
 8007a6a:	f7ff fdce 	bl	800760a <__retarget_lock_release_recursive>
 8007a6e:	89ab      	ldrh	r3, [r5, #12]
 8007a70:	065b      	lsls	r3, r3, #25
 8007a72:	f53f af1d 	bmi.w	80078b0 <_vfiprintf_r+0x44>
 8007a76:	9809      	ldr	r0, [sp, #36]	; 0x24
 8007a78:	e71c      	b.n	80078b4 <_vfiprintf_r+0x48>
 8007a7a:	ab03      	add	r3, sp, #12
 8007a7c:	9300      	str	r3, [sp, #0]
 8007a7e:	462a      	mov	r2, r5
 8007a80:	4b05      	ldr	r3, [pc, #20]	; (8007a98 <_vfiprintf_r+0x22c>)
 8007a82:	a904      	add	r1, sp, #16
 8007a84:	4630      	mov	r0, r6
 8007a86:	f000 f879 	bl	8007b7c <_printf_i>
 8007a8a:	e7e4      	b.n	8007a56 <_vfiprintf_r+0x1ea>
 8007a8c:	08009b5a 	.word	0x08009b5a
 8007a90:	08009b64 	.word	0x08009b64
 8007a94:	00000000 	.word	0x00000000
 8007a98:	08007847 	.word	0x08007847
 8007a9c:	08009b60 	.word	0x08009b60

08007aa0 <_printf_common>:
 8007aa0:	e92d 47f0 	stmdb	sp!, {r4, r5, r6, r7, r8, r9, sl, lr}
 8007aa4:	4616      	mov	r6, r2
 8007aa6:	4699      	mov	r9, r3
 8007aa8:	688a      	ldr	r2, [r1, #8]
 8007aaa:	690b      	ldr	r3, [r1, #16]
 8007aac:	f8dd 8020 	ldr.w	r8, [sp, #32]
 8007ab0:	4293      	cmp	r3, r2
 8007ab2:	bfb8      	it	lt
 8007ab4:	4613      	movlt	r3, r2
 8007ab6:	6033      	str	r3, [r6, #0]
 8007ab8:	f891 2043 	ldrb.w	r2, [r1, #67]	; 0x43
 8007abc:	4607      	mov	r7, r0
 8007abe:	460c      	mov	r4, r1
 8007ac0:	b10a      	cbz	r2, 8007ac6 <_printf_common+0x26>
 8007ac2:	3301      	adds	r3, #1
 8007ac4:	6033      	str	r3, [r6, #0]
 8007ac6:	6823      	ldr	r3, [r4, #0]
 8007ac8:	0699      	lsls	r1, r3, #26
 8007aca:	bf42      	ittt	mi
 8007acc:	6833      	ldrmi	r3, [r6, #0]
 8007ace:	3302      	addmi	r3, #2
 8007ad0:	6033      	strmi	r3, [r6, #0]
 8007ad2:	6825      	ldr	r5, [r4, #0]
 8007ad4:	f015 0506 	ands.w	r5, r5, #6
 8007ad8:	d106      	bne.n	8007ae8 <_printf_common+0x48>
 8007ada:	f104 0a19 	add.w	sl, r4, #25
 8007ade:	68e3      	ldr	r3, [r4, #12]
 8007ae0:	6832      	ldr	r2, [r6, #0]
 8007ae2:	1a9b      	subs	r3, r3, r2
 8007ae4:	42ab      	cmp	r3, r5
 8007ae6:	dc26      	bgt.n	8007b36 <_printf_common+0x96>
 8007ae8:	f894 2043 	ldrb.w	r2, [r4, #67]	; 0x43
 8007aec:	1e13      	subs	r3, r2, #0
 8007aee:	6822      	ldr	r2, [r4, #0]
 8007af0:	bf18      	it	ne
 8007af2:	2301      	movne	r3, #1
 8007af4:	0692      	lsls	r2, r2, #26
 8007af6:	d42b      	bmi.n	8007b50 <_printf_common+0xb0>
 8007af8:	f104 0243 	add.w	r2, r4, #67	; 0x43
 8007afc:	4649      	mov	r1, r9
 8007afe:	4638      	mov	r0, r7
 8007b00:	47c0      	blx	r8
 8007b02:	3001      	adds	r0, #1
 8007b04:	d01e      	beq.n	8007b44 <_printf_common+0xa4>
 8007b06:	6823      	ldr	r3, [r4, #0]
 8007b08:	6922      	ldr	r2, [r4, #16]
 8007b0a:	f003 0306 	and.w	r3, r3, #6
 8007b0e:	2b04      	cmp	r3, #4
 8007b10:	bf02      	ittt	eq
 8007b12:	68e5      	ldreq	r5, [r4, #12]
 8007b14:	6833      	ldreq	r3, [r6, #0]
 8007b16:	1aed      	subeq	r5, r5, r3
 8007b18:	68a3      	ldr	r3, [r4, #8]
 8007b1a:	bf0c      	ite	eq
 8007b1c:	ea25 75e5 	biceq.w	r5, r5, r5, asr #31
 8007b20:	2500      	movne	r5, #0
 8007b22:	4293      	cmp	r3, r2
 8007b24:	bfc4      	itt	gt
 8007b26:	1a9b      	subgt	r3, r3, r2
 8007b28:	18ed      	addgt	r5, r5, r3
 8007b2a:	2600      	movs	r6, #0
 8007b2c:	341a      	adds	r4, #26
 8007b2e:	42b5      	cmp	r5, r6
 8007b30:	d11a      	bne.n	8007b68 <_printf_common+0xc8>
 8007b32:	2000      	movs	r0, #0
 8007b34:	e008      	b.n	8007b48 <_printf_common+0xa8>
 8007b36:	2301      	movs	r3, #1
 8007b38:	4652      	mov	r2, sl
 8007b3a:	4649      	mov	r1, r9
 8007b3c:	4638      	mov	r0, r7
 8007b3e:	47c0      	blx	r8
 8007b40:	3001      	adds	r0, #1
 8007b42:	d103      	bne.n	8007b4c <_printf_common+0xac>
 8007b44:	f04f 30ff 	mov.w	r0, #4294967295
 8007b48:	e8bd 87f0 	ldmia.w	sp!, {r4, r5, r6, r7, r8, r9, sl, pc}
 8007b4c:	3501      	adds	r5, #1
 8007b4e:	e7c6      	b.n	8007ade <_printf_common+0x3e>
 8007b50:	18e1      	adds	r1, r4, r3
 8007b52:	1c5a      	adds	r2, r3, #1
 8007b54:	2030      	movs	r0, #48	; 0x30
 8007b56:	f881 0043 	strb.w	r0, [r1, #67]	; 0x43
 8007b5a:	4422      	add	r2, r4
 8007b5c:	f894 1045 	ldrb.w	r1, [r4, #69]	; 0x45
 8007b60:	f882 1043 	strb.w	r1, [r2, #67]	; 0x43
 8007b64:	3302      	adds	r3, #2
 8007b66:	e7c7      	b.n	8007af8 <_printf_common+0x58>
 8007b68:	2301      	movs	r3, #1
 8007b6a:	4622      	mov	r2, r4
 8007b6c:	4649      	mov	r1, r9
 8007b6e:	4638      	mov	r0, r7
 8007b70:	47c0      	blx	r8
 8007b72:	3001      	adds	r0, #1
 8007b74:	d0e6      	beq.n	8007b44 <_printf_common+0xa4>
 8007b76:	3601      	adds	r6, #1
 8007b78:	e7d9      	b.n	8007b2e <_printf_common+0x8e>
	...

08007b7c <_printf_i>:
 8007b7c:	e92d 47ff 	stmdb	sp!, {r0, r1, r2, r3, r4, r5, r6, r7, r8, r9, sl, lr}
 8007b80:	7e0f      	ldrb	r7, [r1, #24]
 8007b82:	9d0c      	ldr	r5, [sp, #48]	; 0x30
 8007b84:	2f78      	cmp	r7, #120	; 0x78
 8007b86:	4691      	mov	r9, r2
 8007b88:	4680      	mov	r8, r0
 8007b8a:	460c      	mov	r4, r1
 8007b8c:	469a      	mov	sl, r3
 8007b8e:	f101 0243 	add.w	r2, r1, #67	; 0x43
 8007b92:	d807      	bhi.n	8007ba4 <_printf_i+0x28>
 8007b94:	2f62      	cmp	r7, #98	; 0x62
 8007b96:	d80a      	bhi.n	8007bae <_printf_i+0x32>
 8007b98:	2f00      	cmp	r7, #0
 8007b9a:	f000 80d4 	beq.w	8007d46 <_printf_i+0x1ca>
 8007b9e:	2f58      	cmp	r7, #88	; 0x58
 8007ba0:	f000 80c0 	beq.w	8007d24 <_printf_i+0x1a8>
 8007ba4:	f104 0542 	add.w	r5, r4, #66	; 0x42
 8007ba8:	f884 7042 	strb.w	r7, [r4, #66]	; 0x42
 8007bac:	e03a      	b.n	8007c24 <_printf_i+0xa8>
 8007bae:	f1a7 0363 	sub.w	r3, r7, #99	; 0x63
 8007bb2:	2b15      	cmp	r3, #21
 8007bb4:	d8f6      	bhi.n	8007ba4 <_printf_i+0x28>
 8007bb6:	a101      	add	r1, pc, #4	; (adr r1, 8007bbc <_printf_i+0x40>)
 8007bb8:	f851 f023 	ldr.w	pc, [r1, r3, lsl #2]
 8007bbc:	08007c15 	.word	0x08007c15
 8007bc0:	08007c29 	.word	0x08007c29
 8007bc4:	08007ba5 	.word	0x08007ba5
 8007bc8:	08007ba5 	.word	0x08007ba5
 8007bcc:	08007ba5 	.word	0x08007ba5
 8007bd0:	08007ba5 	.word	0x08007ba5
 8007bd4:	08007c29 	.word	0x08007c29
 8007bd8:	08007ba5 	.word	0x08007ba5
 8007bdc:	08007ba5 	.word	0x08007ba5
 8007be0:	08007ba5 	.word	0x08007ba5
 8007be4:	08007ba5 	.word	0x08007ba5
 8007be8:	08007d2d 	.word	0x08007d2d
 8007bec:	08007c55 	.word	0x08007c55
 8007bf0:	08007ce7 	.word	0x08007ce7
 8007bf4:	08007ba5 	.word	0x08007ba5
 8007bf8:	08007ba5 	.word	0x08007ba5
 8007bfc:	08007d4f 	.word	0x08007d4f
 8007c00:	08007ba5 	.word	0x08007ba5
 8007c04:	08007c55 	.word	0x08007c55
 8007c08:	08007ba5 	.word	0x08007ba5
 8007c0c:	08007ba5 	.word	0x08007ba5
 8007c10:	08007cef 	.word	0x08007cef
 8007c14:	682b      	ldr	r3, [r5, #0]
 8007c16:	1d1a      	adds	r2, r3, #4
 8007c18:	681b      	ldr	r3, [r3, #0]
 8007c1a:	602a      	str	r2, [r5, #0]
 8007c1c:	f104 0542 	add.w	r5, r4, #66	; 0x42
 8007c20:	f884 3042 	strb.w	r3, [r4, #66]	; 0x42
 8007c24:	2301      	movs	r3, #1
 8007c26:	e09f      	b.n	8007d68 <_printf_i+0x1ec>
 8007c28:	6820      	ldr	r0, [r4, #0]
 8007c2a:	682b      	ldr	r3, [r5, #0]
 8007c2c:	0607      	lsls	r7, r0, #24
 8007c2e:	f103 0104 	add.w	r1, r3, #4
 8007c32:	6029      	str	r1, [r5, #0]
 8007c34:	d501      	bpl.n	8007c3a <_printf_i+0xbe>
 8007c36:	681e      	ldr	r6, [r3, #0]
 8007c38:	e003      	b.n	8007c42 <_printf_i+0xc6>
 8007c3a:	0646      	lsls	r6, r0, #25
 8007c3c:	d5fb      	bpl.n	8007c36 <_printf_i+0xba>
 8007c3e:	f9b3 6000 	ldrsh.w	r6, [r3]
 8007c42:	2e00      	cmp	r6, #0
 8007c44:	da03      	bge.n	8007c4e <_printf_i+0xd2>
 8007c46:	232d      	movs	r3, #45	; 0x2d
 8007c48:	4276      	negs	r6, r6
 8007c4a:	f884 3043 	strb.w	r3, [r4, #67]	; 0x43
 8007c4e:	485a      	ldr	r0, [pc, #360]	; (8007db8 <_printf_i+0x23c>)
 8007c50:	230a      	movs	r3, #10
 8007c52:	e012      	b.n	8007c7a <_printf_i+0xfe>
 8007c54:	682b      	ldr	r3, [r5, #0]
 8007c56:	6820      	ldr	r0, [r4, #0]
 8007c58:	1d19      	adds	r1, r3, #4
 8007c5a:	6029      	str	r1, [r5, #0]
 8007c5c:	0605      	lsls	r5, r0, #24
 8007c5e:	d501      	bpl.n	8007c64 <_printf_i+0xe8>
 8007c60:	681e      	ldr	r6, [r3, #0]
 8007c62:	e002      	b.n	8007c6a <_printf_i+0xee>
 8007c64:	0641      	lsls	r1, r0, #25
 8007c66:	d5fb      	bpl.n	8007c60 <_printf_i+0xe4>
 8007c68:	881e      	ldrh	r6, [r3, #0]
 8007c6a:	4853      	ldr	r0, [pc, #332]	; (8007db8 <_printf_i+0x23c>)
 8007c6c:	2f6f      	cmp	r7, #111	; 0x6f
 8007c6e:	bf0c      	ite	eq
 8007c70:	2308      	moveq	r3, #8
 8007c72:	230a      	movne	r3, #10
 8007c74:	2100      	movs	r1, #0
 8007c76:	f884 1043 	strb.w	r1, [r4, #67]	; 0x43
 8007c7a:	6865      	ldr	r5, [r4, #4]
 8007c7c:	60a5      	str	r5, [r4, #8]
 8007c7e:	2d00      	cmp	r5, #0
 8007c80:	bfa2      	ittt	ge
 8007c82:	6821      	ldrge	r1, [r4, #0]
 8007c84:	f021 0104 	bicge.w	r1, r1, #4
 8007c88:	6021      	strge	r1, [r4, #0]
 8007c8a:	b90e      	cbnz	r6, 8007c90 <_printf_i+0x114>
 8007c8c:	2d00      	cmp	r5, #0
 8007c8e:	d04b      	beq.n	8007d28 <_printf_i+0x1ac>
 8007c90:	4615      	mov	r5, r2
 8007c92:	fbb6 f1f3 	udiv	r1, r6, r3
 8007c96:	fb03 6711 	mls	r7, r3, r1, r6
 8007c9a:	5dc7      	ldrb	r7, [r0, r7]
 8007c9c:	f805 7d01 	strb.w	r7, [r5, #-1]!
 8007ca0:	4637      	mov	r7, r6
 8007ca2:	42bb      	cmp	r3, r7
 8007ca4:	460e      	mov	r6, r1
 8007ca6:	d9f4      	bls.n	8007c92 <_printf_i+0x116>
 8007ca8:	2b08      	cmp	r3, #8
 8007caa:	d10b      	bne.n	8007cc4 <_printf_i+0x148>
 8007cac:	6823      	ldr	r3, [r4, #0]
 8007cae:	07de      	lsls	r6, r3, #31
 8007cb0:	d508      	bpl.n	8007cc4 <_printf_i+0x148>
 8007cb2:	6923      	ldr	r3, [r4, #16]
 8007cb4:	6861      	ldr	r1, [r4, #4]
 8007cb6:	4299      	cmp	r1, r3
 8007cb8:	bfde      	ittt	le
 8007cba:	2330      	movle	r3, #48	; 0x30
 8007cbc:	f805 3c01 	strble.w	r3, [r5, #-1]
 8007cc0:	f105 35ff 	addle.w	r5, r5, #4294967295
 8007cc4:	1b52      	subs	r2, r2, r5
 8007cc6:	6122      	str	r2, [r4, #16]
 8007cc8:	f8cd a000 	str.w	sl, [sp]
 8007ccc:	464b      	mov	r3, r9
 8007cce:	aa03      	add	r2, sp, #12
 8007cd0:	4621      	mov	r1, r4
 8007cd2:	4640      	mov	r0, r8
 8007cd4:	f7ff fee4 	bl	8007aa0 <_printf_common>
 8007cd8:	3001      	adds	r0, #1
 8007cda:	d14a      	bne.n	8007d72 <_printf_i+0x1f6>
 8007cdc:	f04f 30ff 	mov.w	r0, #4294967295
 8007ce0:	b004      	add	sp, #16
 8007ce2:	e8bd 87f0 	ldmia.w	sp!, {r4, r5, r6, r7, r8, r9, sl, pc}
 8007ce6:	6823      	ldr	r3, [r4, #0]
 8007ce8:	f043 0320 	orr.w	r3, r3, #32
 8007cec:	6023      	str	r3, [r4, #0]
 8007cee:	4833      	ldr	r0, [pc, #204]	; (8007dbc <_printf_i+0x240>)
 8007cf0:	2778      	movs	r7, #120	; 0x78
 8007cf2:	f884 7045 	strb.w	r7, [r4, #69]	; 0x45
 8007cf6:	6823      	ldr	r3, [r4, #0]
 8007cf8:	6829      	ldr	r1, [r5, #0]
 8007cfa:	061f      	lsls	r7, r3, #24
 8007cfc:	f851 6b04 	ldr.w	r6, [r1], #4
 8007d00:	d402      	bmi.n	8007d08 <_printf_i+0x18c>
 8007d02:	065f      	lsls	r7, r3, #25
 8007d04:	bf48      	it	mi
 8007d06:	b2b6      	uxthmi	r6, r6
 8007d08:	07df      	lsls	r7, r3, #31
 8007d0a:	bf48      	it	mi
 8007d0c:	f043 0320 	orrmi.w	r3, r3, #32
 8007d10:	6029      	str	r1, [r5, #0]
 8007d12:	bf48      	it	mi
 8007d14:	6023      	strmi	r3, [r4, #0]
 8007d16:	b91e      	cbnz	r6, 8007d20 <_printf_i+0x1a4>
 8007d18:	6823      	ldr	r3, [r4, #0]
 8007d1a:	f023 0320 	bic.w	r3, r3, #32
 8007d1e:	6023      	str	r3, [r4, #0]
 8007d20:	2310      	movs	r3, #16
 8007d22:	e7a7      	b.n	8007c74 <_printf_i+0xf8>
 8007d24:	4824      	ldr	r0, [pc, #144]	; (8007db8 <_printf_i+0x23c>)
 8007d26:	e7e4      	b.n	8007cf2 <_printf_i+0x176>
 8007d28:	4615      	mov	r5, r2
 8007d2a:	e7bd      	b.n	8007ca8 <_printf_i+0x12c>
 8007d2c:	682b      	ldr	r3, [r5, #0]
 8007d2e:	6826      	ldr	r6, [r4, #0]
 8007d30:	6961      	ldr	r1, [r4, #20]
 8007d32:	1d18      	adds	r0, r3, #4
 8007d34:	6028      	str	r0, [r5, #0]
 8007d36:	0635      	lsls	r5, r6, #24
 8007d38:	681b      	ldr	r3, [r3, #0]
 8007d3a:	d501      	bpl.n	8007d40 <_printf_i+0x1c4>
 8007d3c:	6019      	str	r1, [r3, #0]
 8007d3e:	e002      	b.n	8007d46 <_printf_i+0x1ca>
 8007d40:	0670      	lsls	r0, r6, #25
 8007d42:	d5fb      	bpl.n	8007d3c <_printf_i+0x1c0>
 8007d44:	8019      	strh	r1, [r3, #0]
 8007d46:	2300      	movs	r3, #0
 8007d48:	6123      	str	r3, [r4, #16]
 8007d4a:	4615      	mov	r5, r2
 8007d4c:	e7bc      	b.n	8007cc8 <_printf_i+0x14c>
 8007d4e:	682b      	ldr	r3, [r5, #0]
 8007d50:	1d1a      	adds	r2, r3, #4
 8007d52:	602a      	str	r2, [r5, #0]
 8007d54:	681d      	ldr	r5, [r3, #0]
 8007d56:	6862      	ldr	r2, [r4, #4]
 8007d58:	2100      	movs	r1, #0
 8007d5a:	4628      	mov	r0, r5
 8007d5c:	f7f8 fa70 	bl	8000240 <memchr>
 8007d60:	b108      	cbz	r0, 8007d66 <_printf_i+0x1ea>
 8007d62:	1b40      	subs	r0, r0, r5
 8007d64:	6060      	str	r0, [r4, #4]
 8007d66:	6863      	ldr	r3, [r4, #4]
 8007d68:	6123      	str	r3, [r4, #16]
 8007d6a:	2300      	movs	r3, #0
 8007d6c:	f884 3043 	strb.w	r3, [r4, #67]	; 0x43
 8007d70:	e7aa      	b.n	8007cc8 <_printf_i+0x14c>
 8007d72:	6923      	ldr	r3, [r4, #16]
 8007d74:	462a      	mov	r2, r5
 8007d76:	4649      	mov	r1, r9
 8007d78:	4640      	mov	r0, r8
 8007d7a:	47d0      	blx	sl
 8007d7c:	3001      	adds	r0, #1
 8007d7e:	d0ad      	beq.n	8007cdc <_printf_i+0x160>
 8007d80:	6823      	ldr	r3, [r4, #0]
 8007d82:	079b      	lsls	r3, r3, #30
 8007d84:	d413      	bmi.n	8007dae <_printf_i+0x232>
 8007d86:	68e0      	ldr	r0, [r4, #12]
 8007d88:	9b03      	ldr	r3, [sp, #12]
 8007d8a:	4298      	cmp	r0, r3
 8007d8c:	bfb8      	it	lt
 8007d8e:	4618      	movlt	r0, r3
 8007d90:	e7a6      	b.n	8007ce0 <_printf_i+0x164>
 8007d92:	2301      	movs	r3, #1
 8007d94:	4632      	mov	r2, r6
 8007d96:	4649      	mov	r1, r9
 8007d98:	4640      	mov	r0, r8
 8007d9a:	47d0      	blx	sl
 8007d9c:	3001      	adds	r0, #1
 8007d9e:	d09d      	beq.n	8007cdc <_printf_i+0x160>
 8007da0:	3501      	adds	r5, #1
 8007da2:	68e3      	ldr	r3, [r4, #12]
 8007da4:	9903      	ldr	r1, [sp, #12]
 8007da6:	1a5b      	subs	r3, r3, r1
 8007da8:	42ab      	cmp	r3, r5
 8007daa:	dcf2      	bgt.n	8007d92 <_printf_i+0x216>
 8007dac:	e7eb      	b.n	8007d86 <_printf_i+0x20a>
 8007dae:	2500      	movs	r5, #0
 8007db0:	f104 0619 	add.w	r6, r4, #25
 8007db4:	e7f5      	b.n	8007da2 <_printf_i+0x226>
 8007db6:	bf00      	nop
 8007db8:	08009b6b 	.word	0x08009b6b
 8007dbc:	08009b7c 	.word	0x08009b7c

08007dc0 <__sflush_r>:
 8007dc0:	898a      	ldrh	r2, [r1, #12]
 8007dc2:	e92d 41f0 	stmdb	sp!, {r4, r5, r6, r7, r8, lr}
 8007dc6:	4605      	mov	r5, r0
 8007dc8:	0710      	lsls	r0, r2, #28
 8007dca:	460c      	mov	r4, r1
 8007dcc:	d458      	bmi.n	8007e80 <__sflush_r+0xc0>
 8007dce:	684b      	ldr	r3, [r1, #4]
 8007dd0:	2b00      	cmp	r3, #0
 8007dd2:	dc05      	bgt.n	8007de0 <__sflush_r+0x20>
 8007dd4:	6c0b      	ldr	r3, [r1, #64]	; 0x40
 8007dd6:	2b00      	cmp	r3, #0
 8007dd8:	dc02      	bgt.n	8007de0 <__sflush_r+0x20>
 8007dda:	2000      	movs	r0, #0
 8007ddc:	e8bd 81f0 	ldmia.w	sp!, {r4, r5, r6, r7, r8, pc}
 8007de0:	6ae6      	ldr	r6, [r4, #44]	; 0x2c
 8007de2:	2e00      	cmp	r6, #0
 8007de4:	d0f9      	beq.n	8007dda <__sflush_r+0x1a>
 8007de6:	2300      	movs	r3, #0
 8007de8:	f412 5280 	ands.w	r2, r2, #4096	; 0x1000
 8007dec:	682f      	ldr	r7, [r5, #0]
 8007dee:	6a21      	ldr	r1, [r4, #32]
 8007df0:	602b      	str	r3, [r5, #0]
 8007df2:	d032      	beq.n	8007e5a <__sflush_r+0x9a>
 8007df4:	6d60      	ldr	r0, [r4, #84]	; 0x54
 8007df6:	89a3      	ldrh	r3, [r4, #12]
 8007df8:	075a      	lsls	r2, r3, #29
 8007dfa:	d505      	bpl.n	8007e08 <__sflush_r+0x48>
 8007dfc:	6863      	ldr	r3, [r4, #4]
 8007dfe:	1ac0      	subs	r0, r0, r3
 8007e00:	6b63      	ldr	r3, [r4, #52]	; 0x34
 8007e02:	b10b      	cbz	r3, 8007e08 <__sflush_r+0x48>
 8007e04:	6c23      	ldr	r3, [r4, #64]	; 0x40
 8007e06:	1ac0      	subs	r0, r0, r3
 8007e08:	2300      	movs	r3, #0
 8007e0a:	4602      	mov	r2, r0
 8007e0c:	6ae6      	ldr	r6, [r4, #44]	; 0x2c
 8007e0e:	6a21      	ldr	r1, [r4, #32]
 8007e10:	4628      	mov	r0, r5
 8007e12:	47b0      	blx	r6
 8007e14:	1c43      	adds	r3, r0, #1
 8007e16:	89a3      	ldrh	r3, [r4, #12]
 8007e18:	d106      	bne.n	8007e28 <__sflush_r+0x68>
 8007e1a:	6829      	ldr	r1, [r5, #0]
 8007e1c:	291d      	cmp	r1, #29
 8007e1e:	d82b      	bhi.n	8007e78 <__sflush_r+0xb8>
 8007e20:	4a29      	ldr	r2, [pc, #164]	; (8007ec8 <__sflush_r+0x108>)
 8007e22:	410a      	asrs	r2, r1
 8007e24:	07d6      	lsls	r6, r2, #31
 8007e26:	d427      	bmi.n	8007e78 <__sflush_r+0xb8>
 8007e28:	2200      	movs	r2, #0
 8007e2a:	6062      	str	r2, [r4, #4]
 8007e2c:	04d9      	lsls	r1, r3, #19
 8007e2e:	6922      	ldr	r2, [r4, #16]
 8007e30:	6022      	str	r2, [r4, #0]
 8007e32:	d504      	bpl.n	8007e3e <__sflush_r+0x7e>
 8007e34:	1c42      	adds	r2, r0, #1
 8007e36:	d101      	bne.n	8007e3c <__sflush_r+0x7c>
 8007e38:	682b      	ldr	r3, [r5, #0]
 8007e3a:	b903      	cbnz	r3, 8007e3e <__sflush_r+0x7e>
 8007e3c:	6560      	str	r0, [r4, #84]	; 0x54
 8007e3e:	6b61      	ldr	r1, [r4, #52]	; 0x34
 8007e40:	602f      	str	r7, [r5, #0]
 8007e42:	2900      	cmp	r1, #0
 8007e44:	d0c9      	beq.n	8007dda <__sflush_r+0x1a>
 8007e46:	f104 0344 	add.w	r3, r4, #68	; 0x44
 8007e4a:	4299      	cmp	r1, r3
 8007e4c:	d002      	beq.n	8007e54 <__sflush_r+0x94>
 8007e4e:	4628      	mov	r0, r5
 8007e50:	f7ff fbea 	bl	8007628 <_free_r>
 8007e54:	2000      	movs	r0, #0
 8007e56:	6360      	str	r0, [r4, #52]	; 0x34
 8007e58:	e7c0      	b.n	8007ddc <__sflush_r+0x1c>
 8007e5a:	2301      	movs	r3, #1
 8007e5c:	4628      	mov	r0, r5
 8007e5e:	47b0      	blx	r6
 8007e60:	1c41      	adds	r1, r0, #1
 8007e62:	d1c8      	bne.n	8007df6 <__sflush_r+0x36>
 8007e64:	682b      	ldr	r3, [r5, #0]
 8007e66:	2b00      	cmp	r3, #0
 8007e68:	d0c5      	beq.n	8007df6 <__sflush_r+0x36>
 8007e6a:	2b1d      	cmp	r3, #29
 8007e6c:	d001      	beq.n	8007e72 <__sflush_r+0xb2>
 8007e6e:	2b16      	cmp	r3, #22
 8007e70:	d101      	bne.n	8007e76 <__sflush_r+0xb6>
 8007e72:	602f      	str	r7, [r5, #0]
 8007e74:	e7b1      	b.n	8007dda <__sflush_r+0x1a>
 8007e76:	89a3      	ldrh	r3, [r4, #12]
 8007e78:	f043 0340 	orr.w	r3, r3, #64	; 0x40
 8007e7c:	81a3      	strh	r3, [r4, #12]
 8007e7e:	e7ad      	b.n	8007ddc <__sflush_r+0x1c>
 8007e80:	690f      	ldr	r7, [r1, #16]
 8007e82:	2f00      	cmp	r7, #0
 8007e84:	d0a9      	beq.n	8007dda <__sflush_r+0x1a>
 8007e86:	0793      	lsls	r3, r2, #30
 8007e88:	680e      	ldr	r6, [r1, #0]
 8007e8a:	bf08      	it	eq
 8007e8c:	694b      	ldreq	r3, [r1, #20]
 8007e8e:	600f      	str	r7, [r1, #0]
 8007e90:	bf18      	it	ne
 8007e92:	2300      	movne	r3, #0
 8007e94:	eba6 0807 	sub.w	r8, r6, r7
 8007e98:	608b      	str	r3, [r1, #8]
 8007e9a:	f1b8 0f00 	cmp.w	r8, #0
 8007e9e:	dd9c      	ble.n	8007dda <__sflush_r+0x1a>
 8007ea0:	6a21      	ldr	r1, [r4, #32]
 8007ea2:	6aa6      	ldr	r6, [r4, #40]	; 0x28
 8007ea4:	4643      	mov	r3, r8
 8007ea6:	463a      	mov	r2, r7
 8007ea8:	4628      	mov	r0, r5
 8007eaa:	47b0      	blx	r6
 8007eac:	2800      	cmp	r0, #0
 8007eae:	dc06      	bgt.n	8007ebe <__sflush_r+0xfe>
 8007eb0:	89a3      	ldrh	r3, [r4, #12]
 8007eb2:	f043 0340 	orr.w	r3, r3, #64	; 0x40
 8007eb6:	81a3      	strh	r3, [r4, #12]
 8007eb8:	f04f 30ff 	mov.w	r0, #4294967295
 8007ebc:	e78e      	b.n	8007ddc <__sflush_r+0x1c>
 8007ebe:	4407      	add	r7, r0
 8007ec0:	eba8 0800 	sub.w	r8, r8, r0
 8007ec4:	e7e9      	b.n	8007e9a <__sflush_r+0xda>
 8007ec6:	bf00      	nop
 8007ec8:	dfbffffe 	.word	0xdfbffffe

08007ecc <_fflush_r>:
 8007ecc:	b538      	push	{r3, r4, r5, lr}
 8007ece:	690b      	ldr	r3, [r1, #16]
 8007ed0:	4605      	mov	r5, r0
 8007ed2:	460c      	mov	r4, r1
 8007ed4:	b913      	cbnz	r3, 8007edc <_fflush_r+0x10>
 8007ed6:	2500      	movs	r5, #0
 8007ed8:	4628      	mov	r0, r5
 8007eda:	bd38      	pop	{r3, r4, r5, pc}
 8007edc:	b118      	cbz	r0, 8007ee6 <_fflush_r+0x1a>
 8007ede:	6a03      	ldr	r3, [r0, #32]
 8007ee0:	b90b      	cbnz	r3, 8007ee6 <_fflush_r+0x1a>
 8007ee2:	f7ff fa29 	bl	8007338 <__sinit>
 8007ee6:	f9b4 300c 	ldrsh.w	r3, [r4, #12]
 8007eea:	2b00      	cmp	r3, #0
 8007eec:	d0f3      	beq.n	8007ed6 <_fflush_r+0xa>
 8007eee:	6e62      	ldr	r2, [r4, #100]	; 0x64
 8007ef0:	07d0      	lsls	r0, r2, #31
 8007ef2:	d404      	bmi.n	8007efe <_fflush_r+0x32>
 8007ef4:	0599      	lsls	r1, r3, #22
 8007ef6:	d402      	bmi.n	8007efe <_fflush_r+0x32>
 8007ef8:	6da0      	ldr	r0, [r4, #88]	; 0x58
 8007efa:	f7ff fb85 	bl	8007608 <__retarget_lock_acquire_recursive>
 8007efe:	4628      	mov	r0, r5
 8007f00:	4621      	mov	r1, r4
 8007f02:	f7ff ff5d 	bl	8007dc0 <__sflush_r>
 8007f06:	6e63      	ldr	r3, [r4, #100]	; 0x64
 8007f08:	07da      	lsls	r2, r3, #31
 8007f0a:	4605      	mov	r5, r0
 8007f0c:	d4e4      	bmi.n	8007ed8 <_fflush_r+0xc>
 8007f0e:	89a3      	ldrh	r3, [r4, #12]
 8007f10:	059b      	lsls	r3, r3, #22
 8007f12:	d4e1      	bmi.n	8007ed8 <_fflush_r+0xc>
 8007f14:	6da0      	ldr	r0, [r4, #88]	; 0x58
 8007f16:	f7ff fb78 	bl	800760a <__retarget_lock_release_recursive>
 8007f1a:	e7dd      	b.n	8007ed8 <_fflush_r+0xc>

08007f1c <__swbuf_r>:
 8007f1c:	b5f8      	push	{r3, r4, r5, r6, r7, lr}
 8007f1e:	460e      	mov	r6, r1
 8007f20:	4614      	mov	r4, r2
 8007f22:	4605      	mov	r5, r0
 8007f24:	b118      	cbz	r0, 8007f2e <__swbuf_r+0x12>
 8007f26:	6a03      	ldr	r3, [r0, #32]
 8007f28:	b90b      	cbnz	r3, 8007f2e <__swbuf_r+0x12>
 8007f2a:	f7ff fa05 	bl	8007338 <__sinit>
 8007f2e:	69a3      	ldr	r3, [r4, #24]
 8007f30:	60a3      	str	r3, [r4, #8]
 8007f32:	89a3      	ldrh	r3, [r4, #12]
 8007f34:	071a      	lsls	r2, r3, #28
 8007f36:	d525      	bpl.n	8007f84 <__swbuf_r+0x68>
 8007f38:	6923      	ldr	r3, [r4, #16]
 8007f3a:	b31b      	cbz	r3, 8007f84 <__swbuf_r+0x68>
 8007f3c:	6823      	ldr	r3, [r4, #0]
 8007f3e:	6922      	ldr	r2, [r4, #16]
 8007f40:	1a98      	subs	r0, r3, r2
 8007f42:	6963      	ldr	r3, [r4, #20]
 8007f44:	b2f6      	uxtb	r6, r6
 8007f46:	4283      	cmp	r3, r0
 8007f48:	4637      	mov	r7, r6
 8007f4a:	dc04      	bgt.n	8007f56 <__swbuf_r+0x3a>
 8007f4c:	4621      	mov	r1, r4
 8007f4e:	4628      	mov	r0, r5
 8007f50:	f7ff ffbc 	bl	8007ecc <_fflush_r>
 8007f54:	b9e0      	cbnz	r0, 8007f90 <__swbuf_r+0x74>
 8007f56:	68a3      	ldr	r3, [r4, #8]
 8007f58:	3b01      	subs	r3, #1
 8007f5a:	60a3      	str	r3, [r4, #8]
 8007f5c:	6823      	ldr	r3, [r4, #0]
 8007f5e:	1c5a      	adds	r2, r3, #1
 8007f60:	6022      	str	r2, [r4, #0]
 8007f62:	701e      	strb	r6, [r3, #0]
 8007f64:	6962      	ldr	r2, [r4, #20]
 8007f66:	1c43      	adds	r3, r0, #1
 8007f68:	429a      	cmp	r2, r3
 8007f6a:	d004      	beq.n	8007f76 <__swbuf_r+0x5a>
 8007f6c:	89a3      	ldrh	r3, [r4, #12]
 8007f6e:	07db      	lsls	r3, r3, #31
 8007f70:	d506      	bpl.n	8007f80 <__swbuf_r+0x64>
 8007f72:	2e0a      	cmp	r6, #10
 8007f74:	d104      	bne.n	8007f80 <__swbuf_r+0x64>
 8007f76:	4621      	mov	r1, r4
 8007f78:	4628      	mov	r0, r5
 8007f7a:	f7ff ffa7 	bl	8007ecc <_fflush_r>
 8007f7e:	b938      	cbnz	r0, 8007f90 <__swbuf_r+0x74>
 8007f80:	4638      	mov	r0, r7
 8007f82:	bdf8      	pop	{r3, r4, r5, r6, r7, pc}
 8007f84:	4621      	mov	r1, r4
 8007f86:	4628      	mov	r0, r5
 8007f88:	f000 f806 	bl	8007f98 <__swsetup_r>
 8007f8c:	2800      	cmp	r0, #0
 8007f8e:	d0d5      	beq.n	8007f3c <__swbuf_r+0x20>
 8007f90:	f04f 37ff 	mov.w	r7, #4294967295
 8007f94:	e7f4      	b.n	8007f80 <__swbuf_r+0x64>
	...

08007f98 <__swsetup_r>:
 8007f98:	b538      	push	{r3, r4, r5, lr}
 8007f9a:	4b2a      	ldr	r3, [pc, #168]	; (8008044 <__swsetup_r+0xac>)
 8007f9c:	4605      	mov	r5, r0
 8007f9e:	6818      	ldr	r0, [r3, #0]
 8007fa0:	460c      	mov	r4, r1
 8007fa2:	b118      	cbz	r0, 8007fac <__swsetup_r+0x14>
 8007fa4:	6a03      	ldr	r3, [r0, #32]
 8007fa6:	b90b      	cbnz	r3, 8007fac <__swsetup_r+0x14>
 8007fa8:	f7ff f9c6 	bl	8007338 <__sinit>
 8007fac:	89a3      	ldrh	r3, [r4, #12]
 8007fae:	f9b4 200c 	ldrsh.w	r2, [r4, #12]
 8007fb2:	0718      	lsls	r0, r3, #28
 8007fb4:	d422      	bmi.n	8007ffc <__swsetup_r+0x64>
 8007fb6:	06d9      	lsls	r1, r3, #27
 8007fb8:	d407      	bmi.n	8007fca <__swsetup_r+0x32>
 8007fba:	2309      	movs	r3, #9
 8007fbc:	602b      	str	r3, [r5, #0]
 8007fbe:	f042 0340 	orr.w	r3, r2, #64	; 0x40
 8007fc2:	81a3      	strh	r3, [r4, #12]
 8007fc4:	f04f 30ff 	mov.w	r0, #4294967295
 8007fc8:	e034      	b.n	8008034 <__swsetup_r+0x9c>
 8007fca:	0758      	lsls	r0, r3, #29
 8007fcc:	d512      	bpl.n	8007ff4 <__swsetup_r+0x5c>
 8007fce:	6b61      	ldr	r1, [r4, #52]	; 0x34
 8007fd0:	b141      	cbz	r1, 8007fe4 <__swsetup_r+0x4c>
 8007fd2:	f104 0344 	add.w	r3, r4, #68	; 0x44
 8007fd6:	4299      	cmp	r1, r3
 8007fd8:	d002      	beq.n	8007fe0 <__swsetup_r+0x48>
 8007fda:	4628      	mov	r0, r5
 8007fdc:	f7ff fb24 	bl	8007628 <_free_r>
 8007fe0:	2300      	movs	r3, #0
 8007fe2:	6363      	str	r3, [r4, #52]	; 0x34
 8007fe4:	89a3      	ldrh	r3, [r4, #12]
 8007fe6:	f023 0324 	bic.w	r3, r3, #36	; 0x24
 8007fea:	81a3      	strh	r3, [r4, #12]
 8007fec:	2300      	movs	r3, #0
 8007fee:	6063      	str	r3, [r4, #4]
 8007ff0:	6923      	ldr	r3, [r4, #16]
 8007ff2:	6023      	str	r3, [r4, #0]
 8007ff4:	89a3      	ldrh	r3, [r4, #12]
 8007ff6:	f043 0308 	orr.w	r3, r3, #8
 8007ffa:	81a3      	strh	r3, [r4, #12]
 8007ffc:	6923      	ldr	r3, [r4, #16]
 8007ffe:	b94b      	cbnz	r3, 8008014 <__swsetup_r+0x7c>
 8008000:	89a3      	ldrh	r3, [r4, #12]
 8008002:	f403 7320 	and.w	r3, r3, #640	; 0x280
 8008006:	f5b3 7f00 	cmp.w	r3, #512	; 0x200
 800800a:	d003      	beq.n	8008014 <__swsetup_r+0x7c>
 800800c:	4621      	mov	r1, r4
 800800e:	4628      	mov	r0, r5
 8008010:	f000 f850 	bl	80080b4 <__smakebuf_r>
 8008014:	89a0      	ldrh	r0, [r4, #12]
 8008016:	f9b4 200c 	ldrsh.w	r2, [r4, #12]
 800801a:	f010 0301 	ands.w	r3, r0, #1
 800801e:	d00a      	beq.n	8008036 <__swsetup_r+0x9e>
 8008020:	2300      	movs	r3, #0
 8008022:	60a3      	str	r3, [r4, #8]
 8008024:	6963      	ldr	r3, [r4, #20]
 8008026:	425b      	negs	r3, r3
 8008028:	61a3      	str	r3, [r4, #24]
 800802a:	6923      	ldr	r3, [r4, #16]
 800802c:	b943      	cbnz	r3, 8008040 <__swsetup_r+0xa8>
 800802e:	f010 0080 	ands.w	r0, r0, #128	; 0x80
 8008032:	d1c4      	bne.n	8007fbe <__swsetup_r+0x26>
 8008034:	bd38      	pop	{r3, r4, r5, pc}
 8008036:	0781      	lsls	r1, r0, #30
 8008038:	bf58      	it	pl
 800803a:	6963      	ldrpl	r3, [r4, #20]
 800803c:	60a3      	str	r3, [r4, #8]
 800803e:	e7f4      	b.n	800802a <__swsetup_r+0x92>
 8008040:	2000      	movs	r0, #0
 8008042:	e7f7      	b.n	8008034 <__swsetup_r+0x9c>
 8008044:	200000b4 	.word	0x200000b4

08008048 <_sbrk_r>:
 8008048:	b538      	push	{r3, r4, r5, lr}
 800804a:	4d06      	ldr	r5, [pc, #24]	; (8008064 <_sbrk_r+0x1c>)
 800804c:	2300      	movs	r3, #0
 800804e:	4604      	mov	r4, r0
 8008050:	4608      	mov	r0, r1
 8008052:	602b      	str	r3, [r5, #0]
 8008054:	f7f9 fdd8 	bl	8001c08 <_sbrk>
 8008058:	1c43      	adds	r3, r0, #1
 800805a:	d102      	bne.n	8008062 <_sbrk_r+0x1a>
 800805c:	682b      	ldr	r3, [r5, #0]
 800805e:	b103      	cbz	r3, 8008062 <_sbrk_r+0x1a>
 8008060:	6023      	str	r3, [r4, #0]
 8008062:	bd38      	pop	{r3, r4, r5, pc}
 8008064:	200052fc 	.word	0x200052fc

08008068 <__swhatbuf_r>:
 8008068:	b570      	push	{r4, r5, r6, lr}
 800806a:	460c      	mov	r4, r1
 800806c:	f9b1 100e 	ldrsh.w	r1, [r1, #14]
 8008070:	2900      	cmp	r1, #0
 8008072:	b096      	sub	sp, #88	; 0x58
 8008074:	4615      	mov	r5, r2
 8008076:	461e      	mov	r6, r3
 8008078:	da0d      	bge.n	8008096 <__swhatbuf_r+0x2e>
 800807a:	89a3      	ldrh	r3, [r4, #12]
 800807c:	f013 0f80 	tst.w	r3, #128	; 0x80
 8008080:	f04f 0100 	mov.w	r1, #0
 8008084:	bf0c      	ite	eq
 8008086:	f44f 6380 	moveq.w	r3, #1024	; 0x400
 800808a:	2340      	movne	r3, #64	; 0x40
 800808c:	2000      	movs	r0, #0
 800808e:	6031      	str	r1, [r6, #0]
 8008090:	602b      	str	r3, [r5, #0]
 8008092:	b016      	add	sp, #88	; 0x58
 8008094:	bd70      	pop	{r4, r5, r6, pc}
 8008096:	466a      	mov	r2, sp
 8008098:	f000 f848 	bl	800812c <_fstat_r>
 800809c:	2800      	cmp	r0, #0
 800809e:	dbec      	blt.n	800807a <__swhatbuf_r+0x12>
 80080a0:	9901      	ldr	r1, [sp, #4]
 80080a2:	f401 4170 	and.w	r1, r1, #61440	; 0xf000
 80080a6:	f5a1 5300 	sub.w	r3, r1, #8192	; 0x2000
 80080aa:	4259      	negs	r1, r3
 80080ac:	4159      	adcs	r1, r3
 80080ae:	f44f 6380 	mov.w	r3, #1024	; 0x400
 80080b2:	e7eb      	b.n	800808c <__swhatbuf_r+0x24>

080080b4 <__smakebuf_r>:
 80080b4:	898b      	ldrh	r3, [r1, #12]
 80080b6:	b573      	push	{r0, r1, r4, r5, r6, lr}
 80080b8:	079d      	lsls	r5, r3, #30
 80080ba:	4606      	mov	r6, r0
 80080bc:	460c      	mov	r4, r1
 80080be:	d507      	bpl.n	80080d0 <__smakebuf_r+0x1c>
 80080c0:	f104 0347 	add.w	r3, r4, #71	; 0x47
 80080c4:	6023      	str	r3, [r4, #0]
 80080c6:	6123      	str	r3, [r4, #16]
 80080c8:	2301      	movs	r3, #1
 80080ca:	6163      	str	r3, [r4, #20]
 80080cc:	b002      	add	sp, #8
 80080ce:	bd70      	pop	{r4, r5, r6, pc}
 80080d0:	ab01      	add	r3, sp, #4
 80080d2:	466a      	mov	r2, sp
 80080d4:	f7ff ffc8 	bl	8008068 <__swhatbuf_r>
 80080d8:	9900      	ldr	r1, [sp, #0]
 80080da:	4605      	mov	r5, r0
 80080dc:	4630      	mov	r0, r6
 80080de:	f7ff fb0f 	bl	8007700 <_malloc_r>
 80080e2:	b948      	cbnz	r0, 80080f8 <__smakebuf_r+0x44>
 80080e4:	f9b4 300c 	ldrsh.w	r3, [r4, #12]
 80080e8:	059a      	lsls	r2, r3, #22
 80080ea:	d4ef      	bmi.n	80080cc <__smakebuf_r+0x18>
 80080ec:	f023 0303 	bic.w	r3, r3, #3
 80080f0:	f043 0302 	orr.w	r3, r3, #2
 80080f4:	81a3      	strh	r3, [r4, #12]
 80080f6:	e7e3      	b.n	80080c0 <__smakebuf_r+0xc>
 80080f8:	89a3      	ldrh	r3, [r4, #12]
 80080fa:	6020      	str	r0, [r4, #0]
 80080fc:	f043 0380 	orr.w	r3, r3, #128	; 0x80
 8008100:	81a3      	strh	r3, [r4, #12]
 8008102:	9b00      	ldr	r3, [sp, #0]
 8008104:	6163      	str	r3, [r4, #20]
 8008106:	9b01      	ldr	r3, [sp, #4]
 8008108:	6120      	str	r0, [r4, #16]
 800810a:	b15b      	cbz	r3, 8008124 <__smakebuf_r+0x70>
 800810c:	f9b4 100e 	ldrsh.w	r1, [r4, #14]
 8008110:	4630      	mov	r0, r6
 8008112:	f000 f81d 	bl	8008150 <_isatty_r>
 8008116:	b128      	cbz	r0, 8008124 <__smakebuf_r+0x70>
 8008118:	89a3      	ldrh	r3, [r4, #12]
 800811a:	f023 0303 	bic.w	r3, r3, #3
 800811e:	f043 0301 	orr.w	r3, r3, #1
 8008122:	81a3      	strh	r3, [r4, #12]
 8008124:	89a3      	ldrh	r3, [r4, #12]
 8008126:	431d      	orrs	r5, r3
 8008128:	81a5      	strh	r5, [r4, #12]
 800812a:	e7cf      	b.n	80080cc <__smakebuf_r+0x18>

0800812c <_fstat_r>:
 800812c:	b538      	push	{r3, r4, r5, lr}
 800812e:	4d07      	ldr	r5, [pc, #28]	; (800814c <_fstat_r+0x20>)
 8008130:	2300      	movs	r3, #0
 8008132:	4604      	mov	r4, r0
 8008134:	4608      	mov	r0, r1
 8008136:	4611      	mov	r1, r2
 8008138:	602b      	str	r3, [r5, #0]
 800813a:	f7f9 fd5c 	bl	8001bf6 <_fstat>
 800813e:	1c43      	adds	r3, r0, #1
 8008140:	d102      	bne.n	8008148 <_fstat_r+0x1c>
 8008142:	682b      	ldr	r3, [r5, #0]
 8008144:	b103      	cbz	r3, 8008148 <_fstat_r+0x1c>
 8008146:	6023      	str	r3, [r4, #0]
 8008148:	bd38      	pop	{r3, r4, r5, pc}
 800814a:	bf00      	nop
 800814c:	200052fc 	.word	0x200052fc

08008150 <_isatty_r>:
 8008150:	b538      	push	{r3, r4, r5, lr}
 8008152:	4d06      	ldr	r5, [pc, #24]	; (800816c <_isatty_r+0x1c>)
 8008154:	2300      	movs	r3, #0
 8008156:	4604      	mov	r4, r0
 8008158:	4608      	mov	r0, r1
 800815a:	602b      	str	r3, [r5, #0]
 800815c:	f7f9 fd50 	bl	8001c00 <_isatty>
 8008160:	1c43      	adds	r3, r0, #1
 8008162:	d102      	bne.n	800816a <_isatty_r+0x1a>
 8008164:	682b      	ldr	r3, [r5, #0]
 8008166:	b103      	cbz	r3, 800816a <_isatty_r+0x1a>
 8008168:	6023      	str	r3, [r4, #0]
 800816a:	bd38      	pop	{r3, r4, r5, pc}
 800816c:	200052fc 	.word	0x200052fc

08008170 <_init>:
 8008170:	b5f8      	push	{r3, r4, r5, r6, r7, lr}
 8008172:	bf00      	nop
 8008174:	bcf8      	pop	{r3, r4, r5, r6, r7}
 8008176:	bc08      	pop	{r3}
 8008178:	469e      	mov	lr, r3
 800817a:	4770      	bx	lr

0800817c <_fini>:
 800817c:	b5f8      	push	{r3, r4, r5, r6, r7, lr}
 800817e:	bf00      	nop
 8008180:	bcf8      	pop	{r3, r4, r5, r6, r7}
 8008182:	bc08      	pop	{r3}
 8008184:	469e      	mov	lr, r3
 8008186:	4770      	bx	lr
